; ModuleID = 'fully_connected_hvx128'
source_filename = "/home/arnoor2/Racket/TensorSynth/Rosette-experiments/frontends/halide/src/runtime/qurt_allocator.cpp"
target datalayout = "e-m:e-p:32:32:32-a:0-n16:32-i64:64:64-i32:32:32-i16:16:16-i1:8:8-f32:32:32-f64:64:64-v32:32:32-v64:64:64-v512:512:512-v1024:1024:1024-v2048:2048:2048"
target triple = "hexagon-unknown--elf"

%struct.halide_parallel_task_t = type { i32 (i8*, i32, i32, i8*, i8*)*, i8*, i8*, %struct.halide_semaphore_acquire_t*, i32, i32, i32, i32, i8 }
%struct.halide_semaphore_acquire_t = type { %struct.halide_semaphore_t*, i32 }
%struct.halide_semaphore_t = type { [2 x i64] }
%struct.halide_mutex_array = type { %struct.halide_mutex* }
%struct.halide_mutex = type { [1 x i32] }
%struct.halide_device_allocation_pool = type { i32 (i8*)*, %struct.halide_device_allocation_pool* }
%struct.halide_filter_argument_t = type { i8*, i32, i32, %struct.halide_type_t, %struct.halide_scalar_value_t*, %struct.halide_scalar_value_t*, %struct.halide_scalar_value_t*, %struct.halide_scalar_value_t*, i64** }
%struct.halide_type_t = type { i8, i8, i16 }
%struct.halide_scalar_value_t = type { %union.anon }
%union.anon = type { i64 }
%struct.halide_filter_metadata_t = type { i32, i32, %struct.halide_filter_argument_t*, i8*, i8* }
%struct.halide_thread = type opaque
%struct.halide_buffer_t = type { i64, %struct.halide_device_interface_t*, i8*, i64, %struct.halide_type_t, i32, %struct.halide_dimension_t*, i8* }
%struct.halide_device_interface_t = type { i32 (i8*, %struct.halide_buffer_t*, %struct.halide_device_interface_t*)*, i32 (i8*, %struct.halide_buffer_t*)*, i32 (i8*, %struct.halide_buffer_t*)*, void (i8*, %struct.halide_device_interface_t*)*, i32 (i8*, %struct.halide_buffer_t*)*, i32 (i8*, %struct.halide_buffer_t*, %struct.halide_device_interface_t*)*, i32 (i8*, %struct.halide_buffer_t*, %struct.halide_device_interface_t*)*, i32 (i8*, %struct.halide_buffer_t*)*, i32 (i8*, %struct.halide_buffer_t*, %struct.halide_device_interface_t*, %struct.halide_buffer_t*)*, i32 (i8*, %struct.halide_buffer_t*, %struct.halide_buffer_t*)*, i32 (i8*, %struct.halide_buffer_t*, i32, i32, %struct.halide_buffer_t*)*, i32 (i8*, %struct.halide_buffer_t*)*, i32 (i8*, %struct.halide_buffer_t*, i64, %struct.halide_device_interface_t*)*, i32 (i8*, %struct.halide_buffer_t*)*, i32 (i8*, i32*, i32*)*, %struct.halide_device_interface_impl_t* }
%struct.halide_device_interface_impl_t = type { void ()*, void ()*, i32 (i8*, %struct.halide_buffer_t*)*, i32 (i8*, %struct.halide_buffer_t*)*, i32 (i8*, %struct.halide_buffer_t*)*, i32 (i8*)*, i32 (i8*, %struct.halide_buffer_t*)*, i32 (i8*, %struct.halide_buffer_t*)*, i32 (i8*, %struct.halide_buffer_t*)*, i32 (i8*, %struct.halide_buffer_t*)*, i32 (i8*, %struct.halide_buffer_t*, %struct.halide_device_interface_t*, %struct.halide_buffer_t*)*, i32 (i8*, %struct.halide_buffer_t*, %struct.halide_buffer_t*)*, i32 (i8*, %struct.halide_buffer_t*, i32, i32, %struct.halide_buffer_t*)*, i32 (i8*, %struct.halide_buffer_t*)*, i32 (i8*, %struct.halide_buffer_t*, i64)*, i32 (i8*, %struct.halide_buffer_t*)* }
%struct.halide_dimension_t = type { i32, i32, i32, i32 }
%"struct.Halide::Runtime::Internal::device_copy" = type { i64, i64, i64, [16 x i64], [16 x i64], [16 x i64], i64 }
%"struct.Halide::Runtime::Internal::CpuFeatures" = type { [2 x i64], [2 x i64] }

@_ZN6Halide7Runtime8Internal11buf_is_usedE = linkonce global [10 x i32] zeroinitializer, align 4
@_ZN6Halide7Runtime8Internal7mem_bufE = linkonce local_unnamed_addr global [10 x i8*] zeroinitializer, align 4
@_ZN6Halide7Runtime8Internal13custom_mallocE = linkonce local_unnamed_addr global i8* (i8*, i32)* @halide_default_malloc, align 4
@_ZN6Halide7Runtime8Internal11custom_freeE = linkonce local_unnamed_addr global void (i8*, i8*)* @halide_default_free, align 4
@.str = private unnamed_addr constant [45 x i8] c"custom allocators not supported on Hexagon.\0A\00", align 1
@llvm.global_dtors = appending global [1 x { i32, void ()*, i8* }] [{ i32, void ()*, i8* } { i32 65535, void ()* @_ZN6Halide7Runtime8Internal24halide_allocator_cleanupEv, i8* null }]
@_ZN6Halide7Runtime8Internal14custom_do_taskE = linkonce local_unnamed_addr global i32 (i8*, i32 (i8*, i32, i8*)*, i32, i8*)* @halide_default_do_task, align 4
@_ZN6Halide7Runtime8Internal19custom_do_loop_taskE = linkonce local_unnamed_addr global i32 (i8*, i32 (i8*, i32, i32, i8*, i8*)*, i32, i32, i8*, i8*)* @halide_default_do_loop_task, align 4
@_ZN6Halide7Runtime8Internal17custom_do_par_forE = linkonce local_unnamed_addr global i32 (i8*, i32 (i8*, i32, i8*)*, i32, i32, i8*)* @halide_default_do_par_for, align 4
@_ZN6Halide7Runtime8Internal24custom_do_parallel_tasksE = linkonce local_unnamed_addr global i32 (i8*, i32, %struct.halide_parallel_task_t*, i8*)* @halide_default_do_parallel_tasks, align 4
@.str.1 = private unnamed_addr constant [67 x i8] c"halide_default_do_parallel_tasks not implemented on this platform.\00", align 1
@_ZN6Halide7Runtime8Internal21custom_semaphore_initE = linkonce local_unnamed_addr global i32 (%struct.halide_semaphore_t*, i32)* @halide_default_semaphore_init, align 4
@.str.1.2 = private unnamed_addr constant [64 x i8] c"halide_default_semaphore_init not implemented on this platform.\00", align 1
@_ZN6Halide7Runtime8Internal28custom_semaphore_try_acquireE = linkonce local_unnamed_addr global i1 (%struct.halide_semaphore_t*, i32)* @halide_default_semaphore_try_acquire, align 4
@.str.3 = private unnamed_addr constant [71 x i8] c"halide_default_semaphore_try_acquire not implemented on this platform.\00", align 1
@_ZN6Halide7Runtime8Internal24custom_semaphore_releaseE = linkonce local_unnamed_addr global i32 (%struct.halide_semaphore_t*, i32)* @halide_default_semaphore_release, align 4
@.str.2 = private unnamed_addr constant [67 x i8] c"halide_default_semaphore_release not implemented on this platform.\00", align 1
@_ZN6Halide7Runtime8Internal23halide_fake_mutex_arrayE = linkonce global %struct.halide_mutex_array zeroinitializer, align 4
@.str.4 = private unnamed_addr constant [54 x i8] c"halide_spawn_thread not implemented on this platform.\00", align 1
@.str.5 = private unnamed_addr constant [53 x i8] c"halide_join_thread not implemented on this platform.\00", align 1
@.str.6 = private unnamed_addr constant [69 x i8] c"halide_set_num_threads: only supports a value of 1 on this platform.\00", align 1
@_ZN6Halide7Runtime8Internal17halide_gpu_deviceE = linkonce local_unnamed_addr global i32 0, align 4
@_ZN6Halide7Runtime8Internal22halide_gpu_device_lockE = linkonce global i8 0, align 1
@_ZN6Halide7Runtime8Internal29halide_gpu_device_initializedE = linkonce local_unnamed_addr global i8 0, align 1
@.str.7 = private unnamed_addr constant [14 x i8] c"HL_GPU_DEVICE\00", align 1
@.str.8 = private unnamed_addr constant [10 x i8] c"<nullptr>\00", align 1
@.str.1.9 = private unnamed_addr constant [5 x i8] c"-nan\00", align 1
@.str.2.10 = private unnamed_addr constant [4 x i8] c"nan\00", align 1
@.str.3.11 = private unnamed_addr constant [5 x i8] c"-inf\00", align 1
@.str.4.12 = private unnamed_addr constant [4 x i8] c"inf\00", align 1
@.str.5.13 = private unnamed_addr constant [14 x i8] c"-0.000000e+00\00", align 1
@.str.6.14 = private unnamed_addr constant [13 x i8] c"0.000000e+00\00", align 1
@.str.7.15 = private unnamed_addr constant [10 x i8] c"-0.000000\00", align 1
@.str.8.16 = private unnamed_addr constant [9 x i8] c"0.000000\00", align 1
@.str.9 = private unnamed_addr constant [2 x i8] c"-\00", align 1
@.str.11 = private unnamed_addr constant [3 x i8] c"e+\00", align 1
@.str.12 = private unnamed_addr constant [3 x i8] c"e-\00", align 1
@.str.13 = private unnamed_addr constant [17 x i8] c"0123456789abcdef\00", align 1
@.str.18 = private unnamed_addr constant [14 x i8] c"bad_type_code\00", align 1
@.str.17 = private unnamed_addr constant [7 x i8] c"handle\00", align 1
@.str.16 = private unnamed_addr constant [6 x i8] c"float\00", align 1
@.str.15 = private unnamed_addr constant [5 x i8] c"uint\00", align 1
@.str.14 = private unnamed_addr constant [4 x i8] c"int\00", align 1
@.str.19 = private unnamed_addr constant [2 x i8] c"x\00", align 1
@.str.20 = private unnamed_addr constant [8 x i8] c"nullptr\00", align 1
@.str.21 = private unnamed_addr constant [8 x i8] c"buffer(\00", align 1
@.str.23 = private unnamed_addr constant [4 x i8] c", {\00", align 1
@.str.24 = private unnamed_addr constant [2 x i8] c"}\00", align 1
@_ZN6Halide7Runtime8Internal36halide_reuse_device_allocations_flagE = linkonce local_unnamed_addr global i8 1, align 1
@_ZN6Halide7Runtime8Internal21allocation_pools_lockE = linkonce global %struct.halide_mutex zeroinitializer, align 4
@_ZN6Halide7Runtime8Internal23device_allocation_poolsE = linkonce local_unnamed_addr global %struct.halide_device_allocation_pool* null, align 4
@_ZN6Halide7Runtime8Internal17device_copy_mutexE = linkonce global %struct.halide_mutex zeroinitializer, align 4
@.str.6.17 = private unnamed_addr constant [20 x i8] c"halide_copy_to_host\00", align 1
@.str.7.18 = private unnamed_addr constant [22 x i8] c"halide_copy_to_device\00", align 1
@.str.9.19 = private unnamed_addr constant [61 x i8] c"halide_copy_to_device does not support switching interfaces\0A\00", align 1
@.str.17.20 = private unnamed_addr constant [21 x i8] c"halide_device_malloc\00", align 1
@.str.20.21 = private unnamed_addr constant [59 x i8] c"halide_device_malloc doesn't support switching interfaces\0A\00", align 1
@.str.16.22 = private unnamed_addr constant [19 x i8] c"halide_device_sync\00", align 1
@.str.21.23 = private unnamed_addr constant [19 x i8] c"halide_device_free\00", align 1
@.str.22.24 = private unnamed_addr constant [157 x i8] c"/home/arnoor2/Racket/TensorSynth/Rosette-experiments/frontends/halide/src/runtime/device_interface.cpp:252 halide_abort_if_false() failed: buf->device == 0\0A\00", align 1
@.str.23.25 = private unnamed_addr constant [30 x i8] c"halide_device_and_host_malloc\00", align 1
@.str.25.26 = private unnamed_addr constant [68 x i8] c"halide_device_and_host_malloc doesn't support switching interfaces\0A\00", align 1
@.str.26 = private unnamed_addr constant [42 x i8] c"allocating host and device memory failed\0A\00", align 1
@.str.27 = private unnamed_addr constant [28 x i8] c"halide_device_and_host_free\00", align 1
@.str.28 = private unnamed_addr constant [157 x i8] c"/home/arnoor2/Racket/TensorSynth/Rosette-experiments/frontends/halide/src/runtime/device_interface.cpp:317 halide_abort_if_false() failed: buf->device == 0\0A\00", align 1
@.str.29 = private unnamed_addr constant [38 x i8] c"halide_default_device_and_host_malloc\00", align 1
@.str.30 = private unnamed_addr constant [36 x i8] c"halide_default_device_and_host_free\00", align 1
@.str.31 = private unnamed_addr constant [26 x i8] c"halide_device_wrap_native\00", align 1
@.str.32 = private unnamed_addr constant [64 x i8] c"halide_device_wrap_native doesn't support switching interfaces\0A\00", align 1
@.str.33 = private unnamed_addr constant [28 x i8] c"halide_device_detach_native\00", align 1
@.str.34 = private unnamed_addr constant [157 x i8] c"/home/arnoor2/Racket/TensorSynth/Rosette-experiments/frontends/halide/src/runtime/device_interface.cpp:403 halide_abort_if_false() failed: buf->device == 0\0A\00", align 1
@.str.35 = private unnamed_addr constant [36 x i8] c"halide_default_device_detach_native\00", align 1
@.str.41 = private unnamed_addr constant [64 x i8] c"halide_buffer_copy does not support switching device interfaces\00", align 1
@.str.58 = private unnamed_addr constant [44 x i8] c"device_interface does not support cropping\0A\00", align 1
@.str.59 = private unnamed_addr constant [43 x i8] c"device_interface does not support slicing\0A\00", align 1
@.str.60 = private unnamed_addr constant [52 x i8] c"destination buffer already has a device allocation\0A\00", align 1
@.str.61 = private unnamed_addr constant [48 x i8] c"src and dst must have identical dimensionality\0A\00", align 1
@.str.64 = private unnamed_addr constant [52 x i8] c"dst must have exactly one fewer dimension than src\0A\00", align 1
@.str.36 = private unnamed_addr constant [41 x i8] c"Bounds inference call to external stage \00", align 1
@.str.1.37 = private unnamed_addr constant [27 x i8] c" returned non-zero value: \00", align 1
@.str.2.38 = private unnamed_addr constant [24 x i8] c"Call to external stage \00", align 1
@.str.3.39 = private unnamed_addr constant [18 x i8] c"Bounds given for \00", align 1
@.str.4.40 = private unnamed_addr constant [5 x i8] c" in \00", align 1
@.str.5.41 = private unnamed_addr constant [8 x i8] c" (from \00", align 1
@.str.6.42 = private unnamed_addr constant [5 x i8] c" to \00", align 1
@.str.7.43 = private unnamed_addr constant [38 x i8] c") do not cover required region (from \00", align 1
@.str.8.44 = private unnamed_addr constant [2 x i8] c")\00", align 1
@.str.9.45 = private unnamed_addr constant [11 x i8] c" has type \00", align 1
@.str.10.46 = private unnamed_addr constant [38 x i8] c" but type of the buffer passed in is \00", align 1
@.str.11.47 = private unnamed_addr constant [31 x i8] c" requires a buffer of exactly \00", align 1
@.str.12.48 = private unnamed_addr constant [43 x i8] c" dimensions, but the buffer passed in has \00", align 1
@.str.13.49 = private unnamed_addr constant [12 x i8] c" dimensions\00", align 1
@.str.14.50 = private unnamed_addr constant [17 x i8] c" is accessed at \00", align 1
@.str.15.51 = private unnamed_addr constant [28 x i8] c", which is before the min (\00", align 1
@.str.16.52 = private unnamed_addr constant [16 x i8] c") in dimension \00", align 1
@.str.17.53 = private unnamed_addr constant [28 x i8] c", which is beyond the max (\00", align 1
@.str.18.54 = private unnamed_addr constant [29 x i8] c"Total allocation for buffer \00", align 1
@.str.19.55 = private unnamed_addr constant [5 x i8] c" is \00", align 1
@.str.20.56 = private unnamed_addr constant [37 x i8] c", which exceeds the maximum size of \00", align 1
@.str.21.57 = private unnamed_addr constant [24 x i8] c"The extents for buffer \00", align 1
@.str.22.58 = private unnamed_addr constant [12 x i8] c" dimension \00", align 1
@.str.23.59 = private unnamed_addr constant [15 x i8] c" is negative (\00", align 1
@.str.24.60 = private unnamed_addr constant [31 x i8] c"Product of extents for buffer \00", align 1
@.str.25.61 = private unnamed_addr constant [29 x i8] c"Applying the constraints on \00", align 1
@.str.26.62 = private unnamed_addr constant [54 x i8] c" to the required region made it smaller in dimension \00", align 1
@.str.27.63 = private unnamed_addr constant [3 x i8] c". \00", align 1
@.str.28.64 = private unnamed_addr constant [16 x i8] c"Required size: \00", align 1
@.str.29.65 = private unnamed_addr constant [19 x i8] c"Constrained size: \00", align 1
@.str.30.66 = private unnamed_addr constant [2 x i8] c".\00", align 1
@.str.31.67 = private unnamed_addr constant [22 x i8] c"Constraint violated: \00", align 1
@.str.32.68 = private unnamed_addr constant [3 x i8] c" (\00", align 1
@.str.33.69 = private unnamed_addr constant [6 x i8] c") == \00", align 1
@.str.34.70 = private unnamed_addr constant [11 x i8] c"Parameter \00", align 1
@.str.35.71 = private unnamed_addr constant [23 x i8] c" but must be at least \00", align 1
@.str.36.72 = private unnamed_addr constant [22 x i8] c" but must be at most \00", align 1
@.str.37 = private unnamed_addr constant [47 x i8] c"Out of memory (halide_malloc returned nullptr)\00", align 1
@.str.38 = private unnamed_addr constant [17 x i8] c"Buffer argument \00", align 1
@.str.39 = private unnamed_addr constant [12 x i8] c" is nullptr\00", align 1
@.str.40 = private unnamed_addr constant [25 x i8] c"Failed to dump function \00", align 1
@.str.41.73 = private unnamed_addr constant [10 x i8] c" to file \00", align 1
@.str.42 = private unnamed_addr constant [13 x i8] c" with error \00", align 1
@.str.43 = private unnamed_addr constant [21 x i8] c"The host pointer of \00", align 1
@.str.44 = private unnamed_addr constant [22 x i8] c" is not aligned to a \00", align 1
@.str.45 = private unnamed_addr constant [17 x i8] c" bytes boundary.\00", align 1
@.str.46 = private unnamed_addr constant [12 x i8] c"The buffer \00", align 1
@.str.47 = private unnamed_addr constant [53 x i8] c" is dirty on device, but this pipeline was compiled \00", align 1
@.str.48 = private unnamed_addr constant [43 x i8] c"with no support for device to host copies.\00", align 1
@.str.49 = private unnamed_addr constant [55 x i8] c" is null, but the pipeline will access it on the host.\00", align 1
@.str.50 = private unnamed_addr constant [30 x i8] c"The folded storage dimension \00", align 1
@.str.51 = private unnamed_addr constant [5 x i8] c" of \00", align 1
@.str.52 = private unnamed_addr constant [36 x i8] c" was accessed out of order by loop \00", align 1
@.str.53 = private unnamed_addr constant [23 x i8] c"Cannot fold dimension \00", align 1
@.str.54 = private unnamed_addr constant [36 x i8] c" because an extern stage accesses [\00", align 1
@.str.55 = private unnamed_addr constant [3 x i8] c", \00", align 1
@.str.56 = private unnamed_addr constant [3 x i8] c"],\00", align 1
@.str.57 = private unnamed_addr constant [47 x i8] c" which is outside the range currently valid: [\00", align 1
@.str.58.74 = private unnamed_addr constant [3 x i8] c"].\00", align 1
@.str.59.75 = private unnamed_addr constant [47 x i8] c" which wraps around the boundary of the fold, \00", align 1
@.str.60.76 = private unnamed_addr constant [30 x i8] c"which occurs at multiples of \00", align 1
@.str.61.77 = private unnamed_addr constant [18 x i8] c"The fold factor (\00", align 1
@.str.62 = private unnamed_addr constant [16 x i8] c") of dimension \00", align 1
@.str.63 = private unnamed_addr constant [61 x i8] c" is too small to store the required region accessed by loop \00", align 1
@.str.64.78 = private unnamed_addr constant [3 x i8] c").\00", align 1
@.str.65 = private unnamed_addr constant [22 x i8] c"Requirement Failed: (\00", align 1
@.str.66 = private unnamed_addr constant [3 x i8] c") \00", align 1
@.str.67 = private unnamed_addr constant [59 x i8] c"A schedule specialized with specialize_fail() was chosen: \00", align 1
@.str.68 = private unnamed_addr constant [55 x i8] c"Buffer has a non-zero device but no device interface.\0A\00", align 1
@.str.69 = private unnamed_addr constant [57 x i8] c"Buffer has a non-null device_interface but device is 0.\0A\00", align 1
@.str.70 = private unnamed_addr constant [49 x i8] c"Buffer has both host and device dirty bits set.\0A\00", align 1
@.str.71 = private unnamed_addr constant [26 x i8] c"Buffer pointer passed to \00", align 1
@.str.72 = private unnamed_addr constant [11 x i8] c" is null.\0A\00", align 1
@.str.73 = private unnamed_addr constant [32 x i8] c"The explicit allocation bound (\00", align 1
@.str.74 = private unnamed_addr constant [45 x i8] c" is too small to store the required region (\00", align 1
@.str.75 = private unnamed_addr constant [77 x i8] c"Buffer could not be cropped (runtime error or unimplemented device option).\0A\00", align 1
@.str.4.91 = private unnamed_addr constant [22 x i8] c"qurt_hvx_lock failed\0A\00", align 1
@.str.7.92 = private unnamed_addr constant [35 x i8] c"Printer buffer allocation failed.\0A\00", align 1
@.str.6.93 = private unnamed_addr constant [24 x i8] c"qurt_hvx_unlock failed\0A\00", align 1
@_ZN6Halide7Runtime8Internal30custom_can_use_target_featuresE = linkonce local_unnamed_addr global i32 (i32, i64*)* @halide_default_can_use_target_features, align 4
@_ZN6Halide7Runtime8Internal36halide_cpu_features_initialized_lockE = linkonce global %struct.halide_mutex zeroinitializer, align 4
@_ZN6Halide7Runtime8Internal31halide_cpu_features_initializedE = linkonce local_unnamed_addr global i8 0, align 1
@_ZN6Halide7Runtime8Internal27halide_cpu_features_storageE = linkonce global [4 x i64] zeroinitializer, align 8
@.str.94 = private unnamed_addr constant [81 x i8] c"Internal error: wrong structure size passed to halide_can_use_target_features()\0A\00", align 1
@0 = private constant [4 x i64*] zeroinitializer
@str = private constant [6 x i8] c"input\00", align 32
@str.102 = private constant [11 x i8] c"input_zero\00", align 32
@1 = private constant i64 0
@2 = private constant [4 x i64*] [i64* @1, i64* null, i64* null, i64* null]
@str.103 = private constant [7 x i8] c"filter\00", align 32
@str.104 = private constant [12 x i8] c"filter_zero\00", align 32
@3 = private constant [2 x i64*] zeroinitializer
@str.105 = private constant [5 x i8] c"bias\00", align 32
@str.106 = private constant [12 x i8] c"output_zero\00", align 32
@str.107 = private constant [18 x i8] c"output_multiplier\00", align 32
@str.108 = private constant [13 x i8] c"output_shift\00", align 32
@str.109 = private constant [11 x i8] c"output_min\00", align 32
@str.110 = private constant [11 x i8] c"output_max\00", align 32
@4 = private constant [4 x i64*] zeroinitializer
@str.111 = private constant [7 x i8] c"output\00", align 32
@5 = private constant [11 x %struct.halide_filter_argument_t] [%struct.halide_filter_argument_t { i8* getelementptr inbounds ([6 x i8], [6 x i8]* @str, i32 0, i32 0), i32 1, i32 2, %struct.halide_type_t { i8 1, i8 8, i16 1 }, %struct.halide_scalar_value_t* null, %struct.halide_scalar_value_t* null, %struct.halide_scalar_value_t* null, %struct.halide_scalar_value_t* null, i64** getelementptr inbounds ([4 x i64*], [4 x i64*]* @0, i32 0, i32 0) }, %struct.halide_filter_argument_t { i8* getelementptr inbounds ([11 x i8], [11 x i8]* @str.102, i32 0, i32 0), i32 0, i32 0, %struct.halide_type_t { i8 1, i8 8, i16 1 }, %struct.halide_scalar_value_t* null, %struct.halide_scalar_value_t* null, %struct.halide_scalar_value_t* null, %struct.halide_scalar_value_t* null, i64** null }, %struct.halide_filter_argument_t { i8* getelementptr inbounds ([7 x i8], [7 x i8]* @str.103, i32 0, i32 0), i32 1, i32 2, %struct.halide_type_t { i8 1, i8 8, i16 1 }, %struct.halide_scalar_value_t* null, %struct.halide_scalar_value_t* null, %struct.halide_scalar_value_t* null, %struct.halide_scalar_value_t* null, i64** getelementptr inbounds ([4 x i64*], [4 x i64*]* @2, i32 0, i32 0) }, %struct.halide_filter_argument_t { i8* getelementptr inbounds ([12 x i8], [12 x i8]* @str.104, i32 0, i32 0), i32 0, i32 0, %struct.halide_type_t { i8 1, i8 8, i16 1 }, %struct.halide_scalar_value_t* null, %struct.halide_scalar_value_t* null, %struct.halide_scalar_value_t* null, %struct.halide_scalar_value_t* null, i64** null }, %struct.halide_filter_argument_t { i8* getelementptr inbounds ([5 x i8], [5 x i8]* @str.105, i32 0, i32 0), i32 1, i32 1, %struct.halide_type_t { i8 0, i8 32, i16 1 }, %struct.halide_scalar_value_t* null, %struct.halide_scalar_value_t* null, %struct.halide_scalar_value_t* null, %struct.halide_scalar_value_t* null, i64** getelementptr inbounds ([2 x i64*], [2 x i64*]* @3, i32 0, i32 0) }, %struct.halide_filter_argument_t { i8* getelementptr inbounds ([12 x i8], [12 x i8]* @str.106, i32 0, i32 0), i32 0, i32 0, %struct.halide_type_t { i8 1, i8 8, i16 1 }, %struct.halide_scalar_value_t* null, %struct.halide_scalar_value_t* null, %struct.halide_scalar_value_t* null, %struct.halide_scalar_value_t* null, i64** null }, %struct.halide_filter_argument_t { i8* getelementptr inbounds ([18 x i8], [18 x i8]* @str.107, i32 0, i32 0), i32 0, i32 0, %struct.halide_type_t { i8 0, i8 32, i16 1 }, %struct.halide_scalar_value_t* null, %struct.halide_scalar_value_t* null, %struct.halide_scalar_value_t* null, %struct.halide_scalar_value_t* null, i64** null }, %struct.halide_filter_argument_t { i8* getelementptr inbounds ([13 x i8], [13 x i8]* @str.108, i32 0, i32 0), i32 0, i32 0, %struct.halide_type_t { i8 0, i8 32, i16 1 }, %struct.halide_scalar_value_t* null, %struct.halide_scalar_value_t* null, %struct.halide_scalar_value_t* null, %struct.halide_scalar_value_t* null, i64** null }, %struct.halide_filter_argument_t { i8* getelementptr inbounds ([11 x i8], [11 x i8]* @str.109, i32 0, i32 0), i32 0, i32 0, %struct.halide_type_t { i8 1, i8 8, i16 1 }, %struct.halide_scalar_value_t* null, %struct.halide_scalar_value_t* null, %struct.halide_scalar_value_t* null, %struct.halide_scalar_value_t* null, i64** null }, %struct.halide_filter_argument_t { i8* getelementptr inbounds ([11 x i8], [11 x i8]* @str.110, i32 0, i32 0), i32 0, i32 0, %struct.halide_type_t { i8 1, i8 8, i16 1 }, %struct.halide_scalar_value_t* null, %struct.halide_scalar_value_t* null, %struct.halide_scalar_value_t* null, %struct.halide_scalar_value_t* null, i64** null }, %struct.halide_filter_argument_t { i8* getelementptr inbounds ([7 x i8], [7 x i8]* @str.111, i32 0, i32 0), i32 2, i32 2, %struct.halide_type_t { i8 1, i8 8, i16 1 }, %struct.halide_scalar_value_t* null, %struct.halide_scalar_value_t* null, %struct.halide_scalar_value_t* null, %struct.halide_scalar_value_t* null, i64** getelementptr inbounds ([4 x i64*], [4 x i64*]* @4, i32 0, i32 0) }]
@str.112 = private constant [63 x i8] c"hexagon-32-noos-hvx-hvx_128-hvx_v66-no_asserts-no_bounds_query\00", align 128
@str.113 = private constant [23 x i8] c"fully_connected_hvx128\00", align 32
@fully_connected_hvx128_metadata_storage = private constant %struct.halide_filter_metadata_t { i32 1, i32 11, %struct.halide_filter_argument_t* getelementptr inbounds ([11 x %struct.halide_filter_argument_t], [11 x %struct.halide_filter_argument_t]* @5, i32 0, i32 0), i8* getelementptr inbounds ([63 x i8], [63 x i8]* @str.112, i32 0, i32 0), i8* getelementptr inbounds ([23 x i8], [23 x i8]* @str.113, i32 0, i32 0) }
@switch.table.halide_type_to_string = private unnamed_addr constant [4 x i8*] [i8* getelementptr inbounds ([4 x i8], [4 x i8]* @.str.14, i32 0, i32 0), i8* getelementptr inbounds ([5 x i8], [5 x i8]* @.str.15, i32 0, i32 0), i8* getelementptr inbounds ([6 x i8], [6 x i8]* @.str.16, i32 0, i32 0), i8* getelementptr inbounds ([7 x i8], [7 x i8]* @.str.17, i32 0, i32 0)], align 4

; Function Attrs: nounwind mustprogress
define linkonce i8* @_ZN6Halide7Runtime8Internal14aligned_mallocEjj(i32 %alignment, i32 %size) local_unnamed_addr #0 {
entry:
  %add = add i32 %alignment, -1
  %sub = add i32 %add, %size
  %neg = sub i32 0, %alignment
  %and = and i32 %sub, %neg
  %add2 = add i32 %and, %alignment
  %call = tail call i8* @malloc(i32 %add2) #14
  %cmp = icmp eq i8* %call, null
  br i1 %cmp, label %cleanup, label %if.end

if.end:                                           ; preds = %entry
  %0 = ptrtoint i8* %call to i32
  %add3 = add i32 %alignment, 3
  %sub5 = add i32 %add3, %0
  %and8 = and i32 %sub5, %neg
  %1 = inttoptr i32 %and8 to i8*
  %2 = inttoptr i32 %and8 to i8**
  %arrayidx = getelementptr inbounds i8*, i8** %2, i32 -1
  store i8* %call, i8** %arrayidx, align 4, !tbaa !10
  br label %cleanup

cleanup:                                          ; preds = %if.end, %entry
  %retval.0 = phi i8* [ %1, %if.end ], [ null, %entry ]
  ret i8* %retval.0
}

declare i8* @malloc(i32) local_unnamed_addr #1

; Function Attrs: nounwind mustprogress
define linkonce void @_ZN6Halide7Runtime8Internal12aligned_freeEPv(i8* %ptr) local_unnamed_addr #0 {
entry:
  %tobool.not = icmp eq i8* %ptr, null
  br i1 %tobool.not, label %if.end, label %if.then

if.then:                                          ; preds = %entry
  %arrayidx = getelementptr inbounds i8, i8* %ptr, i32 -4
  %0 = bitcast i8* %arrayidx to i8**
  %1 = load i8*, i8** %0, align 4, !tbaa !10
  tail call void @free(i8* %1) #14
  br label %if.end

if.end:                                           ; preds = %if.then, %entry
  ret void
}

declare void @free(i8*) local_unnamed_addr #1

; Function Attrs: nounwind mustprogress
define linkonce void @_ZN6Halide7Runtime8Internal24halide_allocator_cleanupEv() #0 {
entry:
  %0 = load i8*, i8** getelementptr inbounds ([10 x i8*], [10 x i8*]* @_ZN6Halide7Runtime8Internal7mem_bufE, i32 0, i32 0), align 4, !tbaa !10
  tail call void @_ZN6Halide7Runtime8Internal12aligned_freeEPv(i8* %0) #15
  %1 = load i8*, i8** getelementptr inbounds ([10 x i8*], [10 x i8*]* @_ZN6Halide7Runtime8Internal7mem_bufE, i32 0, i32 1), align 4, !tbaa !10
  tail call void @_ZN6Halide7Runtime8Internal12aligned_freeEPv(i8* %1) #15
  %2 = load i8*, i8** getelementptr inbounds ([10 x i8*], [10 x i8*]* @_ZN6Halide7Runtime8Internal7mem_bufE, i32 0, i32 2), align 4, !tbaa !10
  tail call void @_ZN6Halide7Runtime8Internal12aligned_freeEPv(i8* %2) #15
  %3 = load i8*, i8** getelementptr inbounds ([10 x i8*], [10 x i8*]* @_ZN6Halide7Runtime8Internal7mem_bufE, i32 0, i32 3), align 4, !tbaa !10
  tail call void @_ZN6Halide7Runtime8Internal12aligned_freeEPv(i8* %3) #15
  %4 = load i8*, i8** getelementptr inbounds ([10 x i8*], [10 x i8*]* @_ZN6Halide7Runtime8Internal7mem_bufE, i32 0, i32 4), align 4, !tbaa !10
  tail call void @_ZN6Halide7Runtime8Internal12aligned_freeEPv(i8* %4) #15
  %5 = load i8*, i8** getelementptr inbounds ([10 x i8*], [10 x i8*]* @_ZN6Halide7Runtime8Internal7mem_bufE, i32 0, i32 5), align 4, !tbaa !10
  tail call void @_ZN6Halide7Runtime8Internal12aligned_freeEPv(i8* %5) #15
  %6 = load i8*, i8** getelementptr inbounds ([10 x i8*], [10 x i8*]* @_ZN6Halide7Runtime8Internal7mem_bufE, i32 0, i32 6), align 4, !tbaa !10
  tail call void @_ZN6Halide7Runtime8Internal12aligned_freeEPv(i8* %6) #15
  %7 = load i8*, i8** getelementptr inbounds ([10 x i8*], [10 x i8*]* @_ZN6Halide7Runtime8Internal7mem_bufE, i32 0, i32 7), align 4, !tbaa !10
  tail call void @_ZN6Halide7Runtime8Internal12aligned_freeEPv(i8* %7) #15
  %8 = load i8*, i8** getelementptr inbounds ([10 x i8*], [10 x i8*]* @_ZN6Halide7Runtime8Internal7mem_bufE, i32 0, i32 8), align 4, !tbaa !10
  tail call void @_ZN6Halide7Runtime8Internal12aligned_freeEPv(i8* %8) #15
  %9 = load i8*, i8** getelementptr inbounds ([10 x i8*], [10 x i8*]* @_ZN6Halide7Runtime8Internal7mem_bufE, i32 0, i32 9), align 4, !tbaa !10
  tail call void @_ZN6Halide7Runtime8Internal12aligned_freeEPv(i8* %9) #15
  ret void
}

; Function Attrs: nounwind mustprogress
define weak i8* @halide_default_malloc(i8* %user_context, i32 %x) #0 {
entry:
  %cmp = icmp ult i32 %x, 65537
  br i1 %cmp, label %for.body.preheader, label %if.end9

for.body.preheader:                               ; preds = %entry
  %0 = cmpxchg i32* getelementptr inbounds ([10 x i32], [10 x i32]* @_ZN6Halide7Runtime8Internal11buf_is_usedE, i32 0, i32 0), i32 0, i32 1 seq_cst seq_cst
  %cmp2 = extractvalue { i32, i1 } %0, 1
  br i1 %cmp2, label %for.body.preheader.if.then3_crit_edge, label %for.inc

for.body.preheader.if.then3_crit_edge:            ; preds = %for.body.preheader
  %arrayidx.0 = getelementptr inbounds [10 x i8*], [10 x i8*]* @_ZN6Halide7Runtime8Internal7mem_bufE, i32 0, i32 0
  br label %if.then3

if.then3:                                         ; preds = %for.inc.8.if.then3_crit_edge, %for.inc.7.if.then3_crit_edge, %for.inc.6.if.then3_crit_edge, %for.inc.5.if.then3_crit_edge, %for.inc.4.if.then3_crit_edge, %for.inc.3.if.then3_crit_edge, %for.inc.2.if.then3_crit_edge, %for.inc.1.if.then3_crit_edge, %for.inc.if.then3_crit_edge, %for.body.preheader.if.then3_crit_edge
  %arrayidx.phi = phi i8** [ %arrayidx.0, %for.body.preheader.if.then3_crit_edge ], [ %arrayidx.1, %for.inc.if.then3_crit_edge ], [ %arrayidx.2, %for.inc.1.if.then3_crit_edge ], [ %arrayidx.3, %for.inc.2.if.then3_crit_edge ], [ %arrayidx.4, %for.inc.3.if.then3_crit_edge ], [ %arrayidx.5, %for.inc.4.if.then3_crit_edge ], [ %arrayidx.6, %for.inc.5.if.then3_crit_edge ], [ %arrayidx.7, %for.inc.6.if.then3_crit_edge ], [ %arrayidx.8, %for.inc.7.if.then3_crit_edge ], [ %arrayidx.9, %for.inc.8.if.then3_crit_edge ]
  %1 = load i8*, i8** %arrayidx.phi, align 4, !tbaa !10
  %cmp4 = icmp eq i8* %1, null
  br i1 %cmp4, label %if.then5, label %cleanup11

if.then5:                                         ; preds = %if.then3
  %call = tail call i8* @_ZN6Halide7Runtime8Internal14aligned_mallocEjj(i32 128, i32 65536) #15
  store i8* %call, i8** %arrayidx.phi, align 4, !tbaa !10
  br label %cleanup11

for.inc:                                          ; preds = %for.body.preheader
  %2 = cmpxchg i32* getelementptr inbounds ([10 x i32], [10 x i32]* @_ZN6Halide7Runtime8Internal11buf_is_usedE, i32 0, i32 1), i32 0, i32 1 seq_cst seq_cst
  %cmp2.1 = extractvalue { i32, i1 } %2, 1
  br i1 %cmp2.1, label %for.inc.if.then3_crit_edge, label %for.inc.1

for.inc.if.then3_crit_edge:                       ; preds = %for.inc
  %arrayidx.1 = getelementptr inbounds [10 x i8*], [10 x i8*]* @_ZN6Halide7Runtime8Internal7mem_bufE, i32 0, i32 1
  br label %if.then3

if.end9:                                          ; preds = %for.inc.8, %entry
  %call10 = tail call i8* @_ZN6Halide7Runtime8Internal14aligned_mallocEjj(i32 128, i32 %x) #15
  br label %cleanup11

cleanup11:                                        ; preds = %if.end9, %if.then5, %if.then3
  %retval.1 = phi i8* [ %call10, %if.end9 ], [ %1, %if.then3 ], [ %call, %if.then5 ]
  ret i8* %retval.1

for.inc.1:                                        ; preds = %for.inc
  %3 = cmpxchg i32* getelementptr inbounds ([10 x i32], [10 x i32]* @_ZN6Halide7Runtime8Internal11buf_is_usedE, i32 0, i32 2), i32 0, i32 1 seq_cst seq_cst
  %cmp2.2 = extractvalue { i32, i1 } %3, 1
  br i1 %cmp2.2, label %for.inc.1.if.then3_crit_edge, label %for.inc.2

for.inc.1.if.then3_crit_edge:                     ; preds = %for.inc.1
  %arrayidx.2 = getelementptr inbounds [10 x i8*], [10 x i8*]* @_ZN6Halide7Runtime8Internal7mem_bufE, i32 0, i32 2
  br label %if.then3

for.inc.2:                                        ; preds = %for.inc.1
  %4 = cmpxchg i32* getelementptr inbounds ([10 x i32], [10 x i32]* @_ZN6Halide7Runtime8Internal11buf_is_usedE, i32 0, i32 3), i32 0, i32 1 seq_cst seq_cst
  %cmp2.3 = extractvalue { i32, i1 } %4, 1
  br i1 %cmp2.3, label %for.inc.2.if.then3_crit_edge, label %for.inc.3

for.inc.2.if.then3_crit_edge:                     ; preds = %for.inc.2
  %arrayidx.3 = getelementptr inbounds [10 x i8*], [10 x i8*]* @_ZN6Halide7Runtime8Internal7mem_bufE, i32 0, i32 3
  br label %if.then3

for.inc.3:                                        ; preds = %for.inc.2
  %5 = cmpxchg i32* getelementptr inbounds ([10 x i32], [10 x i32]* @_ZN6Halide7Runtime8Internal11buf_is_usedE, i32 0, i32 4), i32 0, i32 1 seq_cst seq_cst
  %cmp2.4 = extractvalue { i32, i1 } %5, 1
  br i1 %cmp2.4, label %for.inc.3.if.then3_crit_edge, label %for.inc.4

for.inc.3.if.then3_crit_edge:                     ; preds = %for.inc.3
  %arrayidx.4 = getelementptr inbounds [10 x i8*], [10 x i8*]* @_ZN6Halide7Runtime8Internal7mem_bufE, i32 0, i32 4
  br label %if.then3

for.inc.4:                                        ; preds = %for.inc.3
  %6 = cmpxchg i32* getelementptr inbounds ([10 x i32], [10 x i32]* @_ZN6Halide7Runtime8Internal11buf_is_usedE, i32 0, i32 5), i32 0, i32 1 seq_cst seq_cst
  %cmp2.5 = extractvalue { i32, i1 } %6, 1
  br i1 %cmp2.5, label %for.inc.4.if.then3_crit_edge, label %for.inc.5

for.inc.4.if.then3_crit_edge:                     ; preds = %for.inc.4
  %arrayidx.5 = getelementptr inbounds [10 x i8*], [10 x i8*]* @_ZN6Halide7Runtime8Internal7mem_bufE, i32 0, i32 5
  br label %if.then3

for.inc.5:                                        ; preds = %for.inc.4
  %7 = cmpxchg i32* getelementptr inbounds ([10 x i32], [10 x i32]* @_ZN6Halide7Runtime8Internal11buf_is_usedE, i32 0, i32 6), i32 0, i32 1 seq_cst seq_cst
  %cmp2.6 = extractvalue { i32, i1 } %7, 1
  br i1 %cmp2.6, label %for.inc.5.if.then3_crit_edge, label %for.inc.6

for.inc.5.if.then3_crit_edge:                     ; preds = %for.inc.5
  %arrayidx.6 = getelementptr inbounds [10 x i8*], [10 x i8*]* @_ZN6Halide7Runtime8Internal7mem_bufE, i32 0, i32 6
  br label %if.then3

for.inc.6:                                        ; preds = %for.inc.5
  %8 = cmpxchg i32* getelementptr inbounds ([10 x i32], [10 x i32]* @_ZN6Halide7Runtime8Internal11buf_is_usedE, i32 0, i32 7), i32 0, i32 1 seq_cst seq_cst
  %cmp2.7 = extractvalue { i32, i1 } %8, 1
  br i1 %cmp2.7, label %for.inc.6.if.then3_crit_edge, label %for.inc.7

for.inc.6.if.then3_crit_edge:                     ; preds = %for.inc.6
  %arrayidx.7 = getelementptr inbounds [10 x i8*], [10 x i8*]* @_ZN6Halide7Runtime8Internal7mem_bufE, i32 0, i32 7
  br label %if.then3

for.inc.7:                                        ; preds = %for.inc.6
  %9 = cmpxchg i32* getelementptr inbounds ([10 x i32], [10 x i32]* @_ZN6Halide7Runtime8Internal11buf_is_usedE, i32 0, i32 8), i32 0, i32 1 seq_cst seq_cst
  %cmp2.8 = extractvalue { i32, i1 } %9, 1
  br i1 %cmp2.8, label %for.inc.7.if.then3_crit_edge, label %for.inc.8

for.inc.7.if.then3_crit_edge:                     ; preds = %for.inc.7
  %arrayidx.8 = getelementptr inbounds [10 x i8*], [10 x i8*]* @_ZN6Halide7Runtime8Internal7mem_bufE, i32 0, i32 8
  br label %if.then3

for.inc.8:                                        ; preds = %for.inc.7
  %10 = cmpxchg i32* getelementptr inbounds ([10 x i32], [10 x i32]* @_ZN6Halide7Runtime8Internal11buf_is_usedE, i32 0, i32 9), i32 0, i32 1 seq_cst seq_cst
  %cmp2.9 = extractvalue { i32, i1 } %10, 1
  br i1 %cmp2.9, label %for.inc.8.if.then3_crit_edge, label %if.end9

for.inc.8.if.then3_crit_edge:                     ; preds = %for.inc.8
  %arrayidx.9 = getelementptr inbounds [10 x i8*], [10 x i8*]* @_ZN6Halide7Runtime8Internal7mem_bufE, i32 0, i32 9
  br label %if.then3
}

; Function Attrs: nounwind mustprogress
define weak void @halide_default_free(i8* %user_context, i8* %ptr) #0 {
entry:
  %0 = load i8*, i8** getelementptr inbounds ([10 x i8*], [10 x i8*]* @_ZN6Halide7Runtime8Internal7mem_bufE, i32 0, i32 0), align 4, !tbaa !10
  %cmp1 = icmp eq i8* %0, %ptr
  br i1 %cmp1, label %entry.if.then_crit_edge, label %for.inc

entry.if.then_crit_edge:                          ; preds = %entry
  %arrayidx2.0 = getelementptr inbounds [10 x i32], [10 x i32]* @_ZN6Halide7Runtime8Internal11buf_is_usedE, i32 0, i32 0
  br label %if.then

if.then:                                          ; preds = %for.inc.8.if.then_crit_edge, %for.inc.7.if.then_crit_edge, %for.inc.6.if.then_crit_edge, %for.inc.5.if.then_crit_edge, %for.inc.4.if.then_crit_edge, %for.inc.3.if.then_crit_edge, %for.inc.2.if.then_crit_edge, %for.inc.1.if.then_crit_edge, %for.inc.if.then_crit_edge, %entry.if.then_crit_edge
  %arrayidx2.phi = phi i32* [ %arrayidx2.0, %entry.if.then_crit_edge ], [ %arrayidx2.1, %for.inc.if.then_crit_edge ], [ %arrayidx2.2, %for.inc.1.if.then_crit_edge ], [ %arrayidx2.3, %for.inc.2.if.then_crit_edge ], [ %arrayidx2.4, %for.inc.3.if.then_crit_edge ], [ %arrayidx2.5, %for.inc.4.if.then_crit_edge ], [ %arrayidx2.6, %for.inc.5.if.then_crit_edge ], [ %arrayidx2.7, %for.inc.6.if.then_crit_edge ], [ %arrayidx2.8, %for.inc.7.if.then_crit_edge ], [ %arrayidx2.9, %for.inc.8.if.then_crit_edge ]
  store i32 0, i32* %arrayidx2.phi, align 4, !tbaa !14
  br label %return

for.inc:                                          ; preds = %entry
  %1 = load i8*, i8** getelementptr inbounds ([10 x i8*], [10 x i8*]* @_ZN6Halide7Runtime8Internal7mem_bufE, i32 0, i32 1), align 4, !tbaa !10
  %cmp1.1 = icmp eq i8* %1, %ptr
  br i1 %cmp1.1, label %for.inc.if.then_crit_edge, label %for.inc.1

for.inc.if.then_crit_edge:                        ; preds = %for.inc
  %arrayidx2.1 = getelementptr inbounds [10 x i32], [10 x i32]* @_ZN6Halide7Runtime8Internal11buf_is_usedE, i32 0, i32 1
  br label %if.then

return:                                           ; preds = %for.inc.9, %if.then
  ret void

for.inc.1:                                        ; preds = %for.inc
  %2 = load i8*, i8** getelementptr inbounds ([10 x i8*], [10 x i8*]* @_ZN6Halide7Runtime8Internal7mem_bufE, i32 0, i32 2), align 4, !tbaa !10
  %cmp1.2 = icmp eq i8* %2, %ptr
  br i1 %cmp1.2, label %for.inc.1.if.then_crit_edge, label %for.inc.2

for.inc.1.if.then_crit_edge:                      ; preds = %for.inc.1
  %arrayidx2.2 = getelementptr inbounds [10 x i32], [10 x i32]* @_ZN6Halide7Runtime8Internal11buf_is_usedE, i32 0, i32 2
  br label %if.then

for.inc.2:                                        ; preds = %for.inc.1
  %3 = load i8*, i8** getelementptr inbounds ([10 x i8*], [10 x i8*]* @_ZN6Halide7Runtime8Internal7mem_bufE, i32 0, i32 3), align 4, !tbaa !10
  %cmp1.3 = icmp eq i8* %3, %ptr
  br i1 %cmp1.3, label %for.inc.2.if.then_crit_edge, label %for.inc.3

for.inc.2.if.then_crit_edge:                      ; preds = %for.inc.2
  %arrayidx2.3 = getelementptr inbounds [10 x i32], [10 x i32]* @_ZN6Halide7Runtime8Internal11buf_is_usedE, i32 0, i32 3
  br label %if.then

for.inc.3:                                        ; preds = %for.inc.2
  %4 = load i8*, i8** getelementptr inbounds ([10 x i8*], [10 x i8*]* @_ZN6Halide7Runtime8Internal7mem_bufE, i32 0, i32 4), align 4, !tbaa !10
  %cmp1.4 = icmp eq i8* %4, %ptr
  br i1 %cmp1.4, label %for.inc.3.if.then_crit_edge, label %for.inc.4

for.inc.3.if.then_crit_edge:                      ; preds = %for.inc.3
  %arrayidx2.4 = getelementptr inbounds [10 x i32], [10 x i32]* @_ZN6Halide7Runtime8Internal11buf_is_usedE, i32 0, i32 4
  br label %if.then

for.inc.4:                                        ; preds = %for.inc.3
  %5 = load i8*, i8** getelementptr inbounds ([10 x i8*], [10 x i8*]* @_ZN6Halide7Runtime8Internal7mem_bufE, i32 0, i32 5), align 4, !tbaa !10
  %cmp1.5 = icmp eq i8* %5, %ptr
  br i1 %cmp1.5, label %for.inc.4.if.then_crit_edge, label %for.inc.5

for.inc.4.if.then_crit_edge:                      ; preds = %for.inc.4
  %arrayidx2.5 = getelementptr inbounds [10 x i32], [10 x i32]* @_ZN6Halide7Runtime8Internal11buf_is_usedE, i32 0, i32 5
  br label %if.then

for.inc.5:                                        ; preds = %for.inc.4
  %6 = load i8*, i8** getelementptr inbounds ([10 x i8*], [10 x i8*]* @_ZN6Halide7Runtime8Internal7mem_bufE, i32 0, i32 6), align 4, !tbaa !10
  %cmp1.6 = icmp eq i8* %6, %ptr
  br i1 %cmp1.6, label %for.inc.5.if.then_crit_edge, label %for.inc.6

for.inc.5.if.then_crit_edge:                      ; preds = %for.inc.5
  %arrayidx2.6 = getelementptr inbounds [10 x i32], [10 x i32]* @_ZN6Halide7Runtime8Internal11buf_is_usedE, i32 0, i32 6
  br label %if.then

for.inc.6:                                        ; preds = %for.inc.5
  %7 = load i8*, i8** getelementptr inbounds ([10 x i8*], [10 x i8*]* @_ZN6Halide7Runtime8Internal7mem_bufE, i32 0, i32 7), align 4, !tbaa !10
  %cmp1.7 = icmp eq i8* %7, %ptr
  br i1 %cmp1.7, label %for.inc.6.if.then_crit_edge, label %for.inc.7

for.inc.6.if.then_crit_edge:                      ; preds = %for.inc.6
  %arrayidx2.7 = getelementptr inbounds [10 x i32], [10 x i32]* @_ZN6Halide7Runtime8Internal11buf_is_usedE, i32 0, i32 7
  br label %if.then

for.inc.7:                                        ; preds = %for.inc.6
  %8 = load i8*, i8** getelementptr inbounds ([10 x i8*], [10 x i8*]* @_ZN6Halide7Runtime8Internal7mem_bufE, i32 0, i32 8), align 4, !tbaa !10
  %cmp1.8 = icmp eq i8* %8, %ptr
  br i1 %cmp1.8, label %for.inc.7.if.then_crit_edge, label %for.inc.8

for.inc.7.if.then_crit_edge:                      ; preds = %for.inc.7
  %arrayidx2.8 = getelementptr inbounds [10 x i32], [10 x i32]* @_ZN6Halide7Runtime8Internal11buf_is_usedE, i32 0, i32 8
  br label %if.then

for.inc.8:                                        ; preds = %for.inc.7
  %9 = load i8*, i8** getelementptr inbounds ([10 x i8*], [10 x i8*]* @_ZN6Halide7Runtime8Internal7mem_bufE, i32 0, i32 9), align 4, !tbaa !10
  %cmp1.9 = icmp eq i8* %9, %ptr
  br i1 %cmp1.9, label %for.inc.8.if.then_crit_edge, label %for.inc.9

for.inc.8.if.then_crit_edge:                      ; preds = %for.inc.8
  %arrayidx2.9 = getelementptr inbounds [10 x i32], [10 x i32]* @_ZN6Halide7Runtime8Internal11buf_is_usedE, i32 0, i32 9
  br label %if.then

for.inc.9:                                        ; preds = %for.inc.8
  tail call void @_ZN6Halide7Runtime8Internal12aligned_freeEPv(i8* %ptr) #15
  br label %return
}

; Function Attrs: nounwind mustprogress
define weak i8* (i8*, i32)* @halide_set_custom_malloc(i8* (i8*, i32)* %user_malloc) local_unnamed_addr #0 {
entry:
  tail call void @halide_print(i8* null, i8* getelementptr inbounds ([45 x i8], [45 x i8]* @.str, i32 0, i32 0)) #14
  %0 = load i8* (i8*, i32)*, i8* (i8*, i32)** @_ZN6Halide7Runtime8Internal13custom_mallocE, align 4, !tbaa !10
  store i8* (i8*, i32)* %user_malloc, i8* (i8*, i32)** @_ZN6Halide7Runtime8Internal13custom_mallocE, align 4, !tbaa !10
  ret i8* (i8*, i32)* %0
}

declare void @halide_print(i8*, i8*) local_unnamed_addr #1

; Function Attrs: nounwind mustprogress
define weak void (i8*, i8*)* @halide_set_custom_free(void (i8*, i8*)* %user_free) local_unnamed_addr #0 {
entry:
  tail call void @halide_print(i8* null, i8* getelementptr inbounds ([45 x i8], [45 x i8]* @.str, i32 0, i32 0)) #14
  %0 = load void (i8*, i8*)*, void (i8*, i8*)** @_ZN6Halide7Runtime8Internal11custom_freeE, align 4, !tbaa !10
  store void (i8*, i8*)* %user_free, void (i8*, i8*)** @_ZN6Halide7Runtime8Internal11custom_freeE, align 4, !tbaa !10
  ret void (i8*, i8*)* %0
}

; Function Attrs: nounwind mustprogress
define weak noalias i8* @halide_malloc(i8* %user_context, i32 %x) local_unnamed_addr #0 {
entry:
  %call = tail call i8* @halide_default_malloc(i8* %user_context, i32 %x) #15
  ret i8* %call
}

; Function Attrs: nounwind mustprogress
define weak void @halide_free(i8* %user_context, i8* %ptr) local_unnamed_addr #0 {
entry:
  tail call void @halide_default_free(i8* %user_context, i8* %ptr) #15
  ret void
}

; Function Attrs: nounwind mustprogress
define weak i32 @halide_default_do_task(i8* %user_context, i32 (i8*, i32, i8*)* %f, i32 %idx, i8* %closure) #0 {
entry:
  %call = tail call i32 %f(i8* %user_context, i32 %idx, i8* %closure) #14
  ret i32 %call
}

; Function Attrs: nounwind mustprogress
define weak i32 @halide_default_do_loop_task(i8* %user_context, i32 (i8*, i32, i32, i8*, i8*)* %f, i32 %min, i32 %extent, i8* %closure, i8* %task_parent) #0 {
entry:
  %call = tail call i32 %f(i8* %user_context, i32 %min, i32 %extent, i8* %closure, i8* %task_parent) #14
  ret i32 %call
}

; Function Attrs: nounwind mustprogress
define weak i32 @halide_default_do_par_for(i8* %user_context, i32 (i8*, i32, i8*)* %f, i32 %min, i32 %size, i8* %closure) #0 {
entry:
  %add = add nsw i32 %size, %min
  %cmp11 = icmp sgt i32 %size, 0
  br i1 %cmp11, label %for.body, label %cleanup1

for.cond:                                         ; preds = %for.body
  %cmp = icmp slt i32 %inc, %add
  br i1 %cmp, label %for.body, label %cleanup1, !llvm.loop !16

for.body:                                         ; preds = %entry, %for.cond
  %x.012 = phi i32 [ %inc, %for.cond ], [ %min, %entry ]
  %call = tail call i32 @halide_do_task(i8* %user_context, i32 (i8*, i32, i8*)* %f, i32 %x.012, i8* %closure) #15
  %tobool.not = icmp eq i32 %call, 0
  %inc = add nsw i32 %x.012, 1
  br i1 %tobool.not, label %for.cond, label %cleanup1

cleanup1:                                         ; preds = %for.body, %for.cond, %entry
  %spec.select = phi i32 [ 0, %entry ], [ %call, %for.body ], [ 0, %for.cond ]
  ret i32 %spec.select
}

; Function Attrs: nounwind mustprogress
define weak i32 @halide_do_task(i8* %user_context, i32 (i8*, i32, i8*)* %f, i32 %idx, i8* %closure) local_unnamed_addr #0 {
entry:
  %0 = load i32 (i8*, i32 (i8*, i32, i8*)*, i32, i8*)*, i32 (i8*, i32 (i8*, i32, i8*)*, i32, i8*)** @_ZN6Halide7Runtime8Internal14custom_do_taskE, align 4, !tbaa !10
  %call = tail call i32 %0(i8* %user_context, i32 (i8*, i32, i8*)* %f, i32 %idx, i8* %closure) #14
  ret i32 %call
}

; Function Attrs: nounwind mustprogress
define weak i32 @halide_default_do_parallel_tasks(i8* %user_context, i32 %num_tasks, %struct.halide_parallel_task_t* %tasks, i8* %task_parent) #0 {
entry:
  tail call void @halide_error(i8* null, i8* getelementptr inbounds ([67 x i8], [67 x i8]* @.str.1, i32 0, i32 0)) #14
  ret i32 -1
}

declare void @halide_error(i8*, i8*) local_unnamed_addr #1

; Function Attrs: nounwind mustprogress
define weak i32 @halide_default_semaphore_init(%struct.halide_semaphore_t* %s, i32 %n) #0 {
entry:
  tail call void @halide_error(i8* null, i8* getelementptr inbounds ([64 x i8], [64 x i8]* @.str.1.2, i32 0, i32 0)) #14
  ret i32 0
}

; Function Attrs: nounwind mustprogress
define weak zeroext i1 @halide_default_semaphore_try_acquire(%struct.halide_semaphore_t* %s, i32 %n) #0 {
entry:
  tail call void @halide_error(i8* null, i8* getelementptr inbounds ([71 x i8], [71 x i8]* @.str.3, i32 0, i32 0)) #14
  ret i1 false
}

; Function Attrs: nounwind mustprogress
define weak i32 @halide_default_semaphore_release(%struct.halide_semaphore_t* %s, i32 %n) #0 {
entry:
  tail call void @halide_error(i8* null, i8* getelementptr inbounds ([67 x i8], [67 x i8]* @.str.2, i32 0, i32 0)) #14
  ret i32 0
}

; Function Attrs: nounwind mustprogress
define weak %struct.halide_thread* @halide_spawn_thread(void (i8*)* %f, i8* %closure) local_unnamed_addr #0 {
entry:
  tail call void @halide_error(i8* null, i8* getelementptr inbounds ([54 x i8], [54 x i8]* @.str.4, i32 0, i32 0)) #14
  ret %struct.halide_thread* null
}

; Function Attrs: nounwind mustprogress
define weak void @halide_join_thread(%struct.halide_thread* %thread_arg) local_unnamed_addr #0 {
entry:
  tail call void @halide_error(i8* null, i8* getelementptr inbounds ([53 x i8], [53 x i8]* @.str.5, i32 0, i32 0)) #14
  ret void
}

; Function Attrs: nounwind willreturn mustprogress
define weak void @halide_mutex_lock(%struct.halide_mutex* %mutex) local_unnamed_addr #2 {
entry:
  ret void
}

; Function Attrs: nounwind willreturn mustprogress
define weak void @halide_mutex_unlock(%struct.halide_mutex* %mutex) local_unnamed_addr #2 {
entry:
  ret void
}

; Function Attrs: nounwind willreturn mustprogress
define weak %struct.halide_mutex_array* @halide_mutex_array_create(i32 %sz) local_unnamed_addr #2 {
entry:
  ret %struct.halide_mutex_array* @_ZN6Halide7Runtime8Internal23halide_fake_mutex_arrayE
}

; Function Attrs: nounwind willreturn mustprogress
define weak void @halide_mutex_array_destroy(i8* %user_context, i8* %array) local_unnamed_addr #2 {
entry:
  ret void
}

; Function Attrs: nounwind willreturn mustprogress
define weak i32 @halide_mutex_array_lock(%struct.halide_mutex_array* %array, i32 %entry1) local_unnamed_addr #2 {
entry:
  ret i32 0
}

; Function Attrs: nounwind willreturn mustprogress
define weak i32 @halide_mutex_array_unlock(%struct.halide_mutex_array* %array, i32 %entry1) local_unnamed_addr #2 {
entry:
  ret i32 0
}

; Function Attrs: nounwind willreturn mustprogress
define weak void @halide_shutdown_thread_pool() local_unnamed_addr #2 {
entry:
  ret void
}

; Function Attrs: nounwind mustprogress
define weak i32 @halide_set_num_threads(i32 %n) local_unnamed_addr #0 {
entry:
  %cmp.not = icmp eq i32 %n, 1
  br i1 %cmp.not, label %if.end, label %if.then

if.then:                                          ; preds = %entry
  tail call void @halide_error(i8* null, i8* getelementptr inbounds ([69 x i8], [69 x i8]* @.str.6, i32 0, i32 0)) #14
  br label %if.end

if.end:                                           ; preds = %if.then, %entry
  ret i32 1
}

; Function Attrs: nounwind willreturn mustprogress
define weak i32 (i8*, i32 (i8*, i32, i8*)*, i32, i8*)* @halide_set_custom_do_task(i32 (i8*, i32 (i8*, i32, i8*)*, i32, i8*)* %f) local_unnamed_addr #2 {
entry:
  %0 = load i32 (i8*, i32 (i8*, i32, i8*)*, i32, i8*)*, i32 (i8*, i32 (i8*, i32, i8*)*, i32, i8*)** @_ZN6Halide7Runtime8Internal14custom_do_taskE, align 4, !tbaa !10
  store i32 (i8*, i32 (i8*, i32, i8*)*, i32, i8*)* %f, i32 (i8*, i32 (i8*, i32, i8*)*, i32, i8*)** @_ZN6Halide7Runtime8Internal14custom_do_taskE, align 4, !tbaa !10
  ret i32 (i8*, i32 (i8*, i32, i8*)*, i32, i8*)* %0
}

; Function Attrs: nounwind willreturn mustprogress
define weak i32 (i8*, i32 (i8*, i32, i8*)*, i32, i32, i8*)* @halide_set_custom_do_par_for(i32 (i8*, i32 (i8*, i32, i8*)*, i32, i32, i8*)* %f) local_unnamed_addr #2 {
entry:
  %0 = load i32 (i8*, i32 (i8*, i32, i8*)*, i32, i32, i8*)*, i32 (i8*, i32 (i8*, i32, i8*)*, i32, i32, i8*)** @_ZN6Halide7Runtime8Internal17custom_do_par_forE, align 4, !tbaa !10
  store i32 (i8*, i32 (i8*, i32, i8*)*, i32, i32, i8*)* %f, i32 (i8*, i32 (i8*, i32, i8*)*, i32, i32, i8*)** @_ZN6Halide7Runtime8Internal17custom_do_par_forE, align 4, !tbaa !10
  ret i32 (i8*, i32 (i8*, i32, i8*)*, i32, i32, i8*)* %0
}

; Function Attrs: nounwind mustprogress
define weak i32 @halide_do_par_for(i8* %user_context, i32 (i8*, i32, i8*)* %f, i32 %min, i32 %size, i8* %closure) local_unnamed_addr #0 {
entry:
  %0 = load i32 (i8*, i32 (i8*, i32, i8*)*, i32, i32, i8*)*, i32 (i8*, i32 (i8*, i32, i8*)*, i32, i32, i8*)** @_ZN6Halide7Runtime8Internal17custom_do_par_forE, align 4, !tbaa !10
  %call = tail call i32 %0(i8* %user_context, i32 (i8*, i32, i8*)* %f, i32 %min, i32 %size, i8* %closure) #14
  ret i32 %call
}

; Function Attrs: nounwind mustprogress
define weak i32 @halide_do_loop_task(i8* %user_context, i32 (i8*, i32, i32, i8*, i8*)* %f, i32 %min, i32 %size, i8* %closure, i8* %task_parent) local_unnamed_addr #0 {
entry:
  %0 = load i32 (i8*, i32 (i8*, i32, i32, i8*, i8*)*, i32, i32, i8*, i8*)*, i32 (i8*, i32 (i8*, i32, i32, i8*, i8*)*, i32, i32, i8*, i8*)** @_ZN6Halide7Runtime8Internal19custom_do_loop_taskE, align 4, !tbaa !10
  %call = tail call i32 %0(i8* %user_context, i32 (i8*, i32, i32, i8*, i8*)* %f, i32 %min, i32 %size, i8* %closure, i8* %task_parent) #14
  ret i32 %call
}

; Function Attrs: nounwind mustprogress
define weak i32 @halide_do_parallel_tasks(i8* %user_context, i32 %num_tasks, %struct.halide_parallel_task_t* %tasks, i8* %task_parent) local_unnamed_addr #0 {
entry:
  %0 = load i32 (i8*, i32, %struct.halide_parallel_task_t*, i8*)*, i32 (i8*, i32, %struct.halide_parallel_task_t*, i8*)** @_ZN6Halide7Runtime8Internal24custom_do_parallel_tasksE, align 4, !tbaa !10
  %call = tail call i32 %0(i8* %user_context, i32 %num_tasks, %struct.halide_parallel_task_t* %tasks, i8* %task_parent) #14
  ret i32 %call
}

; Function Attrs: nounwind mustprogress
define weak i32 @halide_semaphore_init(%struct.halide_semaphore_t* %sema, i32 %count) local_unnamed_addr #0 {
entry:
  %0 = load i32 (%struct.halide_semaphore_t*, i32)*, i32 (%struct.halide_semaphore_t*, i32)** @_ZN6Halide7Runtime8Internal21custom_semaphore_initE, align 4, !tbaa !10
  %call = tail call i32 %0(%struct.halide_semaphore_t* %sema, i32 %count) #14
  ret i32 %call
}

; Function Attrs: nounwind mustprogress
define weak i32 @halide_semaphore_release(%struct.halide_semaphore_t* %sema, i32 %count) local_unnamed_addr #0 {
entry:
  %0 = load i32 (%struct.halide_semaphore_t*, i32)*, i32 (%struct.halide_semaphore_t*, i32)** @_ZN6Halide7Runtime8Internal24custom_semaphore_releaseE, align 4, !tbaa !10
  %call = tail call i32 %0(%struct.halide_semaphore_t* %sema, i32 %count) #14
  ret i32 %call
}

; Function Attrs: nounwind mustprogress
define weak zeroext i1 @halide_semaphore_try_acquire(%struct.halide_semaphore_t* %sema, i32 %count) local_unnamed_addr #0 {
entry:
  %0 = load i1 (%struct.halide_semaphore_t*, i32)*, i1 (%struct.halide_semaphore_t*, i32)** @_ZN6Halide7Runtime8Internal28custom_semaphore_try_acquireE, align 4, !tbaa !10
  %call = tail call zeroext i1 %0(%struct.halide_semaphore_t* %sema, i32 %count) #14
  ret i1 %call
}

; Function Attrs: argmemonly nofree nosync nounwind willreturn
declare void @llvm.memcpy.p0i8.p0i8.i32(i8* noalias nocapture writeonly, i8* noalias nocapture readonly, i32, i1 immarg) #3

; Function Attrs: nounwind willreturn mustprogress
define weak void @halide_set_gpu_device(i32 %d) local_unnamed_addr #2 {
entry:
  store i32 %d, i32* @_ZN6Halide7Runtime8Internal17halide_gpu_deviceE, align 4, !tbaa !14
  store i8 1, i8* @_ZN6Halide7Runtime8Internal29halide_gpu_device_initializedE, align 1, !tbaa !18
  ret void
}

; Function Attrs: nounwind
define weak i32 @halide_get_gpu_device(i8* %user_context) local_unnamed_addr #4 {
entry:
  br label %while.cond.i

while.cond.i:                                     ; preds = %while.cond.i, %entry
  %0 = atomicrmw volatile xchg i8* @_ZN6Halide7Runtime8Internal22halide_gpu_device_lockE, i8 1 acquire
  %tobool.not.i = icmp eq i8 %0, 0
  br i1 %tobool.not.i, label %_ZN6Halide7Runtime8Internal14ScopedSpinLockC2EPVc.exit, label %while.cond.i, !llvm.loop !20

_ZN6Halide7Runtime8Internal14ScopedSpinLockC2EPVc.exit: ; preds = %while.cond.i
  %1 = load i8, i8* @_ZN6Halide7Runtime8Internal29halide_gpu_device_initializedE, align 1, !tbaa !18, !range !21
  %tobool.not = icmp eq i8 %1, 0
  br i1 %tobool.not, label %if.then, label %_ZN6Halide7Runtime8Internal14ScopedSpinLockC2EPVc.exit.if.end4_crit_edge

_ZN6Halide7Runtime8Internal14ScopedSpinLockC2EPVc.exit.if.end4_crit_edge: ; preds = %_ZN6Halide7Runtime8Internal14ScopedSpinLockC2EPVc.exit
  %.pre = load i32, i32* @_ZN6Halide7Runtime8Internal17halide_gpu_deviceE, align 4, !tbaa !14
  br label %if.end4

if.then:                                          ; preds = %_ZN6Halide7Runtime8Internal14ScopedSpinLockC2EPVc.exit
  %call = tail call i8* @getenv(i8* getelementptr inbounds ([14 x i8], [14 x i8]* @.str.7, i32 0, i32 0)) #14
  %tobool1.not = icmp eq i8* %call, null
  br i1 %tobool1.not, label %if.end, label %if.then2

if.then2:                                         ; preds = %if.then
  %call3 = tail call i32 @atoi(i8* nonnull %call) #14
  br label %if.end

if.end:                                           ; preds = %if.then2, %if.then
  %storemerge = phi i32 [ %call3, %if.then2 ], [ -1, %if.then ]
  store i32 %storemerge, i32* @_ZN6Halide7Runtime8Internal17halide_gpu_deviceE, align 4, !tbaa !14
  store i8 1, i8* @_ZN6Halide7Runtime8Internal29halide_gpu_device_initializedE, align 1, !tbaa !18
  br label %if.end4

if.end4:                                          ; preds = %if.end, %_ZN6Halide7Runtime8Internal14ScopedSpinLockC2EPVc.exit.if.end4_crit_edge
  %2 = phi i32 [ %.pre, %_ZN6Halide7Runtime8Internal14ScopedSpinLockC2EPVc.exit.if.end4_crit_edge ], [ %storemerge, %if.end ]
  store atomic volatile i8 0, i8* @_ZN6Halide7Runtime8Internal22halide_gpu_device_lockE release, align 1
  ret i32 %2
}

declare i8* @getenv(i8*) local_unnamed_addr #1

declare i32 @atoi(i8*) local_unnamed_addr #1

; Function Attrs: nounwind
define weak i8* @halide_string_to_string(i8* %dst, i8* %end, i8* %arg) local_unnamed_addr #4 {
entry:
  %cmp.not = icmp ult i8* %dst, %end
  br i1 %cmp.not, label %if.end, label %return

if.end:                                           ; preds = %entry
  %tobool.not = icmp eq i8* %arg, null
  %spec.select = select i1 %tobool.not, i8* getelementptr inbounds ([10 x i8], [10 x i8]* @.str.8, i32 0, i32 0), i8* %arg
  br label %if.end5

if.then4:                                         ; preds = %if.end8
  store i8 0, i8* %dst.addr.023, align 1, !tbaa !22
  br label %return

if.end5:                                          ; preds = %if.end8, %if.end
  %arg.addr.124 = phi i8* [ %spec.select, %if.end ], [ %incdec.ptr9, %if.end8 ]
  %dst.addr.023 = phi i8* [ %dst, %if.end ], [ %incdec.ptr, %if.end8 ]
  %0 = load i8, i8* %arg.addr.124, align 1, !tbaa !22
  store i8 %0, i8* %dst.addr.023, align 1, !tbaa !22
  %cmp6 = icmp eq i8 %0, 0
  br i1 %cmp6, label %return, label %if.end8

if.end8:                                          ; preds = %if.end5
  %incdec.ptr = getelementptr inbounds i8, i8* %dst.addr.023, i32 1
  %incdec.ptr9 = getelementptr inbounds i8, i8* %arg.addr.124, i32 1
  %cmp3 = icmp eq i8* %incdec.ptr, %end
  br i1 %cmp3, label %if.then4, label %if.end5

return:                                           ; preds = %if.end5, %if.then4, %entry
  %retval.0 = phi i8* [ %end, %if.then4 ], [ %dst, %entry ], [ %dst.addr.023, %if.end5 ]
  ret i8* %retval.0
}

; Function Attrs: nounwind mustprogress
define weak i8* @halide_uint64_to_string(i8* %dst, i8* %end, i64 %arg, i32 %min_digits) local_unnamed_addr #0 {
entry:
  %buf = alloca [32 x i8], align 1
  %0 = getelementptr inbounds [32 x i8], [32 x i8]* %buf, i32 0, i32 0
  call void @llvm.lifetime.start.p0i8(i64 32, i8* nonnull %0) #11
  %arrayidx = getelementptr inbounds [32 x i8], [32 x i8]* %buf, i32 0, i32 31
  store i8 0, i8* %arrayidx, align 1, !tbaa !22
  %add.ptr = getelementptr inbounds [32 x i8], [32 x i8]* %buf, i32 0, i32 30
  %cmp13 = icmp sgt i32 %min_digits, 0
  %tobool14 = icmp ne i64 %arg, 0
  %1 = or i1 %tobool14, %cmp13
  br i1 %1, label %entry.for.body_crit_edge, label %for.cond.cleanup

entry.for.body_crit_edge:                         ; preds = %entry
  %inc.1 = add nuw nsw i32 0, 1
  br label %for.body

for.cond.cleanup:                                 ; preds = %for.body, %entry
  %digits.0.lcssa = phi i8* [ %add.ptr, %entry ], [ %incdec.ptr, %for.body ]
  %incdec.ptr1 = getelementptr inbounds i8, i8* %digits.0.lcssa, i32 1
  %call = call i8* @halide_string_to_string(i8* %dst, i8* %end, i8* nonnull %incdec.ptr1) #15
  call void @llvm.lifetime.end.p0i8(i64 32, i8* nonnull %0) #11
  ret i8* %call

for.body:                                         ; preds = %entry.for.body_crit_edge, %for.body.for.body_crit_edge
  %arg.addr.017 = phi i64 [ %div, %for.body.for.body_crit_edge ], [ %arg, %entry.for.body_crit_edge ]
  %digits.016 = phi i8* [ %incdec.ptr, %for.body.for.body_crit_edge ], [ %add.ptr, %entry.for.body_crit_edge ]
  %inc.phi = phi i32 [ %inc.0, %for.body.for.body_crit_edge ], [ %inc.1, %entry.for.body_crit_edge ]
  %div = udiv i64 %arg.addr.017, 10
  %mul.neg = mul i64 %div, -10
  %sub = add i64 %mul.neg, %arg.addr.017
  %2 = trunc i64 %sub to i8
  %conv = add i8 %2, 48
  store i8 %conv, i8* %digits.016, align 1, !tbaa !22
  %incdec.ptr = getelementptr inbounds i8, i8* %digits.016, i32 -1
  %cmp = icmp slt i32 %inc.phi, %min_digits
  %3 = icmp ugt i64 %arg.addr.017, 9
  %4 = or i1 %3, %cmp
  br i1 %4, label %for.body.for.body_crit_edge, label %for.cond.cleanup, !llvm.loop !23

for.body.for.body_crit_edge:                      ; preds = %for.body
  %inc.0 = add nuw nsw i32 %inc.phi, 1
  br label %for.body
}

; Function Attrs: argmemonly nofree nosync nounwind willreturn
declare void @llvm.lifetime.start.p0i8(i64 immarg, i8* nocapture) #3

; Function Attrs: argmemonly nofree nosync nounwind willreturn
declare void @llvm.lifetime.end.p0i8(i64 immarg, i8* nocapture) #3

; Function Attrs: nounwind mustprogress
define weak i8* @halide_int64_to_string(i8* %dst, i8* %end, i64 %arg, i32 %min_digits) local_unnamed_addr #0 {
entry:
  %cmp = icmp slt i64 %arg, 0
  %cmp1 = icmp ult i8* %dst, %end
  %or.cond = and i1 %cmp1, %cmp
  br i1 %or.cond, label %if.then, label %if.end

if.then:                                          ; preds = %entry
  %incdec.ptr = getelementptr inbounds i8, i8* %dst, i32 1
  store i8 45, i8* %dst, align 1, !tbaa !22
  %sub = sub nsw i64 0, %arg
  br label %if.end

if.end:                                           ; preds = %if.then, %entry
  %arg.addr.0 = phi i64 [ %sub, %if.then ], [ %arg, %entry ]
  %dst.addr.0 = phi i8* [ %incdec.ptr, %if.then ], [ %dst, %entry ]
  %call = tail call i8* @halide_uint64_to_string(i8* %dst.addr.0, i8* %end, i64 %arg.addr.0, i32 %min_digits) #15
  ret i8* %call
}

; Function Attrs: nounwind mustprogress
define weak i8* @halide_double_to_string(i8* %dst, i8* %end, double %arg, i32 %scientific) local_unnamed_addr #0 {
entry:
  %arg.addr = alloca double, align 8
  %bits = alloca i64, align 8
  %buf = alloca [512 x i8], align 1
  store double %arg, double* %arg.addr, align 8, !tbaa !24
  %0 = bitcast i64* %bits to i8*
  call void @llvm.lifetime.start.p0i8(i64 8, i8* nonnull %0) #11
  store i64 0, i64* %bits, align 8, !tbaa !26
  %1 = bitcast double* %arg.addr to i8*
  %call = call i8* @memcpy(i8* nonnull %0, i8* nonnull %1, i32 8) #14
  %2 = load i64, i64* %bits, align 8, !tbaa !26
  %and = and i64 %2, 4503599627370495
  %shr = lshr i64 %2, 52
  %3 = trunc i64 %shr to i32
  %conv = and i32 %3, 2047
  %cmp = icmp eq i32 %conv, 2047
  br i1 %cmp, label %if.then, label %if.else15

if.then:                                          ; preds = %entry
  %tobool.not = icmp eq i64 %and, 0
  %tobool10.not = icmp sgt i64 %2, -1
  br i1 %tobool.not, label %if.else9, label %if.then4

if.then4:                                         ; preds = %if.then
  br i1 %tobool10.not, label %if.else, label %if.then6

if.then6:                                         ; preds = %if.then4
  %call7 = call i8* @halide_string_to_string(i8* %dst, i8* %end, i8* getelementptr inbounds ([5 x i8], [5 x i8]* @.str.1.9, i32 0, i32 0)) #15
  br label %cleanup147

if.else:                                          ; preds = %if.then4
  %call8 = call i8* @halide_string_to_string(i8* %dst, i8* %end, i8* getelementptr inbounds ([4 x i8], [4 x i8]* @.str.2.10, i32 0, i32 0)) #15
  br label %cleanup147

if.else9:                                         ; preds = %if.then
  br i1 %tobool10.not, label %if.else13, label %if.then11

if.then11:                                        ; preds = %if.else9
  %call12 = call i8* @halide_string_to_string(i8* %dst, i8* %end, i8* getelementptr inbounds ([5 x i8], [5 x i8]* @.str.3.11, i32 0, i32 0)) #15
  br label %cleanup147

if.else13:                                        ; preds = %if.else9
  %call14 = call i8* @halide_string_to_string(i8* %dst, i8* %end, i8* getelementptr inbounds ([4 x i8], [4 x i8]* @.str.4.12, i32 0, i32 0)) #15
  br label %cleanup147

if.else15:                                        ; preds = %entry
  %cmp16 = icmp eq i32 %conv, 0
  %cmp17 = icmp eq i64 %and, 0
  %or.cond = and i1 %cmp17, %cmp16
  br i1 %or.cond, label %if.then18, label %if.end32

if.then18:                                        ; preds = %if.else15
  %tobool19.not = icmp eq i32 %scientific, 0
  %tobool27.not = icmp sgt i64 %2, -1
  br i1 %tobool19.not, label %if.else26, label %if.then20

if.then20:                                        ; preds = %if.then18
  br i1 %tobool27.not, label %if.else24, label %if.then22

if.then22:                                        ; preds = %if.then20
  %call23 = call i8* @halide_string_to_string(i8* %dst, i8* %end, i8* getelementptr inbounds ([14 x i8], [14 x i8]* @.str.5.13, i32 0, i32 0)) #15
  br label %cleanup147

if.else24:                                        ; preds = %if.then20
  %call25 = call i8* @halide_string_to_string(i8* %dst, i8* %end, i8* getelementptr inbounds ([13 x i8], [13 x i8]* @.str.6.14, i32 0, i32 0)) #15
  br label %cleanup147

if.else26:                                        ; preds = %if.then18
  br i1 %tobool27.not, label %if.else30, label %if.then28

if.then28:                                        ; preds = %if.else26
  %call29 = call i8* @halide_string_to_string(i8* %dst, i8* %end, i8* getelementptr inbounds ([10 x i8], [10 x i8]* @.str.7.15, i32 0, i32 0)) #15
  br label %cleanup147

if.else30:                                        ; preds = %if.else26
  %call31 = call i8* @halide_string_to_string(i8* %dst, i8* %end, i8* getelementptr inbounds ([9 x i8], [9 x i8]* @.str.8.16, i32 0, i32 0)) #15
  br label %cleanup147

if.end32:                                         ; preds = %if.else15
  %tobool33.not = icmp sgt i64 %2, -1
  br i1 %tobool33.not, label %if.end36, label %if.then34

if.then34:                                        ; preds = %if.end32
  %call35 = call i8* @halide_string_to_string(i8* %dst, i8* %end, i8* getelementptr inbounds ([2 x i8], [2 x i8]* @.str.9, i32 0, i32 0)) #15
  %4 = load double, double* %arg.addr, align 8, !tbaa !24
  %fneg = fneg double %4
  store double %fneg, double* %arg.addr, align 8, !tbaa !24
  br label %if.end36

if.end36:                                         ; preds = %if.then34, %if.end32
  %dst.addr.0 = phi i8* [ %call35, %if.then34 ], [ %dst, %if.end32 ]
  %tobool37.not = icmp eq i32 %scientific, 0
  br i1 %tobool37.not, label %if.else61, label %while.condthread-pre-split

while.condthread-pre-split:                       ; preds = %if.end36
  %.pr = load double, double* %arg.addr, align 8, !tbaa !24
  %cmp39276 = fcmp olt double %.pr, 1.000000e+00
  br i1 %cmp39276, label %while.condthread-pre-split.while.body_crit_edge, label %while.cond40thread-pre-split

while.condthread-pre-split.while.body_crit_edge:  ; preds = %while.condthread-pre-split
  %dec.1 = add nsw i32 0, -1
  br label %while.body

while.body:                                       ; preds = %while.condthread-pre-split.while.body_crit_edge, %while.body.while.body_crit_edge
  %dec.phi = phi i32 [ %dec.0, %while.body.while.body_crit_edge ], [ %dec.1, %while.condthread-pre-split.while.body_crit_edge ]
  %5 = phi double [ %mul, %while.body.while.body_crit_edge ], [ %.pr, %while.condthread-pre-split.while.body_crit_edge ]
  %mul = fmul double %5, 1.000000e+01
  %cmp39 = fcmp olt double %mul, 1.000000e+00
  br i1 %cmp39, label %while.body.while.body_crit_edge, label %while.cond.while.cond40thread-pre-split_crit_edge, !llvm.loop !28

while.body.while.body_crit_edge:                  ; preds = %while.body
  %dec.0 = add nsw i32 %dec.phi, -1
  br label %while.body

while.cond.while.cond40thread-pre-split_crit_edge: ; preds = %while.body
  store double %mul, double* %arg.addr, align 8, !tbaa !24
  br label %while.cond40thread-pre-split

while.cond40thread-pre-split:                     ; preds = %while.cond.while.cond40thread-pre-split_crit_edge, %while.condthread-pre-split
  %.pr260 = phi double [ %mul, %while.cond.while.cond40thread-pre-split_crit_edge ], [ %.pr, %while.condthread-pre-split ]
  %exponent_base_10.0.lcssa = phi i32 [ %dec.phi, %while.cond.while.cond40thread-pre-split_crit_edge ], [ 0, %while.condthread-pre-split ]
  %cmp41272 = fcmp ult double %.pr260, 1.000000e+01
  br i1 %cmp41272, label %while.end43, label %while.body42

while.body42:                                     ; preds = %while.cond40thread-pre-split, %while.body42
  %exponent_base_10.1273 = phi i32 [ %inc, %while.body42 ], [ %exponent_base_10.0.lcssa, %while.cond40thread-pre-split ]
  %6 = phi double [ %div, %while.body42 ], [ %.pr260, %while.cond40thread-pre-split ]
  %div = fdiv double %6, 1.000000e+01
  %inc = add nsw i32 %exponent_base_10.1273, 1
  %cmp41 = fcmp ult double %div, 1.000000e+01
  br i1 %cmp41, label %while.cond40.while.end43_crit_edge, label %while.body42, !llvm.loop !29

while.cond40.while.end43_crit_edge:               ; preds = %while.body42
  store double %div, double* %arg.addr, align 8, !tbaa !24
  br label %while.end43

while.end43:                                      ; preds = %while.cond40.while.end43_crit_edge, %while.cond40thread-pre-split
  %.lcssa = phi double [ %div, %while.cond40.while.end43_crit_edge ], [ %.pr260, %while.cond40thread-pre-split ]
  %exponent_base_10.1.lcssa = phi i32 [ %inc, %while.cond40.while.end43_crit_edge ], [ %exponent_base_10.0.lcssa, %while.cond40thread-pre-split ]
  %mul44 = fmul double %.lcssa, 1.000000e+06
  %add = fadd double %mul44, 5.000000e-01
  %conv45 = fptoui double %add to i64
  %div46 = udiv i64 %conv45, 1000000
  %mul47.neg = mul i64 %div46, -1000000
  %sub48 = add i64 %mul47.neg, %conv45
  %call49 = call i8* @halide_int64_to_string(i8* %dst.addr.0, i8* %end, i64 %div46, i32 1) #15
  %call50 = call i8* @halide_string_to_string(i8* %call49, i8* %end, i8* getelementptr inbounds ([2 x i8], [2 x i8]* @.str.30.66, i32 0, i32 0)) #15
  %call51 = call i8* @halide_int64_to_string(i8* %call50, i8* %end, i64 %sub48, i32 6) #15
  %cmp52 = icmp sgt i32 %exponent_base_10.1.lcssa, -1
  br i1 %cmp52, label %if.then53, label %if.else55

if.then53:                                        ; preds = %while.end43
  %call54 = call i8* @halide_string_to_string(i8* %call51, i8* %end, i8* getelementptr inbounds ([3 x i8], [3 x i8]* @.str.11, i32 0, i32 0)) #15
  br label %if.end58

if.else55:                                        ; preds = %while.end43
  %call56 = call i8* @halide_string_to_string(i8* %call51, i8* %end, i8* getelementptr inbounds ([3 x i8], [3 x i8]* @.str.12, i32 0, i32 0)) #15
  %sub57 = sub nsw i32 0, %exponent_base_10.1.lcssa
  br label %if.end58

if.end58:                                         ; preds = %if.else55, %if.then53
  %exponent_base_10.2 = phi i32 [ %exponent_base_10.1.lcssa, %if.then53 ], [ %sub57, %if.else55 ]
  %dst.addr.1 = phi i8* [ %call54, %if.then53 ], [ %call56, %if.else55 ]
  %conv59261 = zext i32 %exponent_base_10.2 to i64
  %call60 = call i8* @halide_int64_to_string(i8* %dst.addr.1, i8* %end, i64 %conv59261, i32 2) #15
  br label %cleanup147

if.else61:                                        ; preds = %if.end36
  br i1 %cmp16, label %if.then63, label %if.end65

if.then63:                                        ; preds = %if.else61
  %call64 = call i8* @halide_double_to_string(i8* %dst.addr.0, i8* %end, double 0.000000e+00, i32 0) #15
  br label %cleanup147

if.end65:                                         ; preds = %if.else61
  %add67 = or i64 %and, 4503599627370496
  %sub69 = add nsw i32 %conv, -1075
  %cmp70 = icmp ult i32 %conv, 1075
  br i1 %cmp70, label %if.then71, label %if.end104

if.then71:                                        ; preds = %if.end65
  %cmp72 = icmp ult i32 %conv, 1023
  br i1 %cmp72, label %if.end83, label %if.else75

if.else75:                                        ; preds = %if.then71
  %sub76 = sub nuw nsw i32 1075, %conv
  %sh_prom = zext i32 %sub76 to i64
  %shr77 = lshr i64 %add67, %sh_prom
  %shl80 = shl i64 %shr77, %sh_prom
  %sub81 = sub i64 %add67, %shl80
  br label %if.end83

if.end83:                                         ; preds = %if.else75, %if.then71
  %integer_part.0 = phi i64 [ %shr77, %if.else75 ], [ 0, %if.then71 ]
  %f.0.in = phi i64 [ %sub81, %if.else75 ], [ %add67, %if.then71 ]
  %f.0 = uitofp i64 %f.0.in to double
  %conv84257 = zext i32 %sub69 to i64
  %shl85 = shl i64 %conv84257, 52
  %add87 = add i64 %shl85, 4696837146684686336
  %7 = bitcast i64 %add87 to double
  %mul89 = fmul double %7, %f.0
  %add90 = fadd double %mul89, 5.000000e-01
  %conv91 = fptoui double %add90 to i64
  %conv92 = uitofp i64 %conv91 to double
  %cmp93 = fcmp oeq double %add90, %conv92
  %and95 = and i64 %conv91, 1
  %tobool96.not = icmp ne i64 %and95, 0
  %not.or.cond258 = and i1 %cmp93, %tobool96.not
  %dec98 = sext i1 %not.or.cond258 to i64
  %fractional_part.0 = add i64 %dec98, %conv91
  %cmp100 = icmp eq i64 %fractional_part.0, 1000000
  %inc102 = zext i1 %cmp100 to i64
  %spec.select = add nuw i64 %integer_part.0, %inc102
  %spec.select259 = select i1 %cmp100, i64 0, i64 %fractional_part.0
  br label %if.end104

if.end104:                                        ; preds = %if.end83, %if.end65
  %integer_part.2 = phi i64 [ %spec.select, %if.end83 ], [ %add67, %if.end65 ]
  %integer_exponent.0 = phi i32 [ 0, %if.end83 ], [ %sub69, %if.end65 ]
  %fractional_part.2 = phi i64 [ %spec.select259, %if.end83 ], [ 0, %if.end65 ]
  %8 = getelementptr inbounds [512 x i8], [512 x i8]* %buf, i32 0, i32 0
  call void @llvm.lifetime.start.p0i8(i64 512, i8* nonnull %8) #11
  %add.ptr = getelementptr inbounds [512 x i8], [512 x i8]* %buf, i32 0, i32 512
  %add.ptr105 = getelementptr inbounds [512 x i8], [512 x i8]* %buf, i32 0, i32 480
  %call108 = call i8* @halide_int64_to_string(i8* nonnull %add.ptr105, i8* nonnull %add.ptr, i64 %integer_part.2, i32 1) #15
  %cmp109267 = icmp sgt i32 %integer_exponent.0, 0
  br i1 %cmp109267, label %for.cond111.preheader.preheader, label %for.cond.cleanup

for.cond111.preheader.preheader:                  ; preds = %if.end104
  %9 = add nsw i32 %integer_exponent.0, -1
  %xtraiter = and i32 %integer_exponent.0, 3
  %10 = icmp ult i32 %9, 3
  br i1 %10, label %for.cond.cleanup.loopexit.unr-lcssa, label %for.cond111.preheader.preheader.new

for.cond111.preheader.preheader.new:              ; preds = %for.cond111.preheader.preheader
  %unroll_iter = and i32 %integer_exponent.0, -4
  br label %for.cond111.preheader

for.cond111.preheader:                            ; preds = %if.end137.3, %for.cond111.preheader.preheader.new
  %int_part_ptr.0268 = phi i8* [ %add.ptr105, %for.cond111.preheader.preheader.new ], [ %int_part_ptr.1.3, %if.end137.3 ]
  %niter = phi i32 [ %unroll_iter, %for.cond111.preheader.preheader.new ], [ %niter.nsub.3, %if.end137.3 ]
  %add.ptr112 = getelementptr inbounds i8, i8* %int_part_ptr.0268, i32 -1
  %cmp113.not263 = icmp eq i8* %call108, %int_part_ptr.0268
  br i1 %cmp113.not263, label %if.end137, label %for.body115

for.cond.cleanup.loopexit.unr-lcssa:              ; preds = %if.end137.3, %for.cond111.preheader.preheader
  %int_part_ptr.1.lcssa.ph = phi i8* [ undef, %for.cond111.preheader.preheader ], [ %int_part_ptr.1.3, %if.end137.3 ]
  %int_part_ptr.0268.unr = phi i8* [ %add.ptr105, %for.cond111.preheader.preheader ], [ %int_part_ptr.1.3, %if.end137.3 ]
  %lcmp.mod.not = icmp eq i32 %xtraiter, 0
  br i1 %lcmp.mod.not, label %for.cond.cleanup, label %for.cond111.preheader.epil

for.cond111.preheader.epil:                       ; preds = %for.cond.cleanup.loopexit.unr-lcssa, %if.end137.epil
  %int_part_ptr.0268.epil = phi i8* [ %int_part_ptr.1.epil, %if.end137.epil ], [ %int_part_ptr.0268.unr, %for.cond.cleanup.loopexit.unr-lcssa ]
  %epil.iter = phi i32 [ %epil.iter.sub, %if.end137.epil ], [ %xtraiter, %for.cond.cleanup.loopexit.unr-lcssa ]
  %add.ptr112.epil = getelementptr inbounds i8, i8* %int_part_ptr.0268.epil, i32 -1
  %cmp113.not263.epil = icmp eq i8* %call108, %int_part_ptr.0268.epil
  br i1 %cmp113.not263.epil, label %if.end137.epil, label %for.body115.epil

for.body115.epil:                                 ; preds = %for.cond111.preheader.epil, %for.body115.epil
  %p.0265.pn.epil = phi i8* [ %p.0265.epil, %for.body115.epil ], [ %call108, %for.cond111.preheader.epil ]
  %carry.0264.epil = phi i8 [ %carry.1.epil, %for.body115.epil ], [ 0, %for.cond111.preheader.epil ]
  %p.0265.epil = getelementptr inbounds i8, i8* %p.0265.pn.epil, i32 -1
  %11 = load i8, i8* %p.0265.epil, align 1, !tbaa !22
  %sub117.epil = shl i8 %11, 1
  %mul120.epil = add i8 %sub117.epil, -96
  %add121.epil = or i8 %mul120.epil, %carry.0264.epil
  %cmp124.epil = icmp sgt i8 %add121.epil, 9
  %sub127.epil = add i8 %add121.epil, -10
  %carry.1.epil = zext i1 %cmp124.epil to i8
  %new_digit.0.epil = select i1 %cmp124.epil, i8 %sub127.epil, i8 %add121.epil
  %add132.epil = add i8 %new_digit.0.epil, 48
  store i8 %add132.epil, i8* %p.0265.epil, align 1, !tbaa !22
  %cmp113.not.epil = icmp eq i8* %p.0265.epil, %int_part_ptr.0268.epil
  br i1 %cmp113.not.epil, label %for.cond.cleanup114.epil, label %for.body115.epil, !llvm.loop !30

for.cond.cleanup114.epil:                         ; preds = %for.body115.epil
  br i1 %cmp124.epil, label %if.then135.epil, label %if.end137.epil

if.then135.epil:                                  ; preds = %for.cond.cleanup114.epil
  store i8 49, i8* %add.ptr112.epil, align 1, !tbaa !22
  br label %if.end137.epil

if.end137.epil:                                   ; preds = %if.then135.epil, %for.cond.cleanup114.epil, %for.cond111.preheader.epil
  %int_part_ptr.1.epil = phi i8* [ %add.ptr112.epil, %if.then135.epil ], [ %int_part_ptr.0268.epil, %for.cond.cleanup114.epil ], [ %call108, %for.cond111.preheader.epil ]
  %epil.iter.sub = add i32 %epil.iter, -1
  %epil.iter.cmp.not = icmp eq i32 %epil.iter.sub, 0
  br i1 %epil.iter.cmp.not, label %for.cond.cleanup, label %for.cond111.preheader.epil, !llvm.loop !31

for.cond.cleanup:                                 ; preds = %for.cond.cleanup.loopexit.unr-lcssa, %if.end137.epil, %if.end104
  %int_part_ptr.0.lcssa = phi i8* [ %add.ptr105, %if.end104 ], [ %int_part_ptr.1.lcssa.ph, %for.cond.cleanup.loopexit.unr-lcssa ], [ %int_part_ptr.1.epil, %if.end137.epil ]
  %call141 = call i8* @halide_string_to_string(i8* %dst.addr.0, i8* %end, i8* %int_part_ptr.0.lcssa) #15
  %call142 = call i8* @halide_string_to_string(i8* %call141, i8* %end, i8* getelementptr inbounds ([2 x i8], [2 x i8]* @.str.30.66, i32 0, i32 0)) #15
  %call143 = call i8* @halide_int64_to_string(i8* %call142, i8* %end, i64 %fractional_part.2, i32 6) #15
  call void @llvm.lifetime.end.p0i8(i64 512, i8* nonnull %8) #11
  br label %cleanup147

for.cond.cleanup114:                              ; preds = %for.body115
  br i1 %cmp124, label %if.then135, label %if.end137

for.body115:                                      ; preds = %for.cond111.preheader, %for.body115
  %p.0265.pn = phi i8* [ %p.0265, %for.body115 ], [ %call108, %for.cond111.preheader ]
  %carry.0264 = phi i8 [ %carry.1, %for.body115 ], [ 0, %for.cond111.preheader ]
  %p.0265 = getelementptr inbounds i8, i8* %p.0265.pn, i32 -1
  %12 = load i8, i8* %p.0265, align 1, !tbaa !22
  %sub117 = shl i8 %12, 1
  %mul120 = add i8 %sub117, -96
  %add121 = or i8 %mul120, %carry.0264
  %cmp124 = icmp sgt i8 %add121, 9
  %sub127 = add i8 %add121, -10
  %carry.1 = zext i1 %cmp124 to i8
  %new_digit.0 = select i1 %cmp124, i8 %sub127, i8 %add121
  %add132 = add i8 %new_digit.0, 48
  store i8 %add132, i8* %p.0265, align 1, !tbaa !22
  %cmp113.not = icmp eq i8* %p.0265, %int_part_ptr.0268
  br i1 %cmp113.not, label %for.cond.cleanup114, label %for.body115, !llvm.loop !30

if.then135:                                       ; preds = %for.cond.cleanup114
  store i8 49, i8* %add.ptr112, align 1, !tbaa !22
  br label %if.end137

if.end137:                                        ; preds = %if.then135, %for.cond.cleanup114, %for.cond111.preheader
  %int_part_ptr.1 = phi i8* [ %add.ptr112, %if.then135 ], [ %int_part_ptr.0268, %for.cond.cleanup114 ], [ %call108, %for.cond111.preheader ]
  %add.ptr112.1 = getelementptr inbounds i8, i8* %int_part_ptr.1, i32 -1
  %cmp113.not263.1 = icmp eq i8* %call108, %int_part_ptr.1
  br i1 %cmp113.not263.1, label %if.end137.1, label %for.body115.1

cleanup147:                                       ; preds = %for.cond.cleanup, %if.then63, %if.end58, %if.else30, %if.then28, %if.else24, %if.then22, %if.else13, %if.then11, %if.else, %if.then6
  %retval.1 = phi i8* [ %call7, %if.then6 ], [ %call8, %if.else ], [ %call12, %if.then11 ], [ %call14, %if.else13 ], [ %call23, %if.then22 ], [ %call25, %if.else24 ], [ %call29, %if.then28 ], [ %call31, %if.else30 ], [ %call64, %if.then63 ], [ %call60, %if.end58 ], [ %call143, %for.cond.cleanup ]
  call void @llvm.lifetime.end.p0i8(i64 8, i8* nonnull %0) #11
  ret i8* %retval.1

for.body115.1:                                    ; preds = %if.end137, %for.body115.1
  %p.0265.pn.1 = phi i8* [ %p.0265.1, %for.body115.1 ], [ %call108, %if.end137 ]
  %carry.0264.1 = phi i8 [ %carry.1.1, %for.body115.1 ], [ 0, %if.end137 ]
  %p.0265.1 = getelementptr inbounds i8, i8* %p.0265.pn.1, i32 -1
  %13 = load i8, i8* %p.0265.1, align 1, !tbaa !22
  %sub117.1 = shl i8 %13, 1
  %mul120.1 = add i8 %sub117.1, -96
  %add121.1 = or i8 %mul120.1, %carry.0264.1
  %cmp124.1 = icmp sgt i8 %add121.1, 9
  %sub127.1 = add i8 %add121.1, -10
  %carry.1.1 = zext i1 %cmp124.1 to i8
  %new_digit.0.1 = select i1 %cmp124.1, i8 %sub127.1, i8 %add121.1
  %add132.1 = add i8 %new_digit.0.1, 48
  store i8 %add132.1, i8* %p.0265.1, align 1, !tbaa !22
  %cmp113.not.1 = icmp eq i8* %p.0265.1, %int_part_ptr.1
  br i1 %cmp113.not.1, label %for.cond.cleanup114.1, label %for.body115.1, !llvm.loop !30

for.cond.cleanup114.1:                            ; preds = %for.body115.1
  br i1 %cmp124.1, label %if.then135.1, label %if.end137.1

if.then135.1:                                     ; preds = %for.cond.cleanup114.1
  store i8 49, i8* %add.ptr112.1, align 1, !tbaa !22
  br label %if.end137.1

if.end137.1:                                      ; preds = %if.then135.1, %for.cond.cleanup114.1, %if.end137
  %int_part_ptr.1.1 = phi i8* [ %add.ptr112.1, %if.then135.1 ], [ %int_part_ptr.1, %for.cond.cleanup114.1 ], [ %call108, %if.end137 ]
  %add.ptr112.2 = getelementptr inbounds i8, i8* %int_part_ptr.1.1, i32 -1
  %cmp113.not263.2 = icmp eq i8* %call108, %int_part_ptr.1.1
  br i1 %cmp113.not263.2, label %if.end137.2, label %for.body115.2

for.body115.2:                                    ; preds = %if.end137.1, %for.body115.2
  %p.0265.pn.2 = phi i8* [ %p.0265.2, %for.body115.2 ], [ %call108, %if.end137.1 ]
  %carry.0264.2 = phi i8 [ %carry.1.2, %for.body115.2 ], [ 0, %if.end137.1 ]
  %p.0265.2 = getelementptr inbounds i8, i8* %p.0265.pn.2, i32 -1
  %14 = load i8, i8* %p.0265.2, align 1, !tbaa !22
  %sub117.2 = shl i8 %14, 1
  %mul120.2 = add i8 %sub117.2, -96
  %add121.2 = or i8 %mul120.2, %carry.0264.2
  %cmp124.2 = icmp sgt i8 %add121.2, 9
  %sub127.2 = add i8 %add121.2, -10
  %carry.1.2 = zext i1 %cmp124.2 to i8
  %new_digit.0.2 = select i1 %cmp124.2, i8 %sub127.2, i8 %add121.2
  %add132.2 = add i8 %new_digit.0.2, 48
  store i8 %add132.2, i8* %p.0265.2, align 1, !tbaa !22
  %cmp113.not.2 = icmp eq i8* %p.0265.2, %int_part_ptr.1.1
  br i1 %cmp113.not.2, label %for.cond.cleanup114.2, label %for.body115.2, !llvm.loop !30

for.cond.cleanup114.2:                            ; preds = %for.body115.2
  br i1 %cmp124.2, label %if.then135.2, label %if.end137.2

if.then135.2:                                     ; preds = %for.cond.cleanup114.2
  store i8 49, i8* %add.ptr112.2, align 1, !tbaa !22
  br label %if.end137.2

if.end137.2:                                      ; preds = %if.then135.2, %for.cond.cleanup114.2, %if.end137.1
  %int_part_ptr.1.2 = phi i8* [ %add.ptr112.2, %if.then135.2 ], [ %int_part_ptr.1.1, %for.cond.cleanup114.2 ], [ %call108, %if.end137.1 ]
  %add.ptr112.3 = getelementptr inbounds i8, i8* %int_part_ptr.1.2, i32 -1
  %cmp113.not263.3 = icmp eq i8* %call108, %int_part_ptr.1.2
  br i1 %cmp113.not263.3, label %if.end137.3, label %for.body115.3

for.body115.3:                                    ; preds = %if.end137.2, %for.body115.3
  %p.0265.pn.3 = phi i8* [ %p.0265.3, %for.body115.3 ], [ %call108, %if.end137.2 ]
  %carry.0264.3 = phi i8 [ %carry.1.3, %for.body115.3 ], [ 0, %if.end137.2 ]
  %p.0265.3 = getelementptr inbounds i8, i8* %p.0265.pn.3, i32 -1
  %15 = load i8, i8* %p.0265.3, align 1, !tbaa !22
  %sub117.3 = shl i8 %15, 1
  %mul120.3 = add i8 %sub117.3, -96
  %add121.3 = or i8 %mul120.3, %carry.0264.3
  %cmp124.3 = icmp sgt i8 %add121.3, 9
  %sub127.3 = add i8 %add121.3, -10
  %carry.1.3 = zext i1 %cmp124.3 to i8
  %new_digit.0.3 = select i1 %cmp124.3, i8 %sub127.3, i8 %add121.3
  %add132.3 = add i8 %new_digit.0.3, 48
  store i8 %add132.3, i8* %p.0265.3, align 1, !tbaa !22
  %cmp113.not.3 = icmp eq i8* %p.0265.3, %int_part_ptr.1.2
  br i1 %cmp113.not.3, label %for.cond.cleanup114.3, label %for.body115.3, !llvm.loop !30

for.cond.cleanup114.3:                            ; preds = %for.body115.3
  br i1 %cmp124.3, label %if.then135.3, label %if.end137.3

if.then135.3:                                     ; preds = %for.cond.cleanup114.3
  store i8 49, i8* %add.ptr112.3, align 1, !tbaa !22
  br label %if.end137.3

if.end137.3:                                      ; preds = %if.then135.3, %for.cond.cleanup114.3, %if.end137.2
  %int_part_ptr.1.3 = phi i8* [ %add.ptr112.3, %if.then135.3 ], [ %int_part_ptr.1.2, %for.cond.cleanup114.3 ], [ %call108, %if.end137.2 ]
  %niter.nsub.3 = add i32 %niter, -4
  %niter.ncmp.3 = icmp eq i32 %niter.nsub.3, 0
  br i1 %niter.ncmp.3, label %for.cond.cleanup.loopexit.unr-lcssa, label %for.cond111.preheader, !llvm.loop !33
}

declare i8* @memcpy(i8*, i8*, i32) local_unnamed_addr #1

; Function Attrs: nounwind mustprogress
define weak i8* @halide_pointer_to_string(i8* %dst, i8* %end, i8* %arg) local_unnamed_addr #0 {
entry:
  %buf = alloca [20 x i8], align 1
  %0 = getelementptr inbounds [20 x i8], [20 x i8]* %buf, i32 0, i32 0
  call void @llvm.lifetime.start.p0i8(i64 20, i8* nonnull %0) #11
  call void @llvm.memset.p0i8.i32(i8* nonnull align 1 dereferenceable(20) %0, i8 0, i32 20, i1 false)
  %add.ptr = getelementptr inbounds [20 x i8], [20 x i8]* %buf, i32 0, i32 18
  %1 = ptrtoint i8* %arg to i32
  %idxprom = and i32 %1, 15
  %arrayidx = getelementptr inbounds [17 x i8], [17 x i8]* @.str.13, i32 0, i32 %idxprom
  %2 = load i8, i8* %arrayidx, align 1, !tbaa !22
  %incdec.ptr = getelementptr inbounds [20 x i8], [20 x i8]* %buf, i32 0, i32 17
  store i8 %2, i8* %add.ptr, align 1, !tbaa !22
  %3 = lshr i32 %1, 4
  %tobool.not = icmp eq i32 %3, 0
  br i1 %tobool.not, label %cleanup, label %for.cond

for.cond:                                         ; preds = %entry
  %idxprom.1 = and i32 %3, 15
  %arrayidx.1 = getelementptr inbounds [17 x i8], [17 x i8]* @.str.13, i32 0, i32 %idxprom.1
  %4 = load i8, i8* %arrayidx.1, align 1, !tbaa !22
  %incdec.ptr.1 = getelementptr inbounds [20 x i8], [20 x i8]* %buf, i32 0, i32 16
  store i8 %4, i8* %incdec.ptr, align 1, !tbaa !22
  %5 = lshr i32 %1, 8
  %tobool.not.1 = icmp eq i32 %5, 0
  br i1 %tobool.not.1, label %cleanup, label %for.cond.1

cleanup:                                          ; preds = %for.cond.6, %for.cond.5, %for.cond.4, %for.cond.3, %for.cond.2, %for.cond.1, %for.cond, %entry
  %buf_ptr.016.lcssa = phi i8* [ %add.ptr, %entry ], [ %incdec.ptr, %for.cond ], [ %incdec.ptr.1, %for.cond.1 ], [ %incdec.ptr.2, %for.cond.2 ], [ %incdec.ptr.3, %for.cond.3 ], [ %incdec.ptr.4, %for.cond.4 ], [ %incdec.ptr.5, %for.cond.5 ], [ %incdec.ptr.6, %for.cond.6 ]
  %incdec.ptr.lcssa = phi i8* [ %incdec.ptr, %entry ], [ %incdec.ptr.1, %for.cond ], [ %incdec.ptr.2, %for.cond.1 ], [ %incdec.ptr.3, %for.cond.2 ], [ %incdec.ptr.4, %for.cond.3 ], [ %incdec.ptr.5, %for.cond.4 ], [ %incdec.ptr.6, %for.cond.5 ], [ %incdec.ptr.7, %for.cond.6 ]
  %incdec.ptr1 = getelementptr inbounds i8, i8* %buf_ptr.016.lcssa, i32 -2
  store i8 120, i8* %incdec.ptr.lcssa, align 1, !tbaa !22
  store i8 48, i8* %incdec.ptr1, align 1, !tbaa !22
  %call = call i8* @halide_string_to_string(i8* %dst, i8* %end, i8* nonnull %incdec.ptr1) #15
  call void @llvm.lifetime.end.p0i8(i64 20, i8* nonnull %0) #11
  ret i8* %call

for.cond.1:                                       ; preds = %for.cond
  %idxprom.2 = and i32 %5, 15
  %arrayidx.2 = getelementptr inbounds [17 x i8], [17 x i8]* @.str.13, i32 0, i32 %idxprom.2
  %6 = load i8, i8* %arrayidx.2, align 1, !tbaa !22
  %incdec.ptr.2 = getelementptr inbounds [20 x i8], [20 x i8]* %buf, i32 0, i32 15
  store i8 %6, i8* %incdec.ptr.1, align 1, !tbaa !22
  %7 = lshr i32 %1, 12
  %tobool.not.2 = icmp eq i32 %7, 0
  br i1 %tobool.not.2, label %cleanup, label %for.cond.2

for.cond.2:                                       ; preds = %for.cond.1
  %idxprom.3 = and i32 %7, 15
  %arrayidx.3 = getelementptr inbounds [17 x i8], [17 x i8]* @.str.13, i32 0, i32 %idxprom.3
  %8 = load i8, i8* %arrayidx.3, align 1, !tbaa !22
  %incdec.ptr.3 = getelementptr inbounds [20 x i8], [20 x i8]* %buf, i32 0, i32 14
  store i8 %8, i8* %incdec.ptr.2, align 1, !tbaa !22
  %9 = lshr i32 %1, 16
  %tobool.not.3 = icmp eq i32 %9, 0
  br i1 %tobool.not.3, label %cleanup, label %for.cond.3

for.cond.3:                                       ; preds = %for.cond.2
  %idxprom.4 = and i32 %9, 15
  %arrayidx.4 = getelementptr inbounds [17 x i8], [17 x i8]* @.str.13, i32 0, i32 %idxprom.4
  %10 = load i8, i8* %arrayidx.4, align 1, !tbaa !22
  %incdec.ptr.4 = getelementptr inbounds [20 x i8], [20 x i8]* %buf, i32 0, i32 13
  store i8 %10, i8* %incdec.ptr.3, align 1, !tbaa !22
  %11 = lshr i32 %1, 20
  %tobool.not.4 = icmp eq i32 %11, 0
  br i1 %tobool.not.4, label %cleanup, label %for.cond.4

for.cond.4:                                       ; preds = %for.cond.3
  %idxprom.5 = and i32 %11, 15
  %arrayidx.5 = getelementptr inbounds [17 x i8], [17 x i8]* @.str.13, i32 0, i32 %idxprom.5
  %12 = load i8, i8* %arrayidx.5, align 1, !tbaa !22
  %incdec.ptr.5 = getelementptr inbounds [20 x i8], [20 x i8]* %buf, i32 0, i32 12
  store i8 %12, i8* %incdec.ptr.4, align 1, !tbaa !22
  %13 = lshr i32 %1, 24
  %tobool.not.5 = icmp eq i32 %13, 0
  br i1 %tobool.not.5, label %cleanup, label %for.cond.5

for.cond.5:                                       ; preds = %for.cond.4
  %idxprom.6 = and i32 %13, 15
  %arrayidx.6 = getelementptr inbounds [17 x i8], [17 x i8]* @.str.13, i32 0, i32 %idxprom.6
  %14 = load i8, i8* %arrayidx.6, align 1, !tbaa !22
  %incdec.ptr.6 = getelementptr inbounds [20 x i8], [20 x i8]* %buf, i32 0, i32 11
  store i8 %14, i8* %incdec.ptr.5, align 1, !tbaa !22
  %15 = lshr i32 %1, 28
  %tobool.not.6 = icmp eq i32 %15, 0
  br i1 %tobool.not.6, label %cleanup, label %for.cond.6

for.cond.6:                                       ; preds = %for.cond.5
  %arrayidx.7 = getelementptr inbounds [17 x i8], [17 x i8]* @.str.13, i32 0, i32 %15
  %16 = load i8, i8* %arrayidx.7, align 1, !tbaa !22
  %incdec.ptr.7 = getelementptr inbounds [20 x i8], [20 x i8]* %buf, i32 0, i32 10
  store i8 %16, i8* %incdec.ptr.6, align 1, !tbaa !22
  br label %cleanup
}

; Function Attrs: argmemonly nofree nosync nounwind willreturn writeonly
declare void @llvm.memset.p0i8.i32(i8* nocapture writeonly, i8, i32, i1 immarg) #5

; Function Attrs: nounwind mustprogress
define weak i8* @halide_type_to_string(i8* %dst, i8* %end, %struct.halide_type_t* %t) local_unnamed_addr #0 {
entry:
  %code = getelementptr inbounds %struct.halide_type_t, %struct.halide_type_t* %t, i32 0, i32 0
  %0 = load i8, i8* %code, align 2, !tbaa !34
  %1 = icmp ult i8 %0, 4
  br i1 %1, label %switch.lookup, label %sw.epilog

switch.lookup:                                    ; preds = %entry
  %2 = sext i8 %0 to i32
  %switch.gep = getelementptr inbounds [4 x i8*], [4 x i8*]* @switch.table.halide_type_to_string, i32 0, i32 %2
  %switch.load = load i8*, i8** %switch.gep, align 4
  br label %sw.epilog

sw.epilog:                                        ; preds = %entry, %switch.lookup
  %code_name.0 = phi i8* [ %switch.load, %switch.lookup ], [ getelementptr inbounds ([14 x i8], [14 x i8]* @.str.18, i32 0, i32 0), %entry ]
  %call = tail call i8* @halide_string_to_string(i8* %dst, i8* %end, i8* nonnull %code_name.0) #15
  %bits = getelementptr inbounds %struct.halide_type_t, %struct.halide_type_t* %t, i32 0, i32 1
  %3 = load i8, i8* %bits, align 1, !tbaa !38
  %conv4 = zext i8 %3 to i64
  %call5 = tail call i8* @halide_uint64_to_string(i8* %call, i8* %end, i64 %conv4, i32 1) #15
  %lanes = getelementptr inbounds %struct.halide_type_t, %struct.halide_type_t* %t, i32 0, i32 2
  %4 = load i16, i16* %lanes, align 2, !tbaa !39
  %cmp.not = icmp eq i16 %4, 1
  br i1 %cmp.not, label %if.end, label %if.then

if.then:                                          ; preds = %sw.epilog
  %call7 = tail call i8* @halide_string_to_string(i8* %call5, i8* %end, i8* getelementptr inbounds ([2 x i8], [2 x i8]* @.str.19, i32 0, i32 0)) #15
  %5 = load i16, i16* %lanes, align 2, !tbaa !39
  %conv9 = zext i16 %5 to i64
  %call10 = tail call i8* @halide_uint64_to_string(i8* %call7, i8* %end, i64 %conv9, i32 1) #15
  br label %if.end

if.end:                                           ; preds = %if.then, %sw.epilog
  %dst.addr.0 = phi i8* [ %call10, %if.then ], [ %call5, %sw.epilog ]
  ret i8* %dst.addr.0
}

; Function Attrs: nounwind mustprogress
define weak i8* @halide_buffer_to_string(i8* %dst, i8* %end, %struct.halide_buffer_t* %buf) local_unnamed_addr #0 {
entry:
  %cmp = icmp eq %struct.halide_buffer_t* %buf, null
  br i1 %cmp, label %if.then, label %if.end

if.then:                                          ; preds = %entry
  %call = tail call i8* @halide_string_to_string(i8* %dst, i8* %end, i8* getelementptr inbounds ([8 x i8], [8 x i8]* @.str.20, i32 0, i32 0)) #15
  br label %return

if.end:                                           ; preds = %entry
  %call1 = tail call i8* @halide_string_to_string(i8* %dst, i8* %end, i8* getelementptr inbounds ([8 x i8], [8 x i8]* @.str.21, i32 0, i32 0)) #15
  %device = getelementptr inbounds %struct.halide_buffer_t, %struct.halide_buffer_t* %buf, i32 0, i32 0
  %0 = load i64, i64* %device, align 8, !tbaa !40
  %call2 = tail call i8* @halide_uint64_to_string(i8* %call1, i8* %end, i64 %0, i32 1) #15
  %call3 = tail call i8* @halide_string_to_string(i8* %call2, i8* %end, i8* getelementptr inbounds ([3 x i8], [3 x i8]* @.str.55, i32 0, i32 0)) #15
  %device_interface = getelementptr inbounds %struct.halide_buffer_t, %struct.halide_buffer_t* %buf, i32 0, i32 1
  %1 = bitcast %struct.halide_device_interface_t** %device_interface to i8**
  %2 = load i8*, i8** %1, align 8, !tbaa !42
  %call4 = tail call i8* @halide_pointer_to_string(i8* %call3, i8* %end, i8* %2) #15
  %call5 = tail call i8* @halide_string_to_string(i8* %call4, i8* %end, i8* getelementptr inbounds ([3 x i8], [3 x i8]* @.str.55, i32 0, i32 0)) #15
  %host = getelementptr inbounds %struct.halide_buffer_t, %struct.halide_buffer_t* %buf, i32 0, i32 2
  %3 = load i8*, i8** %host, align 4, !tbaa !43
  %call6 = tail call i8* @halide_pointer_to_string(i8* %call5, i8* %end, i8* %3) #15
  %call7 = tail call i8* @halide_string_to_string(i8* %call6, i8* %end, i8* getelementptr inbounds ([3 x i8], [3 x i8]* @.str.55, i32 0, i32 0)) #15
  %flags = getelementptr inbounds %struct.halide_buffer_t, %struct.halide_buffer_t* %buf, i32 0, i32 3
  %4 = load i64, i64* %flags, align 8, !tbaa !44
  %call8 = tail call i8* @halide_uint64_to_string(i8* %call7, i8* %end, i64 %4, i32 1) #15
  %call9 = tail call i8* @halide_string_to_string(i8* %call8, i8* %end, i8* getelementptr inbounds ([3 x i8], [3 x i8]* @.str.55, i32 0, i32 0)) #15
  %type = getelementptr inbounds %struct.halide_buffer_t, %struct.halide_buffer_t* %buf, i32 0, i32 4
  %call10 = tail call i8* @halide_type_to_string(i8* %call9, i8* %end, %struct.halide_type_t* nonnull %type) #15
  %dimensions = getelementptr inbounds %struct.halide_buffer_t, %struct.halide_buffer_t* %buf, i32 0, i32 5
  %5 = load i32, i32* %dimensions, align 4, !tbaa !45
  %cmp1177 = icmp sgt i32 %5, 0
  br i1 %cmp1177, label %for.body.lr.ph, label %for.cond.cleanup

for.body.lr.ph:                                   ; preds = %if.end
  %dim = getelementptr inbounds %struct.halide_buffer_t, %struct.halide_buffer_t* %buf, i32 0, i32 6
  br label %for.body

for.cond.cleanup:                                 ; preds = %for.body, %if.end
  %dst.addr.0.lcssa = phi i8* [ %call10, %if.end ], [ %call24, %for.body ]
  %call25 = tail call i8* @halide_string_to_string(i8* %dst.addr.0.lcssa, i8* %end, i8* getelementptr inbounds ([2 x i8], [2 x i8]* @.str.8.44, i32 0, i32 0)) #15
  br label %return

for.body:                                         ; preds = %for.body, %for.body.lr.ph
  %i.079 = phi i32 [ 0, %for.body.lr.ph ], [ %inc, %for.body ]
  %dst.addr.078 = phi i8* [ %call10, %for.body.lr.ph ], [ %call24, %for.body ]
  %call12 = tail call i8* @halide_string_to_string(i8* %dst.addr.078, i8* %end, i8* getelementptr inbounds ([4 x i8], [4 x i8]* @.str.23, i32 0, i32 0)) #15
  %6 = load %struct.halide_dimension_t*, %struct.halide_dimension_t** %dim, align 8, !tbaa !46
  %min = getelementptr inbounds %struct.halide_dimension_t, %struct.halide_dimension_t* %6, i32 %i.079, i32 0
  %7 = load i32, i32* %min, align 4, !tbaa !47
  %conv = sext i32 %7 to i64
  %call13 = tail call i8* @halide_int64_to_string(i8* %call12, i8* %end, i64 %conv, i32 1) #15
  %call14 = tail call i8* @halide_string_to_string(i8* %call13, i8* %end, i8* getelementptr inbounds ([3 x i8], [3 x i8]* @.str.55, i32 0, i32 0)) #15
  %8 = load %struct.halide_dimension_t*, %struct.halide_dimension_t** %dim, align 8, !tbaa !46
  %extent = getelementptr inbounds %struct.halide_dimension_t, %struct.halide_dimension_t* %8, i32 %i.079, i32 1
  %9 = load i32, i32* %extent, align 4, !tbaa !49
  %conv17 = sext i32 %9 to i64
  %call18 = tail call i8* @halide_int64_to_string(i8* %call14, i8* %end, i64 %conv17, i32 1) #15
  %call19 = tail call i8* @halide_string_to_string(i8* %call18, i8* %end, i8* getelementptr inbounds ([3 x i8], [3 x i8]* @.str.55, i32 0, i32 0)) #15
  %10 = load %struct.halide_dimension_t*, %struct.halide_dimension_t** %dim, align 8, !tbaa !46
  %stride = getelementptr inbounds %struct.halide_dimension_t, %struct.halide_dimension_t* %10, i32 %i.079, i32 2
  %11 = load i32, i32* %stride, align 4, !tbaa !50
  %conv22 = sext i32 %11 to i64
  %call23 = tail call i8* @halide_int64_to_string(i8* %call19, i8* %end, i64 %conv22, i32 1) #15
  %call24 = tail call i8* @halide_string_to_string(i8* %call23, i8* %end, i8* getelementptr inbounds ([2 x i8], [2 x i8]* @.str.24, i32 0, i32 0)) #15
  %inc = add nuw nsw i32 %i.079, 1
  %12 = load i32, i32* %dimensions, align 4, !tbaa !45
  %cmp11 = icmp slt i32 %inc, %12
  br i1 %cmp11, label %for.body, label %for.cond.cleanup, !llvm.loop !51

return:                                           ; preds = %for.cond.cleanup, %if.then
  %retval.0 = phi i8* [ %call, %if.then ], [ %call25, %for.cond.cleanup ]
  ret i8* %retval.0
}

; Function Attrs: alwaysinline nounwind willreturn mustprogress
define weak i32 @halide_malloc_alignment() local_unnamed_addr #6 {
entry:
  ret i32 128
}

; Function Attrs: nounwind
define weak i32 @halide_reuse_device_allocations(i8* %user_context, i1 zeroext %flag) local_unnamed_addr #4 {
entry:
  %frombool = zext i1 %flag to i8
  store i8 %frombool, i8* @_ZN6Halide7Runtime8Internal36halide_reuse_device_allocations_flagE, align 1, !tbaa !18
  br i1 %flag, label %if.end5, label %if.then

if.then:                                          ; preds = %entry
  tail call void @halide_mutex_lock(%struct.halide_mutex* nonnull @_ZN6Halide7Runtime8Internal21allocation_pools_lockE) #14
  %p.014 = load %struct.halide_device_allocation_pool*, %struct.halide_device_allocation_pool** @_ZN6Halide7Runtime8Internal23device_allocation_poolsE, align 4, !tbaa !10
  %cmp.not15 = icmp eq %struct.halide_device_allocation_pool* %p.014, null
  br i1 %cmp.not15, label %for.cond.cleanup, label %for.body

for.cond.cleanup:                                 ; preds = %for.body, %if.then
  %err.0.lcssa = phi i32 [ 0, %if.then ], [ %spec.select, %for.body ]
  tail call void @halide_mutex_unlock(%struct.halide_mutex* nonnull @_ZN6Halide7Runtime8Internal21allocation_pools_lockE) #14
  br label %if.end5

for.body:                                         ; preds = %if.then, %for.body
  %p.017 = phi %struct.halide_device_allocation_pool* [ %p.0, %for.body ], [ %p.014, %if.then ]
  %err.016 = phi i32 [ %spec.select, %for.body ], [ 0, %if.then ]
  %release_unused = getelementptr inbounds %struct.halide_device_allocation_pool, %struct.halide_device_allocation_pool* %p.017, i32 0, i32 0
  %0 = load i32 (i8*)*, i32 (i8*)** %release_unused, align 4, !tbaa !52
  %call = tail call i32 %0(i8* %user_context) #14
  %tobool3.not = icmp eq i32 %call, 0
  %spec.select = select i1 %tobool3.not, i32 %err.016, i32 %call
  %next = getelementptr inbounds %struct.halide_device_allocation_pool, %struct.halide_device_allocation_pool* %p.017, i32 0, i32 1
  %p.0 = load %struct.halide_device_allocation_pool*, %struct.halide_device_allocation_pool** %next, align 4, !tbaa !10
  %cmp.not = icmp eq %struct.halide_device_allocation_pool* %p.0, null
  br i1 %cmp.not, label %for.cond.cleanup, label %for.body, !llvm.loop !54

if.end5:                                          ; preds = %for.cond.cleanup, %entry
  %err.2 = phi i32 [ 0, %entry ], [ %err.0.lcssa, %for.cond.cleanup ]
  ret i32 %err.2
}

; Function Attrs: nounwind willreturn mustprogress
define weak zeroext i1 @halide_can_reuse_device_allocations(i8* %user_context) local_unnamed_addr #2 {
entry:
  %0 = load i8, i8* @_ZN6Halide7Runtime8Internal36halide_reuse_device_allocations_flagE, align 1, !tbaa !18, !range !21
  %tobool = icmp ne i8 %0, 0
  ret i1 %tobool
}

; Function Attrs: nounwind willreturn
define weak void @halide_register_device_allocation_pool(%struct.halide_device_allocation_pool* %pool) local_unnamed_addr #7 {
entry:
  tail call void @halide_mutex_lock(%struct.halide_mutex* nonnull @_ZN6Halide7Runtime8Internal21allocation_pools_lockE) #14
  %0 = load %struct.halide_device_allocation_pool*, %struct.halide_device_allocation_pool** @_ZN6Halide7Runtime8Internal23device_allocation_poolsE, align 4, !tbaa !10
  %next = getelementptr inbounds %struct.halide_device_allocation_pool, %struct.halide_device_allocation_pool* %pool, i32 0, i32 1
  store %struct.halide_device_allocation_pool* %0, %struct.halide_device_allocation_pool** %next, align 4, !tbaa !55
  store %struct.halide_device_allocation_pool* %pool, %struct.halide_device_allocation_pool** @_ZN6Halide7Runtime8Internal23device_allocation_poolsE, align 4, !tbaa !10
  tail call void @halide_mutex_unlock(%struct.halide_mutex* nonnull @_ZN6Halide7Runtime8Internal21allocation_pools_lockE) #14
  ret void
}

; Function Attrs: nounwind mustprogress
define linkonce void @_ZN6Halide7Runtime8Internal18copy_memory_helperERKNS1_11device_copyEixx(%"struct.Halide::Runtime::Internal::device_copy"* nonnull align 8 dereferenceable(416) %copy, i32 %d, i64 %src_off, i64 %dst_off) local_unnamed_addr #0 {
entry:
  %cmp39 = icmp sgt i32 %d, -1
  br i1 %cmp39, label %land.rhs, label %while.end

land.rhs:                                         ; preds = %entry, %while.body
  %d.addr.040 = phi i32 [ %dec, %while.body ], [ %d, %entry ]
  %arrayidx = getelementptr inbounds %"struct.Halide::Runtime::Internal::device_copy", %"struct.Halide::Runtime::Internal::device_copy"* %copy, i32 0, i32 3, i32 %d.addr.040
  %0 = load i64, i64* %arrayidx, align 8, !tbaa !26
  %cmp1 = icmp eq i64 %0, 1
  br i1 %cmp1, label %while.body, label %while.end

while.body:                                       ; preds = %land.rhs
  %dec = add nsw i32 %d.addr.040, -1
  %cmp = icmp sgt i32 %d.addr.040, 0
  br i1 %cmp, label %land.rhs, label %if.then, !llvm.loop !56

while.end:                                        ; preds = %land.rhs, %entry
  %d.addr.0.lcssa = phi i32 [ %d, %entry ], [ %d.addr.040, %land.rhs ]
  %cmp2 = icmp eq i32 %d.addr.0.lcssa, -1
  br i1 %cmp2, label %if.then, label %for.cond.preheader

for.cond.preheader:                               ; preds = %while.end
  %arrayidx7 = getelementptr inbounds %"struct.Halide::Runtime::Internal::device_copy", %"struct.Halide::Runtime::Internal::device_copy"* %copy, i32 0, i32 3, i32 %d.addr.0.lcssa
  %1 = load i64, i64* %arrayidx7, align 8, !tbaa !26
  %cmp835.not = icmp eq i64 %1, 0
  br i1 %cmp835.not, label %if.end, label %for.body.lr.ph

for.body.lr.ph:                                   ; preds = %for.cond.preheader
  %sub = add nsw i32 %d.addr.0.lcssa, -1
  %arrayidx9 = getelementptr inbounds %"struct.Halide::Runtime::Internal::device_copy", %"struct.Halide::Runtime::Internal::device_copy"* %copy, i32 0, i32 4, i32 %d.addr.0.lcssa
  %arrayidx11 = getelementptr inbounds %"struct.Halide::Runtime::Internal::device_copy", %"struct.Halide::Runtime::Internal::device_copy"* %copy, i32 0, i32 5, i32 %d.addr.0.lcssa
  %inc.0 = add nuw i64 0, 1
  br label %for.body

if.then:                                          ; preds = %while.body, %while.end
  %src = getelementptr inbounds %"struct.Halide::Runtime::Internal::device_copy", %"struct.Halide::Runtime::Internal::device_copy"* %copy, i32 0, i32 0
  %2 = load i64, i64* %src, align 8, !tbaa !57
  %add = add i64 %2, %src_off
  %conv = trunc i64 %add to i32
  %3 = inttoptr i32 %conv to i8*
  %dst = getelementptr inbounds %"struct.Halide::Runtime::Internal::device_copy", %"struct.Halide::Runtime::Internal::device_copy"* %copy, i32 0, i32 1
  %4 = load i64, i64* %dst, align 8, !tbaa !59
  %add3 = add i64 %4, %dst_off
  %conv4 = trunc i64 %add3 to i32
  %5 = inttoptr i32 %conv4 to i8*
  %chunk_size = getelementptr inbounds %"struct.Halide::Runtime::Internal::device_copy", %"struct.Halide::Runtime::Internal::device_copy"* %copy, i32 0, i32 6
  %6 = load i64, i64* %chunk_size, align 8, !tbaa !60
  %conv5 = trunc i64 %6 to i32
  %call = tail call i8* @memcpy(i8* %5, i8* %3, i32 %conv5) #14
  br label %if.end

for.body:                                         ; preds = %for.body.for.body_crit_edge, %for.body.lr.ph
  %inc.phi = phi i64 [ %inc.0, %for.body.lr.ph ], [ %inc.1, %for.body.for.body_crit_edge ]
  %src_off.addr.037 = phi i64 [ %src_off, %for.body.lr.ph ], [ %add10, %for.body.for.body_crit_edge ]
  %dst_off.addr.036 = phi i64 [ %dst_off, %for.body.lr.ph ], [ %add12, %for.body.for.body_crit_edge ]
  tail call void @_ZN6Halide7Runtime8Internal18copy_memory_helperERKNS1_11device_copyEixx(%"struct.Halide::Runtime::Internal::device_copy"* nonnull align 8 dereferenceable(416) %copy, i32 %sub, i64 %src_off.addr.037, i64 %dst_off.addr.036) #15
  %7 = load i64, i64* %arrayidx9, align 8, !tbaa !26
  %add10 = add i64 %7, %src_off.addr.037
  %8 = load i64, i64* %arrayidx11, align 8, !tbaa !26
  %add12 = add i64 %8, %dst_off.addr.036
  %9 = load i64, i64* %arrayidx7, align 8, !tbaa !26
  %cmp8 = icmp ult i64 %inc.phi, %9
  br i1 %cmp8, label %for.body.for.body_crit_edge, label %if.end, !llvm.loop !61

for.body.for.body_crit_edge:                      ; preds = %for.body
  %inc.1 = add nuw i64 %inc.phi, 1
  br label %for.body

if.end:                                           ; preds = %for.body, %if.then, %for.cond.preheader
  ret void
}

; Function Attrs: nounwind mustprogress
define linkonce void @_ZN6Halide7Runtime8Internal11copy_memoryERKNS1_11device_copyEPv(%"struct.Halide::Runtime::Internal::device_copy"* nonnull align 8 dereferenceable(416) %copy, i8* %user_context) local_unnamed_addr #0 {
entry:
  %src = getelementptr inbounds %"struct.Halide::Runtime::Internal::device_copy", %"struct.Halide::Runtime::Internal::device_copy"* %copy, i32 0, i32 0
  %0 = load i64, i64* %src, align 8, !tbaa !57
  %dst = getelementptr inbounds %"struct.Halide::Runtime::Internal::device_copy", %"struct.Halide::Runtime::Internal::device_copy"* %copy, i32 0, i32 1
  %1 = load i64, i64* %dst, align 8, !tbaa !59
  %cmp.not = icmp eq i64 %0, %1
  br i1 %cmp.not, label %if.end, label %if.then

if.then:                                          ; preds = %entry
  %src_begin = getelementptr inbounds %"struct.Halide::Runtime::Internal::device_copy", %"struct.Halide::Runtime::Internal::device_copy"* %copy, i32 0, i32 2
  %2 = load i64, i64* %src_begin, align 8, !tbaa !62
  tail call void @_ZN6Halide7Runtime8Internal18copy_memory_helperERKNS1_11device_copyEixx(%"struct.Halide::Runtime::Internal::device_copy"* nonnull align 8 dereferenceable(416) %copy, i32 15, i64 %2, i64 0) #15
  br label %if.end

if.end:                                           ; preds = %if.then, %entry
  ret void
}

; Function Attrs: nounwind mustprogress
define linkonce void @_ZN6Halide7Runtime8Internal16make_buffer_copyEPK15halide_buffer_tbS4_b(%"struct.Halide::Runtime::Internal::device_copy"* noalias sret(%"struct.Halide::Runtime::Internal::device_copy") align 8 %agg.result, %struct.halide_buffer_t* %src, i1 zeroext %src_host, %struct.halide_buffer_t* %dst, i1 zeroext %dst_host) local_unnamed_addr #0 {
entry:
  %c = alloca %"struct.Halide::Runtime::Internal::device_copy", align 8
  %0 = bitcast %"struct.Halide::Runtime::Internal::device_copy"* %c to i8*
  call void @llvm.lifetime.start.p0i8(i64 416, i8* nonnull %0) #11
  br i1 %src_host, label %cond.true, label %cond.false

cond.true:                                        ; preds = %entry
  %host = getelementptr inbounds %struct.halide_buffer_t, %struct.halide_buffer_t* %src, i32 0, i32 2
  %1 = load i8*, i8** %host, align 4, !tbaa !43
  %2 = ptrtoint i8* %1 to i32
  %3 = zext i32 %2 to i64
  br label %cond.end

cond.false:                                       ; preds = %entry
  %device = getelementptr inbounds %struct.halide_buffer_t, %struct.halide_buffer_t* %src, i32 0, i32 0
  %4 = load i64, i64* %device, align 8, !tbaa !40
  br label %cond.end

cond.end:                                         ; preds = %cond.false, %cond.true
  %cond = phi i64 [ %3, %cond.true ], [ %4, %cond.false ]
  %src2 = getelementptr inbounds %"struct.Halide::Runtime::Internal::device_copy", %"struct.Halide::Runtime::Internal::device_copy"* %c, i32 0, i32 0
  store i64 %cond, i64* %src2, align 8, !tbaa !57
  br i1 %dst_host, label %cond.true4, label %cond.false6

cond.true4:                                       ; preds = %cond.end
  %host5 = getelementptr inbounds %struct.halide_buffer_t, %struct.halide_buffer_t* %dst, i32 0, i32 2
  %5 = load i8*, i8** %host5, align 4, !tbaa !43
  %6 = ptrtoint i8* %5 to i32
  %7 = zext i32 %6 to i64
  br label %cond.end8

cond.false6:                                      ; preds = %cond.end
  %device7 = getelementptr inbounds %struct.halide_buffer_t, %struct.halide_buffer_t* %dst, i32 0, i32 0
  %8 = load i64, i64* %device7, align 8, !tbaa !40
  br label %cond.end8

cond.end8:                                        ; preds = %cond.false6, %cond.true4
  %cond9 = phi i64 [ %7, %cond.true4 ], [ %8, %cond.false6 ]
  %dst10 = getelementptr inbounds %"struct.Halide::Runtime::Internal::device_copy", %"struct.Halide::Runtime::Internal::device_copy"* %c, i32 0, i32 1
  store i64 %cond9, i64* %dst10, align 8, !tbaa !59
  %bits.i = getelementptr inbounds %struct.halide_buffer_t, %struct.halide_buffer_t* %src, i32 0, i32 4, i32 1
  %9 = load i8, i8* %bits.i, align 1, !tbaa !38
  %conv.i = zext i8 %9 to i32
  %add.i = add nuw nsw i32 %conv.i, 7
  %div.i = lshr i32 %add.i, 3
  %conv = zext i32 %div.i to i64
  %chunk_size = getelementptr inbounds %"struct.Halide::Runtime::Internal::device_copy", %"struct.Halide::Runtime::Internal::device_copy"* %c, i32 0, i32 6
  store i64 %conv, i64* %chunk_size, align 8, !tbaa !60
  %arrayidx = getelementptr inbounds %"struct.Halide::Runtime::Internal::device_copy", %"struct.Halide::Runtime::Internal::device_copy"* %c, i32 0, i32 3, i32 0
  store i64 1, i64* %arrayidx, align 8, !tbaa !26
  %arrayidx11 = getelementptr inbounds %"struct.Halide::Runtime::Internal::device_copy", %"struct.Halide::Runtime::Internal::device_copy"* %c, i32 0, i32 4, i32 0
  store i64 0, i64* %arrayidx11, align 8, !tbaa !26
  %arrayidx12 = getelementptr inbounds %"struct.Halide::Runtime::Internal::device_copy", %"struct.Halide::Runtime::Internal::device_copy"* %c, i32 0, i32 5, i32 0
  store i64 0, i64* %arrayidx12, align 8, !tbaa !26
  %arrayidx.1 = getelementptr inbounds %"struct.Halide::Runtime::Internal::device_copy", %"struct.Halide::Runtime::Internal::device_copy"* %c, i32 0, i32 3, i32 1
  store i64 1, i64* %arrayidx.1, align 8, !tbaa !26
  %arrayidx11.1 = getelementptr inbounds %"struct.Halide::Runtime::Internal::device_copy", %"struct.Halide::Runtime::Internal::device_copy"* %c, i32 0, i32 4, i32 1
  store i64 0, i64* %arrayidx11.1, align 8, !tbaa !26
  %arrayidx12.1 = getelementptr inbounds %"struct.Halide::Runtime::Internal::device_copy", %"struct.Halide::Runtime::Internal::device_copy"* %c, i32 0, i32 5, i32 1
  store i64 0, i64* %arrayidx12.1, align 8, !tbaa !26
  %arrayidx.2 = getelementptr inbounds %"struct.Halide::Runtime::Internal::device_copy", %"struct.Halide::Runtime::Internal::device_copy"* %c, i32 0, i32 3, i32 2
  store i64 1, i64* %arrayidx.2, align 8, !tbaa !26
  %arrayidx11.2 = getelementptr inbounds %"struct.Halide::Runtime::Internal::device_copy", %"struct.Halide::Runtime::Internal::device_copy"* %c, i32 0, i32 4, i32 2
  store i64 0, i64* %arrayidx11.2, align 8, !tbaa !26
  %arrayidx12.2 = getelementptr inbounds %"struct.Halide::Runtime::Internal::device_copy", %"struct.Halide::Runtime::Internal::device_copy"* %c, i32 0, i32 5, i32 2
  store i64 0, i64* %arrayidx12.2, align 8, !tbaa !26
  %arrayidx.3 = getelementptr inbounds %"struct.Halide::Runtime::Internal::device_copy", %"struct.Halide::Runtime::Internal::device_copy"* %c, i32 0, i32 3, i32 3
  store i64 1, i64* %arrayidx.3, align 8, !tbaa !26
  %arrayidx11.3 = getelementptr inbounds %"struct.Halide::Runtime::Internal::device_copy", %"struct.Halide::Runtime::Internal::device_copy"* %c, i32 0, i32 4, i32 3
  store i64 0, i64* %arrayidx11.3, align 8, !tbaa !26
  %arrayidx12.3 = getelementptr inbounds %"struct.Halide::Runtime::Internal::device_copy", %"struct.Halide::Runtime::Internal::device_copy"* %c, i32 0, i32 5, i32 3
  store i64 0, i64* %arrayidx12.3, align 8, !tbaa !26
  %arrayidx.4 = getelementptr inbounds %"struct.Halide::Runtime::Internal::device_copy", %"struct.Halide::Runtime::Internal::device_copy"* %c, i32 0, i32 3, i32 4
  store i64 1, i64* %arrayidx.4, align 8, !tbaa !26
  %arrayidx11.4 = getelementptr inbounds %"struct.Halide::Runtime::Internal::device_copy", %"struct.Halide::Runtime::Internal::device_copy"* %c, i32 0, i32 4, i32 4
  store i64 0, i64* %arrayidx11.4, align 8, !tbaa !26
  %arrayidx12.4 = getelementptr inbounds %"struct.Halide::Runtime::Internal::device_copy", %"struct.Halide::Runtime::Internal::device_copy"* %c, i32 0, i32 5, i32 4
  store i64 0, i64* %arrayidx12.4, align 8, !tbaa !26
  %arrayidx.5 = getelementptr inbounds %"struct.Halide::Runtime::Internal::device_copy", %"struct.Halide::Runtime::Internal::device_copy"* %c, i32 0, i32 3, i32 5
  store i64 1, i64* %arrayidx.5, align 8, !tbaa !26
  %arrayidx11.5 = getelementptr inbounds %"struct.Halide::Runtime::Internal::device_copy", %"struct.Halide::Runtime::Internal::device_copy"* %c, i32 0, i32 4, i32 5
  store i64 0, i64* %arrayidx11.5, align 8, !tbaa !26
  %arrayidx12.5 = getelementptr inbounds %"struct.Halide::Runtime::Internal::device_copy", %"struct.Halide::Runtime::Internal::device_copy"* %c, i32 0, i32 5, i32 5
  store i64 0, i64* %arrayidx12.5, align 8, !tbaa !26
  %arrayidx.6 = getelementptr inbounds %"struct.Halide::Runtime::Internal::device_copy", %"struct.Halide::Runtime::Internal::device_copy"* %c, i32 0, i32 3, i32 6
  store i64 1, i64* %arrayidx.6, align 8, !tbaa !26
  %arrayidx11.6 = getelementptr inbounds %"struct.Halide::Runtime::Internal::device_copy", %"struct.Halide::Runtime::Internal::device_copy"* %c, i32 0, i32 4, i32 6
  store i64 0, i64* %arrayidx11.6, align 8, !tbaa !26
  %arrayidx12.6 = getelementptr inbounds %"struct.Halide::Runtime::Internal::device_copy", %"struct.Halide::Runtime::Internal::device_copy"* %c, i32 0, i32 5, i32 6
  store i64 0, i64* %arrayidx12.6, align 8, !tbaa !26
  %arrayidx.7 = getelementptr inbounds %"struct.Halide::Runtime::Internal::device_copy", %"struct.Halide::Runtime::Internal::device_copy"* %c, i32 0, i32 3, i32 7
  store i64 1, i64* %arrayidx.7, align 8, !tbaa !26
  %arrayidx11.7 = getelementptr inbounds %"struct.Halide::Runtime::Internal::device_copy", %"struct.Halide::Runtime::Internal::device_copy"* %c, i32 0, i32 4, i32 7
  store i64 0, i64* %arrayidx11.7, align 8, !tbaa !26
  %arrayidx12.7 = getelementptr inbounds %"struct.Halide::Runtime::Internal::device_copy", %"struct.Halide::Runtime::Internal::device_copy"* %c, i32 0, i32 5, i32 7
  store i64 0, i64* %arrayidx12.7, align 8, !tbaa !26
  %arrayidx.8 = getelementptr inbounds %"struct.Halide::Runtime::Internal::device_copy", %"struct.Halide::Runtime::Internal::device_copy"* %c, i32 0, i32 3, i32 8
  store i64 1, i64* %arrayidx.8, align 8, !tbaa !26
  %arrayidx11.8 = getelementptr inbounds %"struct.Halide::Runtime::Internal::device_copy", %"struct.Halide::Runtime::Internal::device_copy"* %c, i32 0, i32 4, i32 8
  store i64 0, i64* %arrayidx11.8, align 8, !tbaa !26
  %arrayidx12.8 = getelementptr inbounds %"struct.Halide::Runtime::Internal::device_copy", %"struct.Halide::Runtime::Internal::device_copy"* %c, i32 0, i32 5, i32 8
  store i64 0, i64* %arrayidx12.8, align 8, !tbaa !26
  %arrayidx.9 = getelementptr inbounds %"struct.Halide::Runtime::Internal::device_copy", %"struct.Halide::Runtime::Internal::device_copy"* %c, i32 0, i32 3, i32 9
  store i64 1, i64* %arrayidx.9, align 8, !tbaa !26
  %arrayidx11.9 = getelementptr inbounds %"struct.Halide::Runtime::Internal::device_copy", %"struct.Halide::Runtime::Internal::device_copy"* %c, i32 0, i32 4, i32 9
  store i64 0, i64* %arrayidx11.9, align 8, !tbaa !26
  %arrayidx12.9 = getelementptr inbounds %"struct.Halide::Runtime::Internal::device_copy", %"struct.Halide::Runtime::Internal::device_copy"* %c, i32 0, i32 5, i32 9
  store i64 0, i64* %arrayidx12.9, align 8, !tbaa !26
  %arrayidx.10 = getelementptr inbounds %"struct.Halide::Runtime::Internal::device_copy", %"struct.Halide::Runtime::Internal::device_copy"* %c, i32 0, i32 3, i32 10
  store i64 1, i64* %arrayidx.10, align 8, !tbaa !26
  %arrayidx11.10 = getelementptr inbounds %"struct.Halide::Runtime::Internal::device_copy", %"struct.Halide::Runtime::Internal::device_copy"* %c, i32 0, i32 4, i32 10
  store i64 0, i64* %arrayidx11.10, align 8, !tbaa !26
  %arrayidx12.10 = getelementptr inbounds %"struct.Halide::Runtime::Internal::device_copy", %"struct.Halide::Runtime::Internal::device_copy"* %c, i32 0, i32 5, i32 10
  store i64 0, i64* %arrayidx12.10, align 8, !tbaa !26
  %arrayidx.11 = getelementptr inbounds %"struct.Halide::Runtime::Internal::device_copy", %"struct.Halide::Runtime::Internal::device_copy"* %c, i32 0, i32 3, i32 11
  store i64 1, i64* %arrayidx.11, align 8, !tbaa !26
  %arrayidx11.11 = getelementptr inbounds %"struct.Halide::Runtime::Internal::device_copy", %"struct.Halide::Runtime::Internal::device_copy"* %c, i32 0, i32 4, i32 11
  store i64 0, i64* %arrayidx11.11, align 8, !tbaa !26
  %arrayidx12.11 = getelementptr inbounds %"struct.Halide::Runtime::Internal::device_copy", %"struct.Halide::Runtime::Internal::device_copy"* %c, i32 0, i32 5, i32 11
  store i64 0, i64* %arrayidx12.11, align 8, !tbaa !26
  %arrayidx.12 = getelementptr inbounds %"struct.Halide::Runtime::Internal::device_copy", %"struct.Halide::Runtime::Internal::device_copy"* %c, i32 0, i32 3, i32 12
  store i64 1, i64* %arrayidx.12, align 8, !tbaa !26
  %arrayidx11.12 = getelementptr inbounds %"struct.Halide::Runtime::Internal::device_copy", %"struct.Halide::Runtime::Internal::device_copy"* %c, i32 0, i32 4, i32 12
  store i64 0, i64* %arrayidx11.12, align 8, !tbaa !26
  %arrayidx12.12 = getelementptr inbounds %"struct.Halide::Runtime::Internal::device_copy", %"struct.Halide::Runtime::Internal::device_copy"* %c, i32 0, i32 5, i32 12
  store i64 0, i64* %arrayidx12.12, align 8, !tbaa !26
  %arrayidx.13 = getelementptr inbounds %"struct.Halide::Runtime::Internal::device_copy", %"struct.Halide::Runtime::Internal::device_copy"* %c, i32 0, i32 3, i32 13
  store i64 1, i64* %arrayidx.13, align 8, !tbaa !26
  %arrayidx11.13 = getelementptr inbounds %"struct.Halide::Runtime::Internal::device_copy", %"struct.Halide::Runtime::Internal::device_copy"* %c, i32 0, i32 4, i32 13
  store i64 0, i64* %arrayidx11.13, align 8, !tbaa !26
  %arrayidx12.13 = getelementptr inbounds %"struct.Halide::Runtime::Internal::device_copy", %"struct.Halide::Runtime::Internal::device_copy"* %c, i32 0, i32 5, i32 13
  store i64 0, i64* %arrayidx12.13, align 8, !tbaa !26
  %arrayidx.14 = getelementptr inbounds %"struct.Halide::Runtime::Internal::device_copy", %"struct.Halide::Runtime::Internal::device_copy"* %c, i32 0, i32 3, i32 14
  store i64 1, i64* %arrayidx.14, align 8, !tbaa !26
  %arrayidx11.14 = getelementptr inbounds %"struct.Halide::Runtime::Internal::device_copy", %"struct.Halide::Runtime::Internal::device_copy"* %c, i32 0, i32 4, i32 14
  store i64 0, i64* %arrayidx11.14, align 8, !tbaa !26
  %arrayidx12.14 = getelementptr inbounds %"struct.Halide::Runtime::Internal::device_copy", %"struct.Halide::Runtime::Internal::device_copy"* %c, i32 0, i32 5, i32 14
  store i64 0, i64* %arrayidx12.14, align 8, !tbaa !26
  %arrayidx.15 = getelementptr inbounds %"struct.Halide::Runtime::Internal::device_copy", %"struct.Halide::Runtime::Internal::device_copy"* %c, i32 0, i32 3, i32 15
  store i64 1, i64* %arrayidx.15, align 8, !tbaa !26
  %arrayidx11.15 = getelementptr inbounds %"struct.Halide::Runtime::Internal::device_copy", %"struct.Halide::Runtime::Internal::device_copy"* %c, i32 0, i32 4, i32 15
  store i64 0, i64* %arrayidx11.15, align 8, !tbaa !26
  %arrayidx12.15 = getelementptr inbounds %"struct.Halide::Runtime::Internal::device_copy", %"struct.Halide::Runtime::Internal::device_copy"* %c, i32 0, i32 5, i32 15
  store i64 0, i64* %arrayidx12.15, align 8, !tbaa !26
  %src_begin = getelementptr inbounds %"struct.Halide::Runtime::Internal::device_copy", %"struct.Halide::Runtime::Internal::device_copy"* %c, i32 0, i32 2
  %dimensions = getelementptr inbounds %struct.halide_buffer_t, %struct.halide_buffer_t* %src, i32 0, i32 5
  %10 = load i32, i32* %dimensions, align 4, !tbaa !45
  %cmp15248 = icmp sgt i32 %10, 0
  br i1 %cmp15248, label %for.body17.lr.ph, label %for.cond.cleanup16

for.body17.lr.ph:                                 ; preds = %cond.end8
  %dim = getelementptr inbounds %struct.halide_buffer_t, %struct.halide_buffer_t* %src, i32 0, i32 6
  %11 = load %struct.halide_dimension_t*, %struct.halide_dimension_t** %dim, align 8, !tbaa !46
  %dim20 = getelementptr inbounds %struct.halide_buffer_t, %struct.halide_buffer_t* %dst, i32 0, i32 6
  %12 = load %struct.halide_dimension_t*, %struct.halide_dimension_t** %dim20, align 8, !tbaa !46
  %13 = add i32 %10, -1
  %xtraiter = and i32 %10, 7
  %14 = icmp ult i32 %13, 7
  br i1 %14, label %for.cond.cleanup16.loopexit.unr-lcssa, label %for.body17.lr.ph.new

for.body17.lr.ph.new:                             ; preds = %for.body17.lr.ph
  %unroll_iter = and i32 %10, -8
  br label %for.body17

for.cond.cleanup16.loopexit.unr-lcssa:            ; preds = %for.body17, %for.body17.lr.ph
  %add.lcssa.ph = phi i64 [ undef, %for.body17.lr.ph ], [ %add.7, %for.body17 ]
  %.unr = phi i64 [ 0, %for.body17.lr.ph ], [ %add.7, %for.body17 ]
  %i13.0249.unr = phi i32 [ 0, %for.body17.lr.ph ], [ %inc28.7, %for.body17 ]
  %lcmp.mod.not = icmp eq i32 %xtraiter, 0
  br i1 %lcmp.mod.not, label %for.cond.cleanup16, label %for.body17.epil

for.body17.epil:                                  ; preds = %for.cond.cleanup16.loopexit.unr-lcssa, %for.body17.epil
  %15 = phi i64 [ %add.epil, %for.body17.epil ], [ %.unr, %for.cond.cleanup16.loopexit.unr-lcssa ]
  %i13.0249.epil = phi i32 [ %inc28.epil, %for.body17.epil ], [ %i13.0249.unr, %for.cond.cleanup16.loopexit.unr-lcssa ]
  %epil.iter = phi i32 [ %epil.iter.sub, %for.body17.epil ], [ %xtraiter, %for.cond.cleanup16.loopexit.unr-lcssa ]
  %stride.epil = getelementptr inbounds %struct.halide_dimension_t, %struct.halide_dimension_t* %11, i32 %i13.0249.epil, i32 2
  %16 = load i32, i32* %stride.epil, align 4, !tbaa !50
  %conv19.epil = sext i32 %16 to i64
  %min.epil = getelementptr inbounds %struct.halide_dimension_t, %struct.halide_dimension_t* %12, i32 %i13.0249.epil, i32 0
  %17 = load i32, i32* %min.epil, align 4, !tbaa !47
  %min24.epil = getelementptr inbounds %struct.halide_dimension_t, %struct.halide_dimension_t* %11, i32 %i13.0249.epil, i32 0
  %18 = load i32, i32* %min24.epil, align 4, !tbaa !47
  %sub.epil = sub nsw i32 %17, %18
  %conv25.epil = sext i32 %sub.epil to i64
  %mul.epil = mul nsw i64 %conv25.epil, %conv19.epil
  %add.epil = add i64 %mul.epil, %15
  %inc28.epil = add nuw nsw i32 %i13.0249.epil, 1
  %epil.iter.sub = add i32 %epil.iter, -1
  %epil.iter.cmp.not = icmp eq i32 %epil.iter.sub, 0
  br i1 %epil.iter.cmp.not, label %for.cond.cleanup16, label %for.body17.epil, !llvm.loop !63

for.cond.cleanup16:                               ; preds = %for.cond.cleanup16.loopexit.unr-lcssa, %for.body17.epil, %cond.end8
  %19 = phi i64 [ 0, %cond.end8 ], [ %add.lcssa.ph, %for.cond.cleanup16.loopexit.unr-lcssa ], [ %add.epil, %for.body17.epil ]
  %mul32 = mul i64 %19, %conv
  store i64 %mul32, i64* %src_begin, align 8, !tbaa !62
  %dimensions34 = getelementptr inbounds %struct.halide_buffer_t, %struct.halide_buffer_t* %dst, i32 0, i32 5
  %20 = load i32, i32* %dimensions34, align 4, !tbaa !45
  %cmp35.not = icmp eq i32 %10, %20
  br i1 %cmp35.not, label %lor.lhs.false, label %if.then

for.body17:                                       ; preds = %for.body17, %for.body17.lr.ph.new
  %21 = phi i64 [ 0, %for.body17.lr.ph.new ], [ %add.7, %for.body17 ]
  %i13.0249 = phi i32 [ 0, %for.body17.lr.ph.new ], [ %inc28.7, %for.body17 ]
  %niter = phi i32 [ %unroll_iter, %for.body17.lr.ph.new ], [ %niter.nsub.7, %for.body17 ]
  %stride = getelementptr inbounds %struct.halide_dimension_t, %struct.halide_dimension_t* %11, i32 %i13.0249, i32 2
  %22 = load i32, i32* %stride, align 4, !tbaa !50
  %conv19 = sext i32 %22 to i64
  %min = getelementptr inbounds %struct.halide_dimension_t, %struct.halide_dimension_t* %12, i32 %i13.0249, i32 0
  %23 = load i32, i32* %min, align 4, !tbaa !47
  %min24 = getelementptr inbounds %struct.halide_dimension_t, %struct.halide_dimension_t* %11, i32 %i13.0249, i32 0
  %24 = load i32, i32* %min24, align 4, !tbaa !47
  %sub = sub nsw i32 %23, %24
  %conv25 = sext i32 %sub to i64
  %mul = mul nsw i64 %conv25, %conv19
  %add = add i64 %mul, %21
  %inc28 = or i32 %i13.0249, 1
  %stride.1 = getelementptr inbounds %struct.halide_dimension_t, %struct.halide_dimension_t* %11, i32 %inc28, i32 2
  %25 = load i32, i32* %stride.1, align 4, !tbaa !50
  %conv19.1 = sext i32 %25 to i64
  %min.1 = getelementptr inbounds %struct.halide_dimension_t, %struct.halide_dimension_t* %12, i32 %inc28, i32 0
  %26 = load i32, i32* %min.1, align 4, !tbaa !47
  %min24.1 = getelementptr inbounds %struct.halide_dimension_t, %struct.halide_dimension_t* %11, i32 %inc28, i32 0
  %27 = load i32, i32* %min24.1, align 4, !tbaa !47
  %sub.1 = sub nsw i32 %26, %27
  %conv25.1 = sext i32 %sub.1 to i64
  %mul.1 = mul nsw i64 %conv25.1, %conv19.1
  %add.1 = add i64 %mul.1, %add
  %inc28.1 = or i32 %i13.0249, 2
  %stride.2 = getelementptr inbounds %struct.halide_dimension_t, %struct.halide_dimension_t* %11, i32 %inc28.1, i32 2
  %28 = load i32, i32* %stride.2, align 4, !tbaa !50
  %conv19.2 = sext i32 %28 to i64
  %min.2 = getelementptr inbounds %struct.halide_dimension_t, %struct.halide_dimension_t* %12, i32 %inc28.1, i32 0
  %29 = load i32, i32* %min.2, align 4, !tbaa !47
  %min24.2 = getelementptr inbounds %struct.halide_dimension_t, %struct.halide_dimension_t* %11, i32 %inc28.1, i32 0
  %30 = load i32, i32* %min24.2, align 4, !tbaa !47
  %sub.2 = sub nsw i32 %29, %30
  %conv25.2 = sext i32 %sub.2 to i64
  %mul.2 = mul nsw i64 %conv25.2, %conv19.2
  %add.2 = add i64 %mul.2, %add.1
  %inc28.2 = or i32 %i13.0249, 3
  %stride.3 = getelementptr inbounds %struct.halide_dimension_t, %struct.halide_dimension_t* %11, i32 %inc28.2, i32 2
  %31 = load i32, i32* %stride.3, align 4, !tbaa !50
  %conv19.3 = sext i32 %31 to i64
  %min.3 = getelementptr inbounds %struct.halide_dimension_t, %struct.halide_dimension_t* %12, i32 %inc28.2, i32 0
  %32 = load i32, i32* %min.3, align 4, !tbaa !47
  %min24.3 = getelementptr inbounds %struct.halide_dimension_t, %struct.halide_dimension_t* %11, i32 %inc28.2, i32 0
  %33 = load i32, i32* %min24.3, align 4, !tbaa !47
  %sub.3 = sub nsw i32 %32, %33
  %conv25.3 = sext i32 %sub.3 to i64
  %mul.3 = mul nsw i64 %conv25.3, %conv19.3
  %add.3 = add i64 %mul.3, %add.2
  %inc28.3 = or i32 %i13.0249, 4
  %stride.4 = getelementptr inbounds %struct.halide_dimension_t, %struct.halide_dimension_t* %11, i32 %inc28.3, i32 2
  %34 = load i32, i32* %stride.4, align 4, !tbaa !50
  %conv19.4 = sext i32 %34 to i64
  %min.4 = getelementptr inbounds %struct.halide_dimension_t, %struct.halide_dimension_t* %12, i32 %inc28.3, i32 0
  %35 = load i32, i32* %min.4, align 4, !tbaa !47
  %min24.4 = getelementptr inbounds %struct.halide_dimension_t, %struct.halide_dimension_t* %11, i32 %inc28.3, i32 0
  %36 = load i32, i32* %min24.4, align 4, !tbaa !47
  %sub.4 = sub nsw i32 %35, %36
  %conv25.4 = sext i32 %sub.4 to i64
  %mul.4 = mul nsw i64 %conv25.4, %conv19.4
  %add.4 = add i64 %mul.4, %add.3
  %inc28.4 = or i32 %i13.0249, 5
  %stride.5 = getelementptr inbounds %struct.halide_dimension_t, %struct.halide_dimension_t* %11, i32 %inc28.4, i32 2
  %37 = load i32, i32* %stride.5, align 4, !tbaa !50
  %conv19.5 = sext i32 %37 to i64
  %min.5 = getelementptr inbounds %struct.halide_dimension_t, %struct.halide_dimension_t* %12, i32 %inc28.4, i32 0
  %38 = load i32, i32* %min.5, align 4, !tbaa !47
  %min24.5 = getelementptr inbounds %struct.halide_dimension_t, %struct.halide_dimension_t* %11, i32 %inc28.4, i32 0
  %39 = load i32, i32* %min24.5, align 4, !tbaa !47
  %sub.5 = sub nsw i32 %38, %39
  %conv25.5 = sext i32 %sub.5 to i64
  %mul.5 = mul nsw i64 %conv25.5, %conv19.5
  %add.5 = add i64 %mul.5, %add.4
  %inc28.5 = or i32 %i13.0249, 6
  %stride.6 = getelementptr inbounds %struct.halide_dimension_t, %struct.halide_dimension_t* %11, i32 %inc28.5, i32 2
  %40 = load i32, i32* %stride.6, align 4, !tbaa !50
  %conv19.6 = sext i32 %40 to i64
  %min.6 = getelementptr inbounds %struct.halide_dimension_t, %struct.halide_dimension_t* %12, i32 %inc28.5, i32 0
  %41 = load i32, i32* %min.6, align 4, !tbaa !47
  %min24.6 = getelementptr inbounds %struct.halide_dimension_t, %struct.halide_dimension_t* %11, i32 %inc28.5, i32 0
  %42 = load i32, i32* %min24.6, align 4, !tbaa !47
  %sub.6 = sub nsw i32 %41, %42
  %conv25.6 = sext i32 %sub.6 to i64
  %mul.6 = mul nsw i64 %conv25.6, %conv19.6
  %add.6 = add i64 %mul.6, %add.5
  %inc28.6 = or i32 %i13.0249, 7
  %stride.7 = getelementptr inbounds %struct.halide_dimension_t, %struct.halide_dimension_t* %11, i32 %inc28.6, i32 2
  %43 = load i32, i32* %stride.7, align 4, !tbaa !50
  %conv19.7 = sext i32 %43 to i64
  %min.7 = getelementptr inbounds %struct.halide_dimension_t, %struct.halide_dimension_t* %12, i32 %inc28.6, i32 0
  %44 = load i32, i32* %min.7, align 4, !tbaa !47
  %min24.7 = getelementptr inbounds %struct.halide_dimension_t, %struct.halide_dimension_t* %11, i32 %inc28.6, i32 0
  %45 = load i32, i32* %min24.7, align 4, !tbaa !47
  %sub.7 = sub nsw i32 %44, %45
  %conv25.7 = sext i32 %sub.7 to i64
  %mul.7 = mul nsw i64 %conv25.7, %conv19.7
  %add.7 = add i64 %mul.7, %add.6
  %inc28.7 = add nuw nsw i32 %i13.0249, 8
  %niter.nsub.7 = add i32 %niter, -8
  %niter.ncmp.7 = icmp eq i32 %niter.nsub.7, 0
  br i1 %niter.ncmp.7, label %for.cond.cleanup16.loopexit.unr-lcssa, label %for.body17, !llvm.loop !64

lor.lhs.false:                                    ; preds = %for.cond.cleanup16
  %bits.i229 = getelementptr inbounds %struct.halide_buffer_t, %struct.halide_buffer_t* %dst, i32 0, i32 4, i32 1
  %46 = load i8, i8* %bits.i229, align 1, !tbaa !38
  %conv.i230 = zext i8 %46 to i32
  %add.i231 = add nuw nsw i32 %conv.i230, 7
  %div.i232 = lshr i32 %add.i231, 3
  %cmp40.not = icmp ne i32 %div.i, %div.i232
  %cmp43 = icmp sgt i32 %10, 16
  %or.cond237 = or i1 %cmp43, %cmp40.not
  br i1 %or.cond237, label %if.then, label %if.end

if.then:                                          ; preds = %lor.lhs.false, %for.cond.cleanup16
  %47 = bitcast %"struct.Halide::Runtime::Internal::device_copy"* %agg.result to i8*
  tail call void @llvm.memset.p0i8.i32(i8* nonnull align 8 dereferenceable(416) %47, i8 0, i32 416, i1 false)
  br label %cleanup

if.end:                                           ; preds = %lor.lhs.false
  %cmp45 = icmp eq i32 %div.i, 0
  br i1 %cmp45, label %if.then46, label %for.cond49.preheader

for.cond49.preheader:                             ; preds = %if.end
  br i1 %cmp15248, label %for.body53.lr.ph, label %while.end

for.body53.lr.ph:                                 ; preds = %for.cond49.preheader
  %dim55 = getelementptr inbounds %struct.halide_buffer_t, %struct.halide_buffer_t* %dst, i32 0, i32 6
  %48 = load %struct.halide_dimension_t*, %struct.halide_dimension_t** %dim55, align 8, !tbaa !46
  %dim64 = getelementptr inbounds %struct.halide_buffer_t, %struct.halide_buffer_t* %src, i32 0, i32 6
  %49 = load %struct.halide_dimension_t*, %struct.halide_dimension_t** %dim64, align 8, !tbaa !46
  br label %for.body53

if.then46:                                        ; preds = %if.end
  %50 = bitcast %"struct.Halide::Runtime::Internal::device_copy"* %agg.result to i8*
  tail call void @llvm.memset.p0i8.i32(i8* nonnull align 8 dereferenceable(416) %50, i8 0, i32 416, i1 false)
  br label %cleanup

while.cond.preheader:                             ; preds = %for.cond.cleanup86
  %.pre = load i64, i64* %chunk_size, align 8, !tbaa !60
  %.pre253 = load i64, i64* %arrayidx11, align 8, !tbaa !26
  %cmp121239 = icmp eq i64 %.pre, %.pre253
  br i1 %cmp121239, label %land.rhs.lr.ph, label %while.end

land.rhs.lr.ph:                                   ; preds = %while.cond.preheader
  %.pre254 = load i64, i64* %arrayidx12, align 8, !tbaa !26
  br label %land.rhs

for.body53:                                       ; preds = %for.cond.cleanup86, %for.body53.lr.ph
  %i48.0246 = phi i32 [ 0, %for.body53.lr.ph ], [ %inc116, %for.cond.cleanup86 ]
  %stride57 = getelementptr inbounds %struct.halide_dimension_t, %struct.halide_dimension_t* %48, i32 %i48.0246, i32 2
  %51 = load i32, i32* %stride57, align 4, !tbaa !50
  %conv58 = sext i32 %51 to i64
  %mul62 = mul nsw i64 %conv58, %conv
  %stride66 = getelementptr inbounds %struct.halide_dimension_t, %struct.halide_dimension_t* %49, i32 %i48.0246, i32 2
  %52 = load i32, i32* %stride66, align 4, !tbaa !50
  %conv67 = sext i32 %52 to i64
  %mul71 = mul nsw i64 %conv67, %conv
  %cmp73240.not = icmp eq i32 %i48.0246, 0
  br i1 %cmp73240.not, label %for.end83, label %for.body74.lr.ph

for.body74.lr.ph:                                 ; preds = %for.body53
  %cmp78.not = icmp eq i64 %mul62, 0
  br i1 %cmp78.not, label %for.end83, label %for.body74.us

for.body74.us:                                    ; preds = %for.body74.lr.ph, %for.inc81.us
  %insert.0241.us = phi i32 [ %inc82.us, %for.inc81.us ], [ 0, %for.body74.lr.ph ]
  %arrayidx76.us = getelementptr inbounds %"struct.Halide::Runtime::Internal::device_copy", %"struct.Halide::Runtime::Internal::device_copy"* %c, i32 0, i32 5, i32 %insert.0241.us
  %53 = load i64, i64* %arrayidx76.us, align 8, !tbaa !26
  %cmp77.us = icmp ult i64 %mul62, %53
  br i1 %cmp77.us, label %for.end83, label %for.inc81.us

for.inc81.us:                                     ; preds = %for.body74.us
  %inc82.us = add nuw nsw i32 %insert.0241.us, 1
  %exitcond2.not = icmp eq i32 %inc82.us, %i48.0246
  br i1 %exitcond2.not, label %for.end83, label %for.body74.us, !llvm.loop !65

for.end83:                                        ; preds = %for.inc81.us, %for.body74.us, %for.body74.lr.ph, %for.body53
  %insert.0.lcssa = phi i32 [ 0, %for.body53 ], [ %i48.0246, %for.body74.lr.ph ], [ %i48.0246, %for.inc81.us ], [ %insert.0241.us, %for.body74.us ]
  %cmp85243 = icmp ugt i32 %i48.0246, %insert.0.lcssa
  br i1 %cmp85243, label %for.body87.preheader, label %for.cond.cleanup86

for.body87.preheader:                             ; preds = %for.end83
  %54 = sub i32 %i48.0246, %insert.0.lcssa
  %55 = xor i32 %insert.0.lcssa, -1
  %56 = add i32 %i48.0246, %55
  %xtraiter5 = and i32 %54, 7
  %lcmp.mod6.not = icmp eq i32 %xtraiter5, 0
  br i1 %lcmp.mod6.not, label %for.body87.prol.loopexit, label %for.body87.prol

for.body87.prol:                                  ; preds = %for.body87.preheader, %for.body87.prol
  %j.0244.prol = phi i32 [ %sub89.prol, %for.body87.prol ], [ %i48.0246, %for.body87.preheader ]
  %prol.iter = phi i32 [ %prol.iter.sub, %for.body87.prol ], [ %xtraiter5, %for.body87.preheader ]
  %sub89.prol = add nsw i32 %j.0244.prol, -1
  %arrayidx90.prol = getelementptr inbounds %"struct.Halide::Runtime::Internal::device_copy", %"struct.Halide::Runtime::Internal::device_copy"* %c, i32 0, i32 3, i32 %sub89.prol
  %57 = load i64, i64* %arrayidx90.prol, align 8, !tbaa !26
  %arrayidx92.prol = getelementptr inbounds %"struct.Halide::Runtime::Internal::device_copy", %"struct.Halide::Runtime::Internal::device_copy"* %c, i32 0, i32 3, i32 %j.0244.prol
  store i64 %57, i64* %arrayidx92.prol, align 8, !tbaa !26
  %arrayidx95.prol = getelementptr inbounds %"struct.Halide::Runtime::Internal::device_copy", %"struct.Halide::Runtime::Internal::device_copy"* %c, i32 0, i32 5, i32 %sub89.prol
  %58 = load i64, i64* %arrayidx95.prol, align 8, !tbaa !26
  %arrayidx97.prol = getelementptr inbounds %"struct.Halide::Runtime::Internal::device_copy", %"struct.Halide::Runtime::Internal::device_copy"* %c, i32 0, i32 5, i32 %j.0244.prol
  store i64 %58, i64* %arrayidx97.prol, align 8, !tbaa !26
  %arrayidx100.prol = getelementptr inbounds %"struct.Halide::Runtime::Internal::device_copy", %"struct.Halide::Runtime::Internal::device_copy"* %c, i32 0, i32 4, i32 %sub89.prol
  %59 = load i64, i64* %arrayidx100.prol, align 8, !tbaa !26
  %arrayidx102.prol = getelementptr inbounds %"struct.Halide::Runtime::Internal::device_copy", %"struct.Halide::Runtime::Internal::device_copy"* %c, i32 0, i32 4, i32 %j.0244.prol
  store i64 %59, i64* %arrayidx102.prol, align 8, !tbaa !26
  %prol.iter.sub = add i32 %prol.iter, -1
  %prol.iter.cmp.not = icmp eq i32 %prol.iter.sub, 0
  br i1 %prol.iter.cmp.not, label %for.body87.prol.loopexit, label %for.body87.prol, !llvm.loop !66

for.body87.prol.loopexit:                         ; preds = %for.body87.prol, %for.body87.preheader
  %j.0244.unr = phi i32 [ %i48.0246, %for.body87.preheader ], [ %sub89.prol, %for.body87.prol ]
  %60 = icmp ult i32 %56, 7
  br i1 %60, label %for.cond.cleanup86, label %for.body87

for.cond.cleanup86:                               ; preds = %for.body87.prol.loopexit, %for.body87, %for.end83
  %extent107 = getelementptr inbounds %struct.halide_dimension_t, %struct.halide_dimension_t* %48, i32 %i48.0246, i32 1
  %61 = load i32, i32* %extent107, align 4, !tbaa !49
  %conv108 = sext i32 %61 to i64
  %arrayidx110 = getelementptr inbounds %"struct.Halide::Runtime::Internal::device_copy", %"struct.Halide::Runtime::Internal::device_copy"* %c, i32 0, i32 3, i32 %insert.0.lcssa
  store i64 %conv108, i64* %arrayidx110, align 8, !tbaa !26
  %arrayidx112 = getelementptr inbounds %"struct.Halide::Runtime::Internal::device_copy", %"struct.Halide::Runtime::Internal::device_copy"* %c, i32 0, i32 5, i32 %insert.0.lcssa
  store i64 %mul62, i64* %arrayidx112, align 8, !tbaa !26
  %arrayidx114 = getelementptr inbounds %"struct.Halide::Runtime::Internal::device_copy", %"struct.Halide::Runtime::Internal::device_copy"* %c, i32 0, i32 4, i32 %insert.0.lcssa
  store i64 %mul71, i64* %arrayidx114, align 8, !tbaa !26
  %inc116 = add nuw nsw i32 %i48.0246, 1
  %exitcond3.not = icmp eq i32 %inc116, %10
  br i1 %exitcond3.not, label %while.cond.preheader, label %for.body53, !llvm.loop !67

for.body87:                                       ; preds = %for.body87.prol.loopexit, %for.body87
  %j.0244 = phi i32 [ %sub89.7, %for.body87 ], [ %j.0244.unr, %for.body87.prol.loopexit ]
  %sub89 = add nsw i32 %j.0244, -1
  %arrayidx90 = getelementptr inbounds %"struct.Halide::Runtime::Internal::device_copy", %"struct.Halide::Runtime::Internal::device_copy"* %c, i32 0, i32 3, i32 %sub89
  %62 = load i64, i64* %arrayidx90, align 8, !tbaa !26
  %arrayidx92 = getelementptr inbounds %"struct.Halide::Runtime::Internal::device_copy", %"struct.Halide::Runtime::Internal::device_copy"* %c, i32 0, i32 3, i32 %j.0244
  store i64 %62, i64* %arrayidx92, align 8, !tbaa !26
  %arrayidx95 = getelementptr inbounds %"struct.Halide::Runtime::Internal::device_copy", %"struct.Halide::Runtime::Internal::device_copy"* %c, i32 0, i32 5, i32 %sub89
  %63 = load i64, i64* %arrayidx95, align 8, !tbaa !26
  %arrayidx97 = getelementptr inbounds %"struct.Halide::Runtime::Internal::device_copy", %"struct.Halide::Runtime::Internal::device_copy"* %c, i32 0, i32 5, i32 %j.0244
  store i64 %63, i64* %arrayidx97, align 8, !tbaa !26
  %arrayidx100 = getelementptr inbounds %"struct.Halide::Runtime::Internal::device_copy", %"struct.Halide::Runtime::Internal::device_copy"* %c, i32 0, i32 4, i32 %sub89
  %64 = load i64, i64* %arrayidx100, align 8, !tbaa !26
  %arrayidx102 = getelementptr inbounds %"struct.Halide::Runtime::Internal::device_copy", %"struct.Halide::Runtime::Internal::device_copy"* %c, i32 0, i32 4, i32 %j.0244
  store i64 %64, i64* %arrayidx102, align 8, !tbaa !26
  %sub89.1 = add nsw i32 %j.0244, -2
  %arrayidx90.1 = getelementptr inbounds %"struct.Halide::Runtime::Internal::device_copy", %"struct.Halide::Runtime::Internal::device_copy"* %c, i32 0, i32 3, i32 %sub89.1
  %65 = load i64, i64* %arrayidx90.1, align 8, !tbaa !26
  %arrayidx92.1 = getelementptr inbounds %"struct.Halide::Runtime::Internal::device_copy", %"struct.Halide::Runtime::Internal::device_copy"* %c, i32 0, i32 3, i32 %sub89
  store i64 %65, i64* %arrayidx92.1, align 8, !tbaa !26
  %arrayidx95.1 = getelementptr inbounds %"struct.Halide::Runtime::Internal::device_copy", %"struct.Halide::Runtime::Internal::device_copy"* %c, i32 0, i32 5, i32 %sub89.1
  %66 = load i64, i64* %arrayidx95.1, align 8, !tbaa !26
  %arrayidx97.1 = getelementptr inbounds %"struct.Halide::Runtime::Internal::device_copy", %"struct.Halide::Runtime::Internal::device_copy"* %c, i32 0, i32 5, i32 %sub89
  store i64 %66, i64* %arrayidx97.1, align 8, !tbaa !26
  %arrayidx100.1 = getelementptr inbounds %"struct.Halide::Runtime::Internal::device_copy", %"struct.Halide::Runtime::Internal::device_copy"* %c, i32 0, i32 4, i32 %sub89.1
  %67 = load i64, i64* %arrayidx100.1, align 8, !tbaa !26
  %arrayidx102.1 = getelementptr inbounds %"struct.Halide::Runtime::Internal::device_copy", %"struct.Halide::Runtime::Internal::device_copy"* %c, i32 0, i32 4, i32 %sub89
  store i64 %67, i64* %arrayidx102.1, align 8, !tbaa !26
  %sub89.2 = add nsw i32 %j.0244, -3
  %arrayidx90.2 = getelementptr inbounds %"struct.Halide::Runtime::Internal::device_copy", %"struct.Halide::Runtime::Internal::device_copy"* %c, i32 0, i32 3, i32 %sub89.2
  %68 = load i64, i64* %arrayidx90.2, align 8, !tbaa !26
  %arrayidx92.2 = getelementptr inbounds %"struct.Halide::Runtime::Internal::device_copy", %"struct.Halide::Runtime::Internal::device_copy"* %c, i32 0, i32 3, i32 %sub89.1
  store i64 %68, i64* %arrayidx92.2, align 8, !tbaa !26
  %arrayidx95.2 = getelementptr inbounds %"struct.Halide::Runtime::Internal::device_copy", %"struct.Halide::Runtime::Internal::device_copy"* %c, i32 0, i32 5, i32 %sub89.2
  %69 = load i64, i64* %arrayidx95.2, align 8, !tbaa !26
  %arrayidx97.2 = getelementptr inbounds %"struct.Halide::Runtime::Internal::device_copy", %"struct.Halide::Runtime::Internal::device_copy"* %c, i32 0, i32 5, i32 %sub89.1
  store i64 %69, i64* %arrayidx97.2, align 8, !tbaa !26
  %arrayidx100.2 = getelementptr inbounds %"struct.Halide::Runtime::Internal::device_copy", %"struct.Halide::Runtime::Internal::device_copy"* %c, i32 0, i32 4, i32 %sub89.2
  %70 = load i64, i64* %arrayidx100.2, align 8, !tbaa !26
  %arrayidx102.2 = getelementptr inbounds %"struct.Halide::Runtime::Internal::device_copy", %"struct.Halide::Runtime::Internal::device_copy"* %c, i32 0, i32 4, i32 %sub89.1
  store i64 %70, i64* %arrayidx102.2, align 8, !tbaa !26
  %sub89.3 = add nsw i32 %j.0244, -4
  %arrayidx90.3 = getelementptr inbounds %"struct.Halide::Runtime::Internal::device_copy", %"struct.Halide::Runtime::Internal::device_copy"* %c, i32 0, i32 3, i32 %sub89.3
  %71 = load i64, i64* %arrayidx90.3, align 8, !tbaa !26
  %arrayidx92.3 = getelementptr inbounds %"struct.Halide::Runtime::Internal::device_copy", %"struct.Halide::Runtime::Internal::device_copy"* %c, i32 0, i32 3, i32 %sub89.2
  store i64 %71, i64* %arrayidx92.3, align 8, !tbaa !26
  %arrayidx95.3 = getelementptr inbounds %"struct.Halide::Runtime::Internal::device_copy", %"struct.Halide::Runtime::Internal::device_copy"* %c, i32 0, i32 5, i32 %sub89.3
  %72 = load i64, i64* %arrayidx95.3, align 8, !tbaa !26
  %arrayidx97.3 = getelementptr inbounds %"struct.Halide::Runtime::Internal::device_copy", %"struct.Halide::Runtime::Internal::device_copy"* %c, i32 0, i32 5, i32 %sub89.2
  store i64 %72, i64* %arrayidx97.3, align 8, !tbaa !26
  %arrayidx100.3 = getelementptr inbounds %"struct.Halide::Runtime::Internal::device_copy", %"struct.Halide::Runtime::Internal::device_copy"* %c, i32 0, i32 4, i32 %sub89.3
  %73 = load i64, i64* %arrayidx100.3, align 8, !tbaa !26
  %arrayidx102.3 = getelementptr inbounds %"struct.Halide::Runtime::Internal::device_copy", %"struct.Halide::Runtime::Internal::device_copy"* %c, i32 0, i32 4, i32 %sub89.2
  store i64 %73, i64* %arrayidx102.3, align 8, !tbaa !26
  %sub89.4 = add nsw i32 %j.0244, -5
  %arrayidx90.4 = getelementptr inbounds %"struct.Halide::Runtime::Internal::device_copy", %"struct.Halide::Runtime::Internal::device_copy"* %c, i32 0, i32 3, i32 %sub89.4
  %74 = load i64, i64* %arrayidx90.4, align 8, !tbaa !26
  %arrayidx92.4 = getelementptr inbounds %"struct.Halide::Runtime::Internal::device_copy", %"struct.Halide::Runtime::Internal::device_copy"* %c, i32 0, i32 3, i32 %sub89.3
  store i64 %74, i64* %arrayidx92.4, align 8, !tbaa !26
  %arrayidx95.4 = getelementptr inbounds %"struct.Halide::Runtime::Internal::device_copy", %"struct.Halide::Runtime::Internal::device_copy"* %c, i32 0, i32 5, i32 %sub89.4
  %75 = load i64, i64* %arrayidx95.4, align 8, !tbaa !26
  %arrayidx97.4 = getelementptr inbounds %"struct.Halide::Runtime::Internal::device_copy", %"struct.Halide::Runtime::Internal::device_copy"* %c, i32 0, i32 5, i32 %sub89.3
  store i64 %75, i64* %arrayidx97.4, align 8, !tbaa !26
  %arrayidx100.4 = getelementptr inbounds %"struct.Halide::Runtime::Internal::device_copy", %"struct.Halide::Runtime::Internal::device_copy"* %c, i32 0, i32 4, i32 %sub89.4
  %76 = load i64, i64* %arrayidx100.4, align 8, !tbaa !26
  %arrayidx102.4 = getelementptr inbounds %"struct.Halide::Runtime::Internal::device_copy", %"struct.Halide::Runtime::Internal::device_copy"* %c, i32 0, i32 4, i32 %sub89.3
  store i64 %76, i64* %arrayidx102.4, align 8, !tbaa !26
  %sub89.5 = add nsw i32 %j.0244, -6
  %arrayidx90.5 = getelementptr inbounds %"struct.Halide::Runtime::Internal::device_copy", %"struct.Halide::Runtime::Internal::device_copy"* %c, i32 0, i32 3, i32 %sub89.5
  %77 = load i64, i64* %arrayidx90.5, align 8, !tbaa !26
  %arrayidx92.5 = getelementptr inbounds %"struct.Halide::Runtime::Internal::device_copy", %"struct.Halide::Runtime::Internal::device_copy"* %c, i32 0, i32 3, i32 %sub89.4
  store i64 %77, i64* %arrayidx92.5, align 8, !tbaa !26
  %arrayidx95.5 = getelementptr inbounds %"struct.Halide::Runtime::Internal::device_copy", %"struct.Halide::Runtime::Internal::device_copy"* %c, i32 0, i32 5, i32 %sub89.5
  %78 = load i64, i64* %arrayidx95.5, align 8, !tbaa !26
  %arrayidx97.5 = getelementptr inbounds %"struct.Halide::Runtime::Internal::device_copy", %"struct.Halide::Runtime::Internal::device_copy"* %c, i32 0, i32 5, i32 %sub89.4
  store i64 %78, i64* %arrayidx97.5, align 8, !tbaa !26
  %arrayidx100.5 = getelementptr inbounds %"struct.Halide::Runtime::Internal::device_copy", %"struct.Halide::Runtime::Internal::device_copy"* %c, i32 0, i32 4, i32 %sub89.5
  %79 = load i64, i64* %arrayidx100.5, align 8, !tbaa !26
  %arrayidx102.5 = getelementptr inbounds %"struct.Halide::Runtime::Internal::device_copy", %"struct.Halide::Runtime::Internal::device_copy"* %c, i32 0, i32 4, i32 %sub89.4
  store i64 %79, i64* %arrayidx102.5, align 8, !tbaa !26
  %sub89.6 = add nsw i32 %j.0244, -7
  %arrayidx90.6 = getelementptr inbounds %"struct.Halide::Runtime::Internal::device_copy", %"struct.Halide::Runtime::Internal::device_copy"* %c, i32 0, i32 3, i32 %sub89.6
  %80 = load i64, i64* %arrayidx90.6, align 8, !tbaa !26
  %arrayidx92.6 = getelementptr inbounds %"struct.Halide::Runtime::Internal::device_copy", %"struct.Halide::Runtime::Internal::device_copy"* %c, i32 0, i32 3, i32 %sub89.5
  store i64 %80, i64* %arrayidx92.6, align 8, !tbaa !26
  %arrayidx95.6 = getelementptr inbounds %"struct.Halide::Runtime::Internal::device_copy", %"struct.Halide::Runtime::Internal::device_copy"* %c, i32 0, i32 5, i32 %sub89.6
  %81 = load i64, i64* %arrayidx95.6, align 8, !tbaa !26
  %arrayidx97.6 = getelementptr inbounds %"struct.Halide::Runtime::Internal::device_copy", %"struct.Halide::Runtime::Internal::device_copy"* %c, i32 0, i32 5, i32 %sub89.5
  store i64 %81, i64* %arrayidx97.6, align 8, !tbaa !26
  %arrayidx100.6 = getelementptr inbounds %"struct.Halide::Runtime::Internal::device_copy", %"struct.Halide::Runtime::Internal::device_copy"* %c, i32 0, i32 4, i32 %sub89.6
  %82 = load i64, i64* %arrayidx100.6, align 8, !tbaa !26
  %arrayidx102.6 = getelementptr inbounds %"struct.Halide::Runtime::Internal::device_copy", %"struct.Halide::Runtime::Internal::device_copy"* %c, i32 0, i32 4, i32 %sub89.5
  store i64 %82, i64* %arrayidx102.6, align 8, !tbaa !26
  %sub89.7 = add nsw i32 %j.0244, -8
  %arrayidx90.7 = getelementptr inbounds %"struct.Halide::Runtime::Internal::device_copy", %"struct.Halide::Runtime::Internal::device_copy"* %c, i32 0, i32 3, i32 %sub89.7
  %83 = load i64, i64* %arrayidx90.7, align 8, !tbaa !26
  %arrayidx92.7 = getelementptr inbounds %"struct.Halide::Runtime::Internal::device_copy", %"struct.Halide::Runtime::Internal::device_copy"* %c, i32 0, i32 3, i32 %sub89.6
  store i64 %83, i64* %arrayidx92.7, align 8, !tbaa !26
  %arrayidx95.7 = getelementptr inbounds %"struct.Halide::Runtime::Internal::device_copy", %"struct.Halide::Runtime::Internal::device_copy"* %c, i32 0, i32 5, i32 %sub89.7
  %84 = load i64, i64* %arrayidx95.7, align 8, !tbaa !26
  %arrayidx97.7 = getelementptr inbounds %"struct.Halide::Runtime::Internal::device_copy", %"struct.Halide::Runtime::Internal::device_copy"* %c, i32 0, i32 5, i32 %sub89.6
  store i64 %84, i64* %arrayidx97.7, align 8, !tbaa !26
  %arrayidx100.7 = getelementptr inbounds %"struct.Halide::Runtime::Internal::device_copy", %"struct.Halide::Runtime::Internal::device_copy"* %c, i32 0, i32 4, i32 %sub89.7
  %85 = load i64, i64* %arrayidx100.7, align 8, !tbaa !26
  %arrayidx102.7 = getelementptr inbounds %"struct.Halide::Runtime::Internal::device_copy", %"struct.Halide::Runtime::Internal::device_copy"* %c, i32 0, i32 4, i32 %sub89.6
  store i64 %85, i64* %arrayidx102.7, align 8, !tbaa !26
  %cmp85.7 = icmp sgt i32 %sub89.7, %insert.0.lcssa
  br i1 %cmp85.7, label %for.body87, label %for.cond.cleanup86, !llvm.loop !68

land.rhs:                                         ; preds = %while.body, %land.rhs.lr.ph
  %86 = phi i64 [ %.pre254, %land.rhs.lr.ph ], [ %91, %while.body ]
  %87 = phi i64 [ %.pre, %land.rhs.lr.ph ], [ %mul129, %while.body ]
  %cmp125 = icmp eq i64 %87, %86
  br i1 %cmp125, label %while.body, label %while.end

while.body:                                       ; preds = %land.rhs
  %88 = load i64, i64* %arrayidx, align 8, !tbaa !26
  %mul129 = mul i64 %88, %86
  store i64 %mul129, i64* %chunk_size, align 8, !tbaa !60
  %89 = load i64, i64* %arrayidx.1, align 8, !tbaa !26
  store i64 %89, i64* %arrayidx, align 8, !tbaa !26
  %90 = load i64, i64* %arrayidx11.1, align 8, !tbaa !26
  store i64 %90, i64* %arrayidx11, align 8, !tbaa !26
  %91 = load i64, i64* %arrayidx12.1, align 8, !tbaa !26
  store i64 %91, i64* %arrayidx12, align 8, !tbaa !26
  %92 = load i64, i64* %arrayidx.2, align 8, !tbaa !26
  store i64 %92, i64* %arrayidx.1, align 8, !tbaa !26
  %93 = load i64, i64* %arrayidx11.2, align 8, !tbaa !26
  store i64 %93, i64* %arrayidx11.1, align 8, !tbaa !26
  %94 = load i64, i64* %arrayidx12.2, align 8, !tbaa !26
  store i64 %94, i64* %arrayidx12.1, align 8, !tbaa !26
  %95 = load i64, i64* %arrayidx.3, align 8, !tbaa !26
  store i64 %95, i64* %arrayidx.2, align 8, !tbaa !26
  %96 = load i64, i64* %arrayidx11.3, align 8, !tbaa !26
  store i64 %96, i64* %arrayidx11.2, align 8, !tbaa !26
  %97 = load i64, i64* %arrayidx12.3, align 8, !tbaa !26
  store i64 %97, i64* %arrayidx12.2, align 8, !tbaa !26
  %98 = load i64, i64* %arrayidx.4, align 8, !tbaa !26
  store i64 %98, i64* %arrayidx.3, align 8, !tbaa !26
  %99 = load i64, i64* %arrayidx11.4, align 8, !tbaa !26
  store i64 %99, i64* %arrayidx11.3, align 8, !tbaa !26
  %100 = load i64, i64* %arrayidx12.4, align 8, !tbaa !26
  store i64 %100, i64* %arrayidx12.3, align 8, !tbaa !26
  %101 = load i64, i64* %arrayidx.5, align 8, !tbaa !26
  store i64 %101, i64* %arrayidx.4, align 8, !tbaa !26
  %102 = load i64, i64* %arrayidx11.5, align 8, !tbaa !26
  store i64 %102, i64* %arrayidx11.4, align 8, !tbaa !26
  %103 = load i64, i64* %arrayidx12.5, align 8, !tbaa !26
  store i64 %103, i64* %arrayidx12.4, align 8, !tbaa !26
  %104 = load i64, i64* %arrayidx.6, align 8, !tbaa !26
  store i64 %104, i64* %arrayidx.5, align 8, !tbaa !26
  %105 = load i64, i64* %arrayidx11.6, align 8, !tbaa !26
  store i64 %105, i64* %arrayidx11.5, align 8, !tbaa !26
  %106 = load i64, i64* %arrayidx12.6, align 8, !tbaa !26
  store i64 %106, i64* %arrayidx12.5, align 8, !tbaa !26
  %107 = load i64, i64* %arrayidx.7, align 8, !tbaa !26
  store i64 %107, i64* %arrayidx.6, align 8, !tbaa !26
  %108 = load i64, i64* %arrayidx11.7, align 8, !tbaa !26
  store i64 %108, i64* %arrayidx11.6, align 8, !tbaa !26
  %109 = load i64, i64* %arrayidx12.7, align 8, !tbaa !26
  store i64 %109, i64* %arrayidx12.6, align 8, !tbaa !26
  %110 = load i64, i64* %arrayidx.8, align 8, !tbaa !26
  store i64 %110, i64* %arrayidx.7, align 8, !tbaa !26
  %111 = load i64, i64* %arrayidx11.8, align 8, !tbaa !26
  store i64 %111, i64* %arrayidx11.7, align 8, !tbaa !26
  %112 = load i64, i64* %arrayidx12.8, align 8, !tbaa !26
  store i64 %112, i64* %arrayidx12.7, align 8, !tbaa !26
  %113 = load i64, i64* %arrayidx.9, align 8, !tbaa !26
  store i64 %113, i64* %arrayidx.8, align 8, !tbaa !26
  %114 = load i64, i64* %arrayidx11.9, align 8, !tbaa !26
  store i64 %114, i64* %arrayidx11.8, align 8, !tbaa !26
  %115 = load i64, i64* %arrayidx12.9, align 8, !tbaa !26
  store i64 %115, i64* %arrayidx12.8, align 8, !tbaa !26
  %116 = load i64, i64* %arrayidx.10, align 8, !tbaa !26
  store i64 %116, i64* %arrayidx.9, align 8, !tbaa !26
  %117 = load i64, i64* %arrayidx11.10, align 8, !tbaa !26
  store i64 %117, i64* %arrayidx11.9, align 8, !tbaa !26
  %118 = load i64, i64* %arrayidx12.10, align 8, !tbaa !26
  store i64 %118, i64* %arrayidx12.9, align 8, !tbaa !26
  %119 = load i64, i64* %arrayidx.11, align 8, !tbaa !26
  store i64 %119, i64* %arrayidx.10, align 8, !tbaa !26
  %120 = load i64, i64* %arrayidx11.11, align 8, !tbaa !26
  store i64 %120, i64* %arrayidx11.10, align 8, !tbaa !26
  %121 = load i64, i64* %arrayidx12.11, align 8, !tbaa !26
  store i64 %121, i64* %arrayidx12.10, align 8, !tbaa !26
  %122 = load i64, i64* %arrayidx.12, align 8, !tbaa !26
  store i64 %122, i64* %arrayidx.11, align 8, !tbaa !26
  %123 = load i64, i64* %arrayidx11.12, align 8, !tbaa !26
  store i64 %123, i64* %arrayidx11.11, align 8, !tbaa !26
  %124 = load i64, i64* %arrayidx12.12, align 8, !tbaa !26
  store i64 %124, i64* %arrayidx12.11, align 8, !tbaa !26
  %125 = load i64, i64* %arrayidx.13, align 8, !tbaa !26
  store i64 %125, i64* %arrayidx.12, align 8, !tbaa !26
  %126 = load i64, i64* %arrayidx11.13, align 8, !tbaa !26
  store i64 %126, i64* %arrayidx11.12, align 8, !tbaa !26
  %127 = load i64, i64* %arrayidx12.13, align 8, !tbaa !26
  store i64 %127, i64* %arrayidx12.12, align 8, !tbaa !26
  %128 = load i64, i64* %arrayidx.14, align 8, !tbaa !26
  store i64 %128, i64* %arrayidx.13, align 8, !tbaa !26
  %129 = load i64, i64* %arrayidx11.14, align 8, !tbaa !26
  store i64 %129, i64* %arrayidx11.13, align 8, !tbaa !26
  %130 = load i64, i64* %arrayidx12.14, align 8, !tbaa !26
  store i64 %130, i64* %arrayidx12.13, align 8, !tbaa !26
  %131 = load i64, i64* %arrayidx.15, align 8, !tbaa !26
  store i64 %131, i64* %arrayidx.14, align 8, !tbaa !26
  %132 = load i64, i64* %arrayidx11.15, align 8, !tbaa !26
  store i64 %132, i64* %arrayidx11.14, align 8, !tbaa !26
  %133 = load i64, i64* %arrayidx12.15, align 8, !tbaa !26
  store i64 %133, i64* %arrayidx12.14, align 8, !tbaa !26
  store i64 1, i64* %arrayidx.15, align 8, !tbaa !26
  store i64 0, i64* %arrayidx11.15, align 8, !tbaa !26
  store i64 0, i64* %arrayidx12.15, align 8, !tbaa !26
  %cmp121 = icmp eq i64 %mul129, %90
  br i1 %cmp121, label %land.rhs, label %while.end, !llvm.loop !69

while.end:                                        ; preds = %while.body, %land.rhs, %while.cond.preheader, %for.cond49.preheader
  %134 = bitcast %"struct.Halide::Runtime::Internal::device_copy"* %agg.result to i8*
  call void @llvm.memcpy.p0i8.p0i8.i32(i8* nonnull align 8 dereferenceable(416) %134, i8* nonnull align 8 dereferenceable(416) %0, i32 416, i1 false), !tbaa.struct !70
  br label %cleanup

cleanup:                                          ; preds = %while.end, %if.then46, %if.then
  call void @llvm.lifetime.end.p0i8(i64 416, i8* nonnull %0) #11
  ret void
}

; Function Attrs: nounwind mustprogress
define linkonce i32 @_ZN6Halide7Runtime8Internal27copy_to_host_already_lockedEPvP15halide_buffer_t(i8* %user_context, %struct.halide_buffer_t* %buf) local_unnamed_addr #0 {
entry:
  %flags.i.i = getelementptr inbounds %struct.halide_buffer_t, %struct.halide_buffer_t* %buf, i32 0, i32 3
  %0 = load i64, i64* %flags.i.i, align 8, !tbaa !44
  %and.i.i = and i64 %0, 2
  %cmp.i.i.not = icmp eq i64 %and.i.i, 0
  br i1 %cmp.i.i.not, label %return, label %if.end

if.end:                                           ; preds = %entry
  %device_interface = getelementptr inbounds %struct.halide_buffer_t, %struct.halide_buffer_t* %buf, i32 0, i32 1
  %1 = load %struct.halide_device_interface_t*, %struct.halide_device_interface_t** %device_interface, align 8, !tbaa !42
  %and.i.i46 = and i64 %0, 1
  %cmp.i.i47.not = icmp eq i64 %and.i.i46, 0
  br i1 %cmp.i.i47.not, label %if.end9, label %return

if.end9:                                          ; preds = %if.end
  %cmp = icmp eq %struct.halide_device_interface_t* %1, null
  br i1 %cmp, label %return, label %if.end15

if.end15:                                         ; preds = %if.end9
  %impl = getelementptr inbounds %struct.halide_device_interface_t, %struct.halide_device_interface_t* %1, i32 0, i32 15
  %2 = load %struct.halide_device_interface_impl_t*, %struct.halide_device_interface_impl_t** %impl, align 4, !tbaa !71
  %copy_to_host = getelementptr inbounds %struct.halide_device_interface_impl_t, %struct.halide_device_interface_impl_t* %2, i32 0, i32 6
  %3 = load i32 (i8*, %struct.halide_buffer_t*)*, i32 (i8*, %struct.halide_buffer_t*)** %copy_to_host, align 4, !tbaa !73
  %call16 = tail call i32 %3(i8* %user_context, %struct.halide_buffer_t* nonnull %buf) #14
  %cmp17.not = icmp eq i32 %call16, 0
  br i1 %cmp17.not, label %if.end23, label %return

if.end23:                                         ; preds = %if.end15
  %4 = load i64, i64* %flags.i.i, align 8, !tbaa !44
  %and.i.i44 = and i64 %4, -3
  store i64 %and.i.i44, i64* %flags.i.i, align 8, !tbaa !44
  %call24 = tail call i32 @halide_msan_annotate_buffer_is_initialized(i8* %user_context, %struct.halide_buffer_t* nonnull %buf) #14
  br label %return

return:                                           ; preds = %if.end23, %if.end15, %if.end9, %if.end, %entry
  %retval.2 = phi i32 [ 0, %entry ], [ 0, %if.end23 ], [ -14, %if.end ], [ -19, %if.end9 ], [ -14, %if.end15 ]
  ret i32 %retval.2
}

; Function Attrs: nounwind mustprogress
define weak void @halide_device_release(i8* %user_context, %struct.halide_device_interface_t* %device_interface) local_unnamed_addr #0 {
entry:
  %impl = getelementptr inbounds %struct.halide_device_interface_t, %struct.halide_device_interface_t* %device_interface, i32 0, i32 15
  %0 = load %struct.halide_device_interface_impl_t*, %struct.halide_device_interface_impl_t** %impl, align 4, !tbaa !71
  %device_release = getelementptr inbounds %struct.halide_device_interface_impl_t, %struct.halide_device_interface_impl_t* %0, i32 0, i32 5
  %1 = load i32 (i8*)*, i32 (i8*)** %device_release, align 4, !tbaa !75
  %call = tail call i32 %1(i8* %user_context) #14
  ret void
}

; Function Attrs: nounwind
define weak i32 @halide_copy_to_host(i8* %user_context, %struct.halide_buffer_t* %buf) local_unnamed_addr #4 {
entry:
  tail call void @halide_mutex_lock(%struct.halide_mutex* nonnull @_ZN6Halide7Runtime8Internal17device_copy_mutexE) #14
  %cmp.i = icmp eq %struct.halide_buffer_t* %buf, null
  br i1 %cmp.i, label %if.then.i, label %if.end.i

if.then.i:                                        ; preds = %entry
  %call.i = tail call i32 @halide_error_buffer_is_null(i8* %user_context, i8* getelementptr inbounds ([20 x i8], [20 x i8]* @.str.6.17, i32 0, i32 0)) #14
  br label %_ZN12_GLOBAL__N_126debug_log_and_validate_bufEPvPK15halide_buffer_tPKc.exit

if.end.i:                                         ; preds = %entry
  %device_interface.i = getelementptr inbounds %struct.halide_buffer_t, %struct.halide_buffer_t* %buf, i32 0, i32 1
  %0 = load %struct.halide_device_interface_t*, %struct.halide_device_interface_t** %device_interface.i, align 8, !tbaa !42
  %cmp4.not.i = icmp eq %struct.halide_device_interface_t* %0, null
  %device.i = getelementptr inbounds %struct.halide_buffer_t, %struct.halide_buffer_t* %buf, i32 0, i32 0
  %1 = load i64, i64* %device.i, align 8, !tbaa !40
  %cmp5.not.i = icmp eq i64 %1, 0
  %cmp4.not.not.i = xor i1 %cmp4.not.i, true
  %brmerge.i = or i1 %cmp5.not.i, %cmp4.not.not.i
  br i1 %brmerge.i, label %if.end10.i, label %if.then8.i

if.then8.i:                                       ; preds = %if.end.i
  %call9.i = tail call i32 @halide_error_no_device_interface(i8* %user_context) #14
  br label %_ZN12_GLOBAL__N_126debug_log_and_validate_bufEPvPK15halide_buffer_tPKc.exit

if.end10.i:                                       ; preds = %if.end.i
  %cmp5.not.not.i = xor i1 %cmp5.not.i, true
  %brmerge44.i = or i1 %cmp4.not.i, %cmp5.not.not.i
  br i1 %brmerge44.i, label %if.end16.i, label %if.then14.i

if.then14.i:                                      ; preds = %if.end10.i
  %call15.i = tail call i32 @halide_error_device_interface_no_device(i8* %user_context) #14
  br label %_ZN12_GLOBAL__N_126debug_log_and_validate_bufEPvPK15halide_buffer_tPKc.exit

if.end16.i:                                       ; preds = %if.end10.i
  %flags.i.i46.i = getelementptr inbounds %struct.halide_buffer_t, %struct.halide_buffer_t* %buf, i32 0, i32 3
  %2 = load i64, i64* %flags.i.i46.i, align 8, !tbaa !44
  %3 = and i64 %2, 3
  %.not.i = icmp eq i64 %3, 3
  br i1 %.not.i, label %if.then24.i, label %if.end16.i.split

if.end16.i.split:                                 ; preds = %if.end16.i
  %call11 = tail call i32 @_ZN6Halide7Runtime8Internal27copy_to_host_already_lockedEPvP15halide_buffer_t(i8* %user_context, %struct.halide_buffer_t* nonnull %buf) #15
  br label %cleanup

if.then24.i:                                      ; preds = %if.end16.i
  %call25.i = tail call i32 @halide_error_host_and_device_dirty(i8* %user_context) #14
  br label %_ZN12_GLOBAL__N_126debug_log_and_validate_bufEPvPK15halide_buffer_tPKc.exit

_ZN12_GLOBAL__N_126debug_log_and_validate_bufEPvPK15halide_buffer_tPKc.exit: ; preds = %if.then24.i, %if.then14.i, %if.then8.i, %if.then.i
  %retval.2.i = phi i32 [ %call.i, %if.then.i ], [ %call15.i, %if.then14.i ], [ %call9.i, %if.then8.i ], [ %call25.i, %if.then24.i ]
  %cmp.not = icmp eq i32 %retval.2.i, 0
  br i1 %cmp.not, label %_ZN12_GLOBAL__N_126debug_log_and_validate_bufEPvPK15halide_buffer_tPKc.exit.split, label %cleanup

_ZN12_GLOBAL__N_126debug_log_and_validate_bufEPvPK15halide_buffer_tPKc.exit.split: ; preds = %_ZN12_GLOBAL__N_126debug_log_and_validate_bufEPvPK15halide_buffer_tPKc.exit
  %call12 = tail call i32 @_ZN6Halide7Runtime8Internal27copy_to_host_already_lockedEPvP15halide_buffer_t(i8* %user_context, %struct.halide_buffer_t* %buf) #15
  br label %cleanup

cleanup:                                          ; preds = %if.end16.i.split, %_ZN12_GLOBAL__N_126debug_log_and_validate_bufEPvPK15halide_buffer_tPKc.exit.split, %_ZN12_GLOBAL__N_126debug_log_and_validate_bufEPvPK15halide_buffer_tPKc.exit
  %retval.0 = phi i32 [ %retval.2.i, %_ZN12_GLOBAL__N_126debug_log_and_validate_bufEPvPK15halide_buffer_tPKc.exit ], [ %call11, %if.end16.i.split ], [ %call12, %_ZN12_GLOBAL__N_126debug_log_and_validate_bufEPvPK15halide_buffer_tPKc.exit.split ]
  tail call void @halide_mutex_unlock(%struct.halide_mutex* nonnull @_ZN6Halide7Runtime8Internal17device_copy_mutexE) #14
  ret i32 %retval.0
}

; Function Attrs: nounwind mustprogress
define linkonce i32 @copy_to_device_already_locked(i8* %user_context, %struct.halide_buffer_t* %buf, %struct.halide_device_interface_t* %device_interface) local_unnamed_addr #0 {
entry:
  %cmp.i = icmp eq %struct.halide_buffer_t* %buf, null
  br i1 %cmp.i, label %if.then.i, label %if.end.i

if.then.i:                                        ; preds = %entry
  %call.i = tail call i32 @halide_error_buffer_is_null(i8* %user_context, i8* getelementptr inbounds ([22 x i8], [22 x i8]* @.str.7.18, i32 0, i32 0)) #14
  br label %_ZN12_GLOBAL__N_126debug_log_and_validate_bufEPvPK15halide_buffer_tPKc.exit

if.end.i:                                         ; preds = %entry
  %device_interface.i = getelementptr inbounds %struct.halide_buffer_t, %struct.halide_buffer_t* %buf, i32 0, i32 1
  %0 = load %struct.halide_device_interface_t*, %struct.halide_device_interface_t** %device_interface.i, align 8, !tbaa !42
  %cmp4.not.i = icmp eq %struct.halide_device_interface_t* %0, null
  %device.i = getelementptr inbounds %struct.halide_buffer_t, %struct.halide_buffer_t* %buf, i32 0, i32 0
  %1 = load i64, i64* %device.i, align 8, !tbaa !40
  %cmp5.not.i = icmp eq i64 %1, 0
  %cmp4.not.not.i = xor i1 %cmp4.not.i, true
  %brmerge.i = or i1 %cmp5.not.i, %cmp4.not.not.i
  br i1 %brmerge.i, label %if.end10.i, label %if.then8.i

if.then8.i:                                       ; preds = %if.end.i
  %call9.i = tail call i32 @halide_error_no_device_interface(i8* %user_context) #14
  br label %_ZN12_GLOBAL__N_126debug_log_and_validate_bufEPvPK15halide_buffer_tPKc.exit

if.end10.i:                                       ; preds = %if.end.i
  %cmp5.not.not.i = xor i1 %cmp5.not.i, true
  %brmerge44.i = or i1 %cmp4.not.i, %cmp5.not.not.i
  br i1 %brmerge44.i, label %if.end16.i, label %if.then14.i

if.then14.i:                                      ; preds = %if.end10.i
  %call15.i = tail call i32 @halide_error_device_interface_no_device(i8* %user_context) #14
  br label %_ZN12_GLOBAL__N_126debug_log_and_validate_bufEPvPK15halide_buffer_tPKc.exit

if.end16.i:                                       ; preds = %if.end10.i
  %flags.i.i46.i = getelementptr inbounds %struct.halide_buffer_t, %struct.halide_buffer_t* %buf, i32 0, i32 3
  %2 = load i64, i64* %flags.i.i46.i, align 8, !tbaa !44
  %3 = and i64 %2, 3
  %.not.i = icmp eq i64 %3, 3
  br i1 %.not.i, label %if.then24.i, label %if.end

if.then24.i:                                      ; preds = %if.end16.i
  %call25.i = tail call i32 @halide_error_host_and_device_dirty(i8* %user_context) #14
  br label %_ZN12_GLOBAL__N_126debug_log_and_validate_bufEPvPK15halide_buffer_tPKc.exit

_ZN12_GLOBAL__N_126debug_log_and_validate_bufEPvPK15halide_buffer_tPKc.exit: ; preds = %if.then24.i, %if.then14.i, %if.then8.i, %if.then.i
  %retval.2.i = phi i32 [ %call.i, %if.then.i ], [ %call15.i, %if.then14.i ], [ %call9.i, %if.then8.i ], [ %call25.i, %if.then24.i ]
  %cmp.not = icmp eq i32 %retval.2.i, 0
  br i1 %cmp.not, label %if.end, label %cleanup

if.end:                                           ; preds = %_ZN12_GLOBAL__N_126debug_log_and_validate_bufEPvPK15halide_buffer_tPKc.exit, %if.end16.i
  %cmp1 = icmp eq %struct.halide_device_interface_t* %device_interface, null
  br i1 %cmp1, label %if.then2, label %if.end11

if.then2:                                         ; preds = %if.end
  %device_interface5 = getelementptr inbounds %struct.halide_buffer_t, %struct.halide_buffer_t* %buf, i32 0, i32 1
  %4 = load %struct.halide_device_interface_t*, %struct.halide_device_interface_t** %device_interface5, align 8, !tbaa !42
  %cmp6 = icmp eq %struct.halide_device_interface_t* %4, null
  br i1 %cmp6, label %if.then7, label %if.end11

if.then7:                                         ; preds = %if.then2
  %call8 = tail call i32 @halide_error_no_device_interface(i8* %user_context) #14
  br label %cleanup

if.end11:                                         ; preds = %if.then2, %if.end
  %device_interface.addr.0 = phi %struct.halide_device_interface_t* [ %device_interface, %if.end ], [ %4, %if.then2 ]
  %device = getelementptr inbounds %struct.halide_buffer_t, %struct.halide_buffer_t* %buf, i32 0, i32 0
  %5 = load i64, i64* %device, align 8, !tbaa !40
  %tobool.not = icmp eq i64 %5, 0
  br i1 %tobool.not, label %if.then18, label %land.lhs.true

land.lhs.true:                                    ; preds = %if.end11
  %device_interface12 = getelementptr inbounds %struct.halide_buffer_t, %struct.halide_buffer_t* %buf, i32 0, i32 1
  %6 = load %struct.halide_device_interface_t*, %struct.halide_device_interface_t** %device_interface12, align 8, !tbaa !42
  %cmp13.not = icmp eq %struct.halide_device_interface_t* %6, %device_interface.addr.0
  br i1 %cmp13.not, label %if.end27, label %if.then14

if.then14:                                        ; preds = %land.lhs.true
  tail call void @halide_error(i8* %user_context, i8* getelementptr inbounds ([61 x i8], [61 x i8]* @.str.9.19, i32 0, i32 0)) #14
  br label %cleanup

if.then18:                                        ; preds = %if.end11
  %call19 = tail call i32 @halide_device_malloc(i8* %user_context, %struct.halide_buffer_t* nonnull %buf, %struct.halide_device_interface_t* nonnull %device_interface.addr.0) #15
  %cmp20.not = icmp eq i32 %call19, 0
  br i1 %cmp20.not, label %if.end27, label %cleanup

if.end27:                                         ; preds = %if.then18, %land.lhs.true
  %flags.i.i97 = getelementptr inbounds %struct.halide_buffer_t, %struct.halide_buffer_t* %buf, i32 0, i32 3
  %7 = load i64, i64* %flags.i.i97, align 8, !tbaa !44
  %and.i.i98 = and i64 %7, 1
  %cmp.i.i99.not = icmp eq i64 %and.i.i98, 0
  br i1 %cmp.i.i99.not, label %cleanup, label %if.then29

if.then29:                                        ; preds = %if.end27
  %and.i.i96 = and i64 %7, 2
  %cmp.i.i.not = icmp eq i64 %and.i.i96, 0
  br i1 %cmp.i.i.not, label %if.else, label %cleanup

if.else:                                          ; preds = %if.then29
  %impl = getelementptr inbounds %struct.halide_device_interface_t, %struct.halide_device_interface_t* %device_interface.addr.0, i32 0, i32 15
  %8 = load %struct.halide_device_interface_impl_t*, %struct.halide_device_interface_impl_t** %impl, align 4, !tbaa !71
  %copy_to_device = getelementptr inbounds %struct.halide_device_interface_impl_t, %struct.halide_device_interface_impl_t* %8, i32 0, i32 7
  %9 = load i32 (i8*, %struct.halide_buffer_t*)*, i32 (i8*, %struct.halide_buffer_t*)** %copy_to_device, align 4, !tbaa !76
  %call44 = tail call i32 %9(i8* %user_context, %struct.halide_buffer_t* nonnull %buf) #14
  %cmp45 = icmp eq i32 %call44, 0
  br i1 %cmp45, label %if.then46, label %cleanup

if.then46:                                        ; preds = %if.else
  %10 = load i64, i64* %flags.i.i97, align 8, !tbaa !44
  %and.i.i = and i64 %10, -2
  store i64 %and.i.i, i64* %flags.i.i97, align 8, !tbaa !44
  br label %cleanup

cleanup:                                          ; preds = %if.then46, %if.else, %if.then29, %if.end27, %if.then18, %if.then14, %if.then7, %_ZN12_GLOBAL__N_126debug_log_and_validate_bufEPvPK15halide_buffer_tPKc.exit
  %retval.0 = phi i32 [ %call8, %if.then7 ], [ -42, %if.then14 ], [ %retval.2.i, %_ZN12_GLOBAL__N_126debug_log_and_validate_bufEPvPK15halide_buffer_tPKc.exit ], [ 0, %if.then46 ], [ %call19, %if.then18 ], [ -15, %if.then29 ], [ -15, %if.else ], [ 0, %if.end27 ]
  ret i32 %retval.0
}

; Function Attrs: nounwind mustprogress
define weak i32 @halide_device_malloc(i8* %user_context, %struct.halide_buffer_t* %buf, %struct.halide_device_interface_t* %device_interface) local_unnamed_addr #0 {
entry:
  %cmp.i = icmp eq %struct.halide_buffer_t* %buf, null
  br i1 %cmp.i, label %if.then.i, label %if.end.i

if.then.i:                                        ; preds = %entry
  %call.i = tail call i32 @halide_error_buffer_is_null(i8* %user_context, i8* getelementptr inbounds ([21 x i8], [21 x i8]* @.str.17.20, i32 0, i32 0)) #14
  br label %_ZN12_GLOBAL__N_126debug_log_and_validate_bufEPvPK15halide_buffer_tPKc.exit

if.end.i:                                         ; preds = %entry
  %device_interface.i = getelementptr inbounds %struct.halide_buffer_t, %struct.halide_buffer_t* %buf, i32 0, i32 1
  %0 = load %struct.halide_device_interface_t*, %struct.halide_device_interface_t** %device_interface.i, align 8, !tbaa !42
  %cmp4.not.i = icmp eq %struct.halide_device_interface_t* %0, null
  %device.i = getelementptr inbounds %struct.halide_buffer_t, %struct.halide_buffer_t* %buf, i32 0, i32 0
  %1 = load i64, i64* %device.i, align 8, !tbaa !40
  %cmp5.not.i = icmp eq i64 %1, 0
  %cmp4.not.not.i = xor i1 %cmp4.not.i, true
  %brmerge.i = or i1 %cmp5.not.i, %cmp4.not.not.i
  br i1 %brmerge.i, label %if.end10.i, label %if.then8.i

if.then8.i:                                       ; preds = %if.end.i
  %call9.i = tail call i32 @halide_error_no_device_interface(i8* %user_context) #14
  br label %_ZN12_GLOBAL__N_126debug_log_and_validate_bufEPvPK15halide_buffer_tPKc.exit

if.end10.i:                                       ; preds = %if.end.i
  %cmp5.not.not.i = xor i1 %cmp5.not.i, true
  %brmerge44.i = or i1 %cmp4.not.i, %cmp5.not.not.i
  br i1 %brmerge44.i, label %if.end16.i, label %if.then14.i

if.then14.i:                                      ; preds = %if.end10.i
  %call15.i = tail call i32 @halide_error_device_interface_no_device(i8* %user_context) #14
  br label %_ZN12_GLOBAL__N_126debug_log_and_validate_bufEPvPK15halide_buffer_tPKc.exit

if.end16.i:                                       ; preds = %if.end10.i
  %flags.i.i46.i = getelementptr inbounds %struct.halide_buffer_t, %struct.halide_buffer_t* %buf, i32 0, i32 3
  %2 = load i64, i64* %flags.i.i46.i, align 8, !tbaa !44
  %3 = and i64 %2, 3
  %.not.i = icmp eq i64 %3, 3
  br i1 %.not.i, label %if.then24.i, label %if.end

if.then24.i:                                      ; preds = %if.end16.i
  %call25.i = tail call i32 @halide_error_host_and_device_dirty(i8* %user_context) #14
  br label %_ZN12_GLOBAL__N_126debug_log_and_validate_bufEPvPK15halide_buffer_tPKc.exit

_ZN12_GLOBAL__N_126debug_log_and_validate_bufEPvPK15halide_buffer_tPKc.exit: ; preds = %if.then24.i, %if.then14.i, %if.then8.i, %if.then.i
  %retval.2.i = phi i32 [ %call.i, %if.then.i ], [ %call15.i, %if.then14.i ], [ %call9.i, %if.then8.i ], [ %call25.i, %if.then24.i ]
  %cmp.not = icmp eq i32 %retval.2.i, 0
  br i1 %cmp.not, label %_ZN12_GLOBAL__N_126debug_log_and_validate_bufEPvPK15halide_buffer_tPKc.exit.if.end_crit_edge, label %cleanup12

_ZN12_GLOBAL__N_126debug_log_and_validate_bufEPvPK15halide_buffer_tPKc.exit.if.end_crit_edge: ; preds = %_ZN12_GLOBAL__N_126debug_log_and_validate_bufEPvPK15halide_buffer_tPKc.exit
  %device_interface3.phi.trans.insert = getelementptr inbounds %struct.halide_buffer_t, %struct.halide_buffer_t* %buf, i32 0, i32 1
  %.pre = load %struct.halide_device_interface_t*, %struct.halide_device_interface_t** %device_interface3.phi.trans.insert, align 8, !tbaa !42
  br label %if.end

if.end:                                           ; preds = %_ZN12_GLOBAL__N_126debug_log_and_validate_bufEPvPK15halide_buffer_tPKc.exit.if.end_crit_edge, %if.end16.i
  %4 = phi %struct.halide_device_interface_t* [ %.pre, %_ZN12_GLOBAL__N_126debug_log_and_validate_bufEPvPK15halide_buffer_tPKc.exit.if.end_crit_edge ], [ %0, %if.end16.i ]
  %cmp4.not = icmp eq %struct.halide_device_interface_t* %4, null
  %cmp5.not = icmp eq %struct.halide_device_interface_t* %4, %device_interface
  %or.cond = or i1 %cmp4.not, %cmp5.not
  br i1 %or.cond, label %if.end7, label %if.then6

if.then6:                                         ; preds = %if.end
  tail call void @halide_error(i8* %user_context, i8* getelementptr inbounds ([59 x i8], [59 x i8]* @.str.20.21, i32 0, i32 0)) #14
  br label %cleanup12

if.end7:                                          ; preds = %if.end
  %impl = getelementptr inbounds %struct.halide_device_interface_t, %struct.halide_device_interface_t* %device_interface, i32 0, i32 15
  %5 = load %struct.halide_device_interface_impl_t*, %struct.halide_device_interface_impl_t** %impl, align 4, !tbaa !71
  %use_module = getelementptr inbounds %struct.halide_device_interface_impl_t, %struct.halide_device_interface_impl_t* %5, i32 0, i32 0
  %6 = load void ()*, void ()** %use_module, align 4, !tbaa !77
  tail call void %6() #14
  %7 = load %struct.halide_device_interface_impl_t*, %struct.halide_device_interface_impl_t** %impl, align 4, !tbaa !71
  %device_malloc = getelementptr inbounds %struct.halide_device_interface_impl_t, %struct.halide_device_interface_impl_t* %7, i32 0, i32 2
  %8 = load i32 (i8*, %struct.halide_buffer_t*)*, i32 (i8*, %struct.halide_buffer_t*)** %device_malloc, align 4, !tbaa !78
  %call9 = tail call i32 %8(i8* %user_context, %struct.halide_buffer_t* nonnull %buf) #14
  %9 = load %struct.halide_device_interface_impl_t*, %struct.halide_device_interface_impl_t** %impl, align 4, !tbaa !71
  %release_module = getelementptr inbounds %struct.halide_device_interface_impl_t, %struct.halide_device_interface_impl_t* %9, i32 0, i32 1
  %10 = load void ()*, void ()** %release_module, align 4, !tbaa !79
  tail call void %10() #14
  %tobool.not = icmp eq i32 %call9, 0
  %spec.select = select i1 %tobool.not, i32 0, i32 -16
  ret i32 %spec.select

cleanup12:                                        ; preds = %if.then6, %_ZN12_GLOBAL__N_126debug_log_and_validate_bufEPvPK15halide_buffer_tPKc.exit
  %retval.1 = phi i32 [ %retval.2.i, %_ZN12_GLOBAL__N_126debug_log_and_validate_bufEPvPK15halide_buffer_tPKc.exit ], [ -42, %if.then6 ]
  ret i32 %retval.1
}

; Function Attrs: nounwind
define weak i32 @halide_copy_to_device(i8* %user_context, %struct.halide_buffer_t* %buf, %struct.halide_device_interface_t* %device_interface) local_unnamed_addr #4 {
entry:
  tail call void @halide_mutex_lock(%struct.halide_mutex* nonnull @_ZN6Halide7Runtime8Internal17device_copy_mutexE) #14
  %call = tail call i32 @copy_to_device_already_locked(i8* %user_context, %struct.halide_buffer_t* %buf, %struct.halide_device_interface_t* %device_interface) #15
  tail call void @halide_mutex_unlock(%struct.halide_mutex* nonnull @_ZN6Halide7Runtime8Internal17device_copy_mutexE) #14
  ret i32 %call
}

; Function Attrs: nounwind mustprogress
define weak i32 @halide_device_sync(i8* %user_context, %struct.halide_buffer_t* %buf) local_unnamed_addr #0 {
entry:
  %cmp.i = icmp eq %struct.halide_buffer_t* %buf, null
  br i1 %cmp.i, label %if.then.i, label %if.end.i

if.then.i:                                        ; preds = %entry
  %call.i = tail call i32 @halide_error_buffer_is_null(i8* %user_context, i8* getelementptr inbounds ([19 x i8], [19 x i8]* @.str.16.22, i32 0, i32 0)) #14
  br label %_ZN12_GLOBAL__N_126debug_log_and_validate_bufEPvPK15halide_buffer_tPKc.exit

if.end.i:                                         ; preds = %entry
  %device_interface.i = getelementptr inbounds %struct.halide_buffer_t, %struct.halide_buffer_t* %buf, i32 0, i32 1
  %0 = load %struct.halide_device_interface_t*, %struct.halide_device_interface_t** %device_interface.i, align 8, !tbaa !42
  %cmp4.not.i = icmp eq %struct.halide_device_interface_t* %0, null
  %device.i = getelementptr inbounds %struct.halide_buffer_t, %struct.halide_buffer_t* %buf, i32 0, i32 0
  %1 = load i64, i64* %device.i, align 8, !tbaa !40
  %cmp5.not.i = icmp eq i64 %1, 0
  %cmp4.not.not.i = xor i1 %cmp4.not.i, true
  %brmerge.i = or i1 %cmp5.not.i, %cmp4.not.not.i
  br i1 %brmerge.i, label %if.end10.i, label %if.then8.i

if.then8.i:                                       ; preds = %if.end.i
  %call9.i = tail call i32 @halide_error_no_device_interface(i8* %user_context) #14
  br label %_ZN12_GLOBAL__N_126debug_log_and_validate_bufEPvPK15halide_buffer_tPKc.exit

if.end10.i:                                       ; preds = %if.end.i
  %cmp5.not.not.i = xor i1 %cmp5.not.i, true
  %brmerge44.i = or i1 %cmp4.not.i, %cmp5.not.not.i
  br i1 %brmerge44.i, label %if.end16.i, label %if.then14.i

if.then14.i:                                      ; preds = %if.end10.i
  %call15.i = tail call i32 @halide_error_device_interface_no_device(i8* %user_context) #14
  br label %_ZN12_GLOBAL__N_126debug_log_and_validate_bufEPvPK15halide_buffer_tPKc.exit

if.end16.i:                                       ; preds = %if.end10.i
  %flags.i.i46.i = getelementptr inbounds %struct.halide_buffer_t, %struct.halide_buffer_t* %buf, i32 0, i32 3
  %2 = load i64, i64* %flags.i.i46.i, align 8, !tbaa !44
  %3 = and i64 %2, 3
  %.not.i = icmp eq i64 %3, 3
  br i1 %.not.i, label %if.then24.i, label %if.end

if.then24.i:                                      ; preds = %if.end16.i
  %call25.i = tail call i32 @halide_error_host_and_device_dirty(i8* %user_context) #14
  br label %_ZN12_GLOBAL__N_126debug_log_and_validate_bufEPvPK15halide_buffer_tPKc.exit

_ZN12_GLOBAL__N_126debug_log_and_validate_bufEPvPK15halide_buffer_tPKc.exit: ; preds = %if.then24.i, %if.then14.i, %if.then8.i, %if.then.i
  %retval.2.i = phi i32 [ %call.i, %if.then.i ], [ %call15.i, %if.then14.i ], [ %call9.i, %if.then8.i ], [ %call25.i, %if.then24.i ]
  %cmp.not = icmp eq i32 %retval.2.i, 0
  br i1 %cmp.not, label %_ZN12_GLOBAL__N_126debug_log_and_validate_bufEPvPK15halide_buffer_tPKc.exit.if.end_crit_edge, label %cleanup8

_ZN12_GLOBAL__N_126debug_log_and_validate_bufEPvPK15halide_buffer_tPKc.exit.if.end_crit_edge: ; preds = %_ZN12_GLOBAL__N_126debug_log_and_validate_bufEPvPK15halide_buffer_tPKc.exit
  %device_interface1.phi.trans.insert = getelementptr inbounds %struct.halide_buffer_t, %struct.halide_buffer_t* %buf, i32 0, i32 1
  %.pre = load %struct.halide_device_interface_t*, %struct.halide_device_interface_t** %device_interface1.phi.trans.insert, align 8, !tbaa !42
  br label %if.end

if.end:                                           ; preds = %_ZN12_GLOBAL__N_126debug_log_and_validate_bufEPvPK15halide_buffer_tPKc.exit.if.end_crit_edge, %if.end16.i
  %4 = phi %struct.halide_device_interface_t* [ %.pre, %_ZN12_GLOBAL__N_126debug_log_and_validate_bufEPvPK15halide_buffer_tPKc.exit.if.end_crit_edge ], [ %0, %if.end16.i ]
  %cmp2 = icmp eq %struct.halide_device_interface_t* %4, null
  br i1 %cmp2, label %if.then3, label %if.end5

if.then3:                                         ; preds = %if.end
  %call4 = tail call i32 @halide_error_no_device_interface(i8* %user_context) #14
  br label %cleanup8

if.end5:                                          ; preds = %if.end
  %impl = getelementptr inbounds %struct.halide_device_interface_t, %struct.halide_device_interface_t* %4, i32 0, i32 15
  %5 = load %struct.halide_device_interface_impl_t*, %struct.halide_device_interface_impl_t** %impl, align 4, !tbaa !71
  %device_sync = getelementptr inbounds %struct.halide_device_interface_impl_t, %struct.halide_device_interface_impl_t* %5, i32 0, i32 4
  %6 = load i32 (i8*, %struct.halide_buffer_t*)*, i32 (i8*, %struct.halide_buffer_t*)** %device_sync, align 4, !tbaa !80
  %call6 = tail call i32 %6(i8* %user_context, %struct.halide_buffer_t* nonnull %buf) #14
  %tobool.not = icmp eq i32 %call6, 0
  %spec.select = select i1 %tobool.not, i32 0, i32 -17
  ret i32 %spec.select

cleanup8:                                         ; preds = %if.then3, %_ZN12_GLOBAL__N_126debug_log_and_validate_bufEPvPK15halide_buffer_tPKc.exit
  %retval.1 = phi i32 [ %retval.2.i, %_ZN12_GLOBAL__N_126debug_log_and_validate_bufEPvPK15halide_buffer_tPKc.exit ], [ %call4, %if.then3 ]
  ret i32 %retval.1
}

; Function Attrs: nounwind mustprogress
define weak i32 @halide_device_free(i8* %user_context, %struct.halide_buffer_t* %buf) local_unnamed_addr #0 {
entry:
  %cmp.i = icmp eq %struct.halide_buffer_t* %buf, null
  br i1 %cmp.i, label %if.then.i, label %if.end.i

if.then.i:                                        ; preds = %entry
  %call.i = tail call i32 @halide_error_buffer_is_null(i8* %user_context, i8* getelementptr inbounds ([19 x i8], [19 x i8]* @.str.21.23, i32 0, i32 0)) #14
  br label %_ZN12_GLOBAL__N_126debug_log_and_validate_bufEPvPK15halide_buffer_tPKc.exit

if.end.i:                                         ; preds = %entry
  %device_interface.i = getelementptr inbounds %struct.halide_buffer_t, %struct.halide_buffer_t* %buf, i32 0, i32 1
  %0 = load %struct.halide_device_interface_t*, %struct.halide_device_interface_t** %device_interface.i, align 8, !tbaa !42
  %cmp4.not.i = icmp eq %struct.halide_device_interface_t* %0, null
  %device.i = getelementptr inbounds %struct.halide_buffer_t, %struct.halide_buffer_t* %buf, i32 0, i32 0
  %1 = load i64, i64* %device.i, align 8, !tbaa !40
  %cmp5.not.i = icmp eq i64 %1, 0
  %cmp4.not.not.i = xor i1 %cmp4.not.i, true
  %brmerge.i = or i1 %cmp5.not.i, %cmp4.not.not.i
  br i1 %brmerge.i, label %if.end10.i, label %if.then8.i

if.then8.i:                                       ; preds = %if.end.i
  %call9.i = tail call i32 @halide_error_no_device_interface(i8* %user_context) #14
  br label %_ZN12_GLOBAL__N_126debug_log_and_validate_bufEPvPK15halide_buffer_tPKc.exit

if.end10.i:                                       ; preds = %if.end.i
  %cmp5.not.not.i = xor i1 %cmp5.not.i, true
  %brmerge44.i = or i1 %cmp4.not.i, %cmp5.not.not.i
  br i1 %brmerge44.i, label %if.end16.i, label %if.then14.i

if.then14.i:                                      ; preds = %if.end10.i
  %call15.i = tail call i32 @halide_error_device_interface_no_device(i8* %user_context) #14
  br label %_ZN12_GLOBAL__N_126debug_log_and_validate_bufEPvPK15halide_buffer_tPKc.exit

if.end16.i:                                       ; preds = %if.end10.i
  %flags.i.i46.i = getelementptr inbounds %struct.halide_buffer_t, %struct.halide_buffer_t* %buf, i32 0, i32 3
  %2 = load i64, i64* %flags.i.i46.i, align 8, !tbaa !44
  %3 = and i64 %2, 3
  %.not.i = icmp eq i64 %3, 3
  br i1 %.not.i, label %if.then24.i, label %if.end

if.then24.i:                                      ; preds = %if.end16.i
  %call25.i = tail call i32 @halide_error_host_and_device_dirty(i8* %user_context) #14
  br label %_ZN12_GLOBAL__N_126debug_log_and_validate_bufEPvPK15halide_buffer_tPKc.exit

_ZN12_GLOBAL__N_126debug_log_and_validate_bufEPvPK15halide_buffer_tPKc.exit: ; preds = %if.then24.i, %if.then14.i, %if.then8.i, %if.then.i
  %retval.2.i = phi i32 [ %call.i, %if.then.i ], [ %call15.i, %if.then14.i ], [ %call9.i, %if.then8.i ], [ %call25.i, %if.then24.i ]
  %cmp.not = icmp eq i32 %retval.2.i, 0
  br i1 %cmp.not, label %_ZN12_GLOBAL__N_126debug_log_and_validate_bufEPvPK15halide_buffer_tPKc.exit.if.end_crit_edge, label %cleanup12

_ZN12_GLOBAL__N_126debug_log_and_validate_bufEPvPK15halide_buffer_tPKc.exit.if.end_crit_edge: ; preds = %_ZN12_GLOBAL__N_126debug_log_and_validate_bufEPvPK15halide_buffer_tPKc.exit
  %device_interface1.phi.trans.insert = getelementptr inbounds %struct.halide_buffer_t, %struct.halide_buffer_t* %buf, i32 0, i32 1
  %.pre = load %struct.halide_device_interface_t*, %struct.halide_device_interface_t** %device_interface1.phi.trans.insert, align 8, !tbaa !42
  br label %if.end

if.end:                                           ; preds = %_ZN12_GLOBAL__N_126debug_log_and_validate_bufEPvPK15halide_buffer_tPKc.exit.if.end_crit_edge, %if.end16.i
  %4 = phi %struct.halide_device_interface_t* [ %.pre, %_ZN12_GLOBAL__N_126debug_log_and_validate_bufEPvPK15halide_buffer_tPKc.exit.if.end_crit_edge ], [ %0, %if.end16.i ]
  %cmp2.not = icmp eq %struct.halide_device_interface_t* %4, null
  br i1 %cmp2.not, label %if.end11, label %if.then3

if.then3:                                         ; preds = %if.end
  %impl = getelementptr inbounds %struct.halide_device_interface_t, %struct.halide_device_interface_t* %4, i32 0, i32 15
  %5 = load %struct.halide_device_interface_impl_t*, %struct.halide_device_interface_impl_t** %impl, align 4, !tbaa !71
  %use_module = getelementptr inbounds %struct.halide_device_interface_impl_t, %struct.halide_device_interface_impl_t* %5, i32 0, i32 0
  %6 = load void ()*, void ()** %use_module, align 4, !tbaa !77
  tail call void %6() #14
  %7 = load %struct.halide_device_interface_impl_t*, %struct.halide_device_interface_impl_t** %impl, align 4, !tbaa !71
  %device_free = getelementptr inbounds %struct.halide_device_interface_impl_t, %struct.halide_device_interface_impl_t* %7, i32 0, i32 3
  %8 = load i32 (i8*, %struct.halide_buffer_t*)*, i32 (i8*, %struct.halide_buffer_t*)** %device_free, align 4, !tbaa !81
  %call5 = tail call i32 %8(i8* %user_context, %struct.halide_buffer_t* nonnull %buf) #14
  %9 = load %struct.halide_device_interface_impl_t*, %struct.halide_device_interface_impl_t** %impl, align 4, !tbaa !71
  %release_module = getelementptr inbounds %struct.halide_device_interface_impl_t, %struct.halide_device_interface_impl_t* %9, i32 0, i32 1
  %10 = load void ()*, void ()** %release_module, align 4, !tbaa !79
  tail call void %10() #14
  %device = getelementptr inbounds %struct.halide_buffer_t, %struct.halide_buffer_t* %buf, i32 0, i32 0
  %11 = load i64, i64* %device, align 8, !tbaa !40
  %cmp7 = icmp eq i64 %11, 0
  br i1 %cmp7, label %do.end, label %if.then8

if.then8:                                         ; preds = %if.then3
  tail call void @halide_print(i8* %user_context, i8* getelementptr inbounds ([157 x i8], [157 x i8]* @.str.22.24, i32 0, i32 0)) #14
  tail call void @abort() #14
  br label %do.end

do.end:                                           ; preds = %if.then8, %if.then3
  %tobool.not = icmp eq i32 %call5, 0
  %spec.select = select i1 %tobool.not, i32 0, i32 -18
  ret i32 %spec.select

if.end11:                                         ; preds = %if.end
  %flags3.i.i = getelementptr inbounds %struct.halide_buffer_t, %struct.halide_buffer_t* %buf, i32 0, i32 3
  %12 = load i64, i64* %flags3.i.i, align 8, !tbaa !44
  %and.i.i = and i64 %12, -3
  store i64 %and.i.i, i64* %flags3.i.i, align 8, !tbaa !44
  br label %cleanup12

cleanup12:                                        ; preds = %if.end11, %_ZN12_GLOBAL__N_126debug_log_and_validate_bufEPvPK15halide_buffer_tPKc.exit
  %retval.1 = phi i32 [ %retval.2.i, %_ZN12_GLOBAL__N_126debug_log_and_validate_bufEPvPK15halide_buffer_tPKc.exit ], [ 0, %if.end11 ]
  ret i32 %retval.1
}

declare void @abort() local_unnamed_addr #1

; Function Attrs: nounwind mustprogress
define weak void @halide_device_free_as_destructor(i8* %user_context, i8* %obj) local_unnamed_addr #0 {
entry:
  %0 = bitcast i8* %obj to %struct.halide_buffer_t*
  %call = tail call i32 @halide_device_free(i8* %user_context, %struct.halide_buffer_t* %0) #15
  ret void
}

; Function Attrs: nounwind mustprogress
define weak i32 @halide_device_and_host_malloc(i8* %user_context, %struct.halide_buffer_t* %buf, %struct.halide_device_interface_t* %device_interface) local_unnamed_addr #0 {
entry:
  %cmp.i = icmp eq %struct.halide_buffer_t* %buf, null
  br i1 %cmp.i, label %if.then.i, label %if.end.i

if.then.i:                                        ; preds = %entry
  %call.i = tail call i32 @halide_error_buffer_is_null(i8* %user_context, i8* getelementptr inbounds ([30 x i8], [30 x i8]* @.str.23.25, i32 0, i32 0)) #14
  br label %_ZN12_GLOBAL__N_126debug_log_and_validate_bufEPvPK15halide_buffer_tPKc.exit

if.end.i:                                         ; preds = %entry
  %device_interface.i = getelementptr inbounds %struct.halide_buffer_t, %struct.halide_buffer_t* %buf, i32 0, i32 1
  %0 = load %struct.halide_device_interface_t*, %struct.halide_device_interface_t** %device_interface.i, align 8, !tbaa !42
  %cmp4.not.i = icmp eq %struct.halide_device_interface_t* %0, null
  %device.i = getelementptr inbounds %struct.halide_buffer_t, %struct.halide_buffer_t* %buf, i32 0, i32 0
  %1 = load i64, i64* %device.i, align 8, !tbaa !40
  %cmp5.not.i = icmp eq i64 %1, 0
  %cmp4.not.not.i = xor i1 %cmp4.not.i, true
  %brmerge.i = or i1 %cmp5.not.i, %cmp4.not.not.i
  br i1 %brmerge.i, label %if.end10.i, label %if.then8.i

if.then8.i:                                       ; preds = %if.end.i
  %call9.i = tail call i32 @halide_error_no_device_interface(i8* %user_context) #14
  br label %_ZN12_GLOBAL__N_126debug_log_and_validate_bufEPvPK15halide_buffer_tPKc.exit

if.end10.i:                                       ; preds = %if.end.i
  %cmp5.not.not.i = xor i1 %cmp5.not.i, true
  %brmerge44.i = or i1 %cmp4.not.i, %cmp5.not.not.i
  br i1 %brmerge44.i, label %if.end16.i, label %if.then14.i

if.then14.i:                                      ; preds = %if.end10.i
  %call15.i = tail call i32 @halide_error_device_interface_no_device(i8* %user_context) #14
  br label %_ZN12_GLOBAL__N_126debug_log_and_validate_bufEPvPK15halide_buffer_tPKc.exit

if.end16.i:                                       ; preds = %if.end10.i
  %flags.i.i46.i = getelementptr inbounds %struct.halide_buffer_t, %struct.halide_buffer_t* %buf, i32 0, i32 3
  %2 = load i64, i64* %flags.i.i46.i, align 8, !tbaa !44
  %3 = and i64 %2, 3
  %.not.i = icmp eq i64 %3, 3
  br i1 %.not.i, label %if.then24.i, label %if.end

if.then24.i:                                      ; preds = %if.end16.i
  %call25.i = tail call i32 @halide_error_host_and_device_dirty(i8* %user_context) #14
  br label %_ZN12_GLOBAL__N_126debug_log_and_validate_bufEPvPK15halide_buffer_tPKc.exit

_ZN12_GLOBAL__N_126debug_log_and_validate_bufEPvPK15halide_buffer_tPKc.exit: ; preds = %if.then24.i, %if.then14.i, %if.then8.i, %if.then.i
  %retval.2.i = phi i32 [ %call.i, %if.then.i ], [ %call15.i, %if.then14.i ], [ %call9.i, %if.then8.i ], [ %call25.i, %if.then24.i ]
  %cmp.not = icmp eq i32 %retval.2.i, 0
  br i1 %cmp.not, label %_ZN12_GLOBAL__N_126debug_log_and_validate_bufEPvPK15halide_buffer_tPKc.exit.if.end_crit_edge, label %cleanup14

_ZN12_GLOBAL__N_126debug_log_and_validate_bufEPvPK15halide_buffer_tPKc.exit.if.end_crit_edge: ; preds = %_ZN12_GLOBAL__N_126debug_log_and_validate_bufEPvPK15halide_buffer_tPKc.exit
  %device_interface3.phi.trans.insert = getelementptr inbounds %struct.halide_buffer_t, %struct.halide_buffer_t* %buf, i32 0, i32 1
  %.pre = load %struct.halide_device_interface_t*, %struct.halide_device_interface_t** %device_interface3.phi.trans.insert, align 8, !tbaa !42
  br label %if.end

if.end:                                           ; preds = %_ZN12_GLOBAL__N_126debug_log_and_validate_bufEPvPK15halide_buffer_tPKc.exit.if.end_crit_edge, %if.end16.i
  %4 = phi %struct.halide_device_interface_t* [ %.pre, %_ZN12_GLOBAL__N_126debug_log_and_validate_bufEPvPK15halide_buffer_tPKc.exit.if.end_crit_edge ], [ %0, %if.end16.i ]
  %cmp4.not = icmp eq %struct.halide_device_interface_t* %4, null
  %cmp5.not = icmp eq %struct.halide_device_interface_t* %4, %device_interface
  %or.cond = or i1 %cmp4.not, %cmp5.not
  br i1 %or.cond, label %if.end7, label %if.then6

if.then6:                                         ; preds = %if.end
  tail call void @halide_error(i8* %user_context, i8* getelementptr inbounds ([68 x i8], [68 x i8]* @.str.25.26, i32 0, i32 0)) #14
  br label %cleanup14

if.end7:                                          ; preds = %if.end
  %impl = getelementptr inbounds %struct.halide_device_interface_t, %struct.halide_device_interface_t* %device_interface, i32 0, i32 15
  %5 = load %struct.halide_device_interface_impl_t*, %struct.halide_device_interface_impl_t** %impl, align 4, !tbaa !71
  %use_module = getelementptr inbounds %struct.halide_device_interface_impl_t, %struct.halide_device_interface_impl_t* %5, i32 0, i32 0
  %6 = load void ()*, void ()** %use_module, align 4, !tbaa !77
  tail call void %6() #14
  %7 = load %struct.halide_device_interface_impl_t*, %struct.halide_device_interface_impl_t** %impl, align 4, !tbaa !71
  %device_and_host_malloc = getelementptr inbounds %struct.halide_device_interface_impl_t, %struct.halide_device_interface_impl_t* %7, i32 0, i32 8
  %8 = load i32 (i8*, %struct.halide_buffer_t*)*, i32 (i8*, %struct.halide_buffer_t*)** %device_and_host_malloc, align 4, !tbaa !82
  %call9 = tail call i32 %8(i8* %user_context, %struct.halide_buffer_t* nonnull %buf) #14
  %9 = load %struct.halide_device_interface_impl_t*, %struct.halide_device_interface_impl_t** %impl, align 4, !tbaa !71
  %release_module = getelementptr inbounds %struct.halide_device_interface_impl_t, %struct.halide_device_interface_impl_t* %9, i32 0, i32 1
  %10 = load void ()*, void ()** %release_module, align 4, !tbaa !79
  tail call void %10() #14
  %cmp11.not = icmp eq i32 %call9, 0
  br i1 %cmp11.not, label %cleanup14, label %if.then12

if.then12:                                        ; preds = %if.end7
  tail call void @halide_error(i8* %user_context, i8* getelementptr inbounds ([42 x i8], [42 x i8]* @.str.26, i32 0, i32 0)) #14
  br label %cleanup14

cleanup14:                                        ; preds = %if.then12, %if.end7, %if.then6, %_ZN12_GLOBAL__N_126debug_log_and_validate_bufEPvPK15halide_buffer_tPKc.exit
  %retval.1 = phi i32 [ %retval.2.i, %_ZN12_GLOBAL__N_126debug_log_and_validate_bufEPvPK15halide_buffer_tPKc.exit ], [ -42, %if.then6 ], [ -16, %if.then12 ], [ 0, %if.end7 ]
  ret i32 %retval.1
}

; Function Attrs: nounwind mustprogress
define weak i32 @halide_device_and_host_free(i8* %user_context, %struct.halide_buffer_t* %buf) local_unnamed_addr #0 {
entry:
  %cmp.i = icmp eq %struct.halide_buffer_t* %buf, null
  br i1 %cmp.i, label %if.then.i, label %if.end.i

if.then.i:                                        ; preds = %entry
  %call.i = tail call i32 @halide_error_buffer_is_null(i8* %user_context, i8* getelementptr inbounds ([28 x i8], [28 x i8]* @.str.27, i32 0, i32 0)) #14
  br label %_ZN12_GLOBAL__N_126debug_log_and_validate_bufEPvPK15halide_buffer_tPKc.exit

if.end.i:                                         ; preds = %entry
  %device_interface.i = getelementptr inbounds %struct.halide_buffer_t, %struct.halide_buffer_t* %buf, i32 0, i32 1
  %0 = load %struct.halide_device_interface_t*, %struct.halide_device_interface_t** %device_interface.i, align 8, !tbaa !42
  %cmp4.not.i = icmp eq %struct.halide_device_interface_t* %0, null
  %device.i = getelementptr inbounds %struct.halide_buffer_t, %struct.halide_buffer_t* %buf, i32 0, i32 0
  %1 = load i64, i64* %device.i, align 8, !tbaa !40
  %cmp5.not.i = icmp eq i64 %1, 0
  %cmp4.not.not.i = xor i1 %cmp4.not.i, true
  %brmerge.i = or i1 %cmp5.not.i, %cmp4.not.not.i
  br i1 %brmerge.i, label %if.end10.i, label %if.then8.i

if.then8.i:                                       ; preds = %if.end.i
  %call9.i = tail call i32 @halide_error_no_device_interface(i8* %user_context) #14
  br label %_ZN12_GLOBAL__N_126debug_log_and_validate_bufEPvPK15halide_buffer_tPKc.exit

if.end10.i:                                       ; preds = %if.end.i
  %cmp5.not.not.i = xor i1 %cmp5.not.i, true
  %brmerge44.i = or i1 %cmp4.not.i, %cmp5.not.not.i
  br i1 %brmerge44.i, label %if.end16.i, label %if.then14.i

if.then14.i:                                      ; preds = %if.end10.i
  %call15.i = tail call i32 @halide_error_device_interface_no_device(i8* %user_context) #14
  br label %_ZN12_GLOBAL__N_126debug_log_and_validate_bufEPvPK15halide_buffer_tPKc.exit

if.end16.i:                                       ; preds = %if.end10.i
  %flags.i.i46.i = getelementptr inbounds %struct.halide_buffer_t, %struct.halide_buffer_t* %buf, i32 0, i32 3
  %2 = load i64, i64* %flags.i.i46.i, align 8, !tbaa !44
  %3 = and i64 %2, 3
  %.not.i = icmp eq i64 %3, 3
  br i1 %.not.i, label %if.then24.i, label %if.end

if.then24.i:                                      ; preds = %if.end16.i
  %call25.i = tail call i32 @halide_error_host_and_device_dirty(i8* %user_context) #14
  br label %_ZN12_GLOBAL__N_126debug_log_and_validate_bufEPvPK15halide_buffer_tPKc.exit

_ZN12_GLOBAL__N_126debug_log_and_validate_bufEPvPK15halide_buffer_tPKc.exit: ; preds = %if.then24.i, %if.then14.i, %if.then8.i, %if.then.i
  %retval.2.i = phi i32 [ %call.i, %if.then.i ], [ %call15.i, %if.then14.i ], [ %call9.i, %if.then8.i ], [ %call25.i, %if.then24.i ]
  %cmp.not = icmp eq i32 %retval.2.i, 0
  br i1 %cmp.not, label %_ZN12_GLOBAL__N_126debug_log_and_validate_bufEPvPK15halide_buffer_tPKc.exit.if.end_crit_edge, label %cleanup18

_ZN12_GLOBAL__N_126debug_log_and_validate_bufEPvPK15halide_buffer_tPKc.exit.if.end_crit_edge: ; preds = %_ZN12_GLOBAL__N_126debug_log_and_validate_bufEPvPK15halide_buffer_tPKc.exit
  %device_interface1.phi.trans.insert = getelementptr inbounds %struct.halide_buffer_t, %struct.halide_buffer_t* %buf, i32 0, i32 1
  %.pre = load %struct.halide_device_interface_t*, %struct.halide_device_interface_t** %device_interface1.phi.trans.insert, align 8, !tbaa !42
  br label %if.end

if.end:                                           ; preds = %_ZN12_GLOBAL__N_126debug_log_and_validate_bufEPvPK15halide_buffer_tPKc.exit.if.end_crit_edge, %if.end16.i
  %4 = phi %struct.halide_device_interface_t* [ %.pre, %_ZN12_GLOBAL__N_126debug_log_and_validate_bufEPvPK15halide_buffer_tPKc.exit.if.end_crit_edge ], [ %0, %if.end16.i ]
  %cmp2.not = icmp eq %struct.halide_device_interface_t* %4, null
  br i1 %cmp2.not, label %if.else11, label %if.then3

if.then3:                                         ; preds = %if.end
  %impl = getelementptr inbounds %struct.halide_device_interface_t, %struct.halide_device_interface_t* %4, i32 0, i32 15
  %5 = load %struct.halide_device_interface_impl_t*, %struct.halide_device_interface_impl_t** %impl, align 4, !tbaa !71
  %use_module = getelementptr inbounds %struct.halide_device_interface_impl_t, %struct.halide_device_interface_impl_t* %5, i32 0, i32 0
  %6 = load void ()*, void ()** %use_module, align 4, !tbaa !77
  tail call void %6() #14
  %7 = load %struct.halide_device_interface_impl_t*, %struct.halide_device_interface_impl_t** %impl, align 4, !tbaa !71
  %device_and_host_free = getelementptr inbounds %struct.halide_device_interface_impl_t, %struct.halide_device_interface_impl_t* %7, i32 0, i32 9
  %8 = load i32 (i8*, %struct.halide_buffer_t*)*, i32 (i8*, %struct.halide_buffer_t*)** %device_and_host_free, align 4, !tbaa !83
  %call5 = tail call i32 %8(i8* %user_context, %struct.halide_buffer_t* nonnull %buf) #14
  %9 = load %struct.halide_device_interface_impl_t*, %struct.halide_device_interface_impl_t** %impl, align 4, !tbaa !71
  %release_module = getelementptr inbounds %struct.halide_device_interface_impl_t, %struct.halide_device_interface_impl_t* %9, i32 0, i32 1
  %10 = load void ()*, void ()** %release_module, align 4, !tbaa !79
  tail call void %10() #14
  %device = getelementptr inbounds %struct.halide_buffer_t, %struct.halide_buffer_t* %buf, i32 0, i32 0
  %11 = load i64, i64* %device, align 8, !tbaa !40
  %cmp7 = icmp eq i64 %11, 0
  br i1 %cmp7, label %do.end, label %if.then8

if.then8:                                         ; preds = %if.then3
  tail call void @halide_print(i8* %user_context, i8* getelementptr inbounds ([157 x i8], [157 x i8]* @.str.28, i32 0, i32 0)) #14
  tail call void @abort() #14
  br label %do.end

do.end:                                           ; preds = %if.then8, %if.then3
  %tobool.not = icmp eq i32 %call5, 0
  %spec.select = select i1 %tobool.not, i32 0, i32 -18
  ret i32 %spec.select

if.else11:                                        ; preds = %if.end
  %host = getelementptr inbounds %struct.halide_buffer_t, %struct.halide_buffer_t* %buf, i32 0, i32 2
  %12 = load i8*, i8** %host, align 4, !tbaa !43
  %tobool12.not = icmp eq i8* %12, null
  br i1 %tobool12.not, label %if.end17, label %if.then13

if.then13:                                        ; preds = %if.else11
  tail call void @halide_free(i8* %user_context, i8* nonnull %12) #14
  store i8* null, i8** %host, align 4, !tbaa !43
  br label %if.end17

if.end17:                                         ; preds = %if.then13, %if.else11
  %flags3.i.i = getelementptr inbounds %struct.halide_buffer_t, %struct.halide_buffer_t* %buf, i32 0, i32 3
  %13 = load i64, i64* %flags3.i.i, align 8, !tbaa !44
  %and.i.i = and i64 %13, -3
  store i64 %and.i.i, i64* %flags3.i.i, align 8, !tbaa !44
  br label %cleanup18

cleanup18:                                        ; preds = %if.end17, %_ZN12_GLOBAL__N_126debug_log_and_validate_bufEPvPK15halide_buffer_tPKc.exit
  %retval.1 = phi i32 [ %retval.2.i, %_ZN12_GLOBAL__N_126debug_log_and_validate_bufEPvPK15halide_buffer_tPKc.exit ], [ 0, %if.end17 ]
  ret i32 %retval.1
}

; Function Attrs: nounwind mustprogress
define weak i32 @halide_default_device_and_host_malloc(i8* %user_context, %struct.halide_buffer_t* %buf, %struct.halide_device_interface_t* %device_interface) local_unnamed_addr #0 {
entry:
  %cmp.i = icmp eq %struct.halide_buffer_t* %buf, null
  br i1 %cmp.i, label %if.then.i, label %if.end.i

if.then.i:                                        ; preds = %entry
  %call.i = tail call i32 @halide_error_buffer_is_null(i8* %user_context, i8* getelementptr inbounds ([38 x i8], [38 x i8]* @.str.29, i32 0, i32 0)) #14
  br label %_ZN12_GLOBAL__N_126debug_log_and_validate_bufEPvPK15halide_buffer_tPKc.exit

if.end.i:                                         ; preds = %entry
  %device_interface.i = getelementptr inbounds %struct.halide_buffer_t, %struct.halide_buffer_t* %buf, i32 0, i32 1
  %0 = load %struct.halide_device_interface_t*, %struct.halide_device_interface_t** %device_interface.i, align 8, !tbaa !42
  %cmp4.not.i = icmp eq %struct.halide_device_interface_t* %0, null
  %device.i = getelementptr inbounds %struct.halide_buffer_t, %struct.halide_buffer_t* %buf, i32 0, i32 0
  %1 = load i64, i64* %device.i, align 8, !tbaa !40
  %cmp5.not.i = icmp eq i64 %1, 0
  %cmp4.not.not.i = xor i1 %cmp4.not.i, true
  %brmerge.i = or i1 %cmp5.not.i, %cmp4.not.not.i
  br i1 %brmerge.i, label %if.end10.i, label %if.then8.i

if.then8.i:                                       ; preds = %if.end.i
  %call9.i = tail call i32 @halide_error_no_device_interface(i8* %user_context) #14
  br label %_ZN12_GLOBAL__N_126debug_log_and_validate_bufEPvPK15halide_buffer_tPKc.exit

if.end10.i:                                       ; preds = %if.end.i
  %cmp5.not.not.i = xor i1 %cmp5.not.i, true
  %brmerge44.i = or i1 %cmp4.not.i, %cmp5.not.not.i
  br i1 %brmerge44.i, label %if.end16.i, label %if.then14.i

if.then14.i:                                      ; preds = %if.end10.i
  %call15.i = tail call i32 @halide_error_device_interface_no_device(i8* %user_context) #14
  br label %_ZN12_GLOBAL__N_126debug_log_and_validate_bufEPvPK15halide_buffer_tPKc.exit

if.end16.i:                                       ; preds = %if.end10.i
  %flags.i.i46.i = getelementptr inbounds %struct.halide_buffer_t, %struct.halide_buffer_t* %buf, i32 0, i32 3
  %2 = load i64, i64* %flags.i.i46.i, align 8, !tbaa !44
  %3 = and i64 %2, 3
  %.not.i = icmp eq i64 %3, 3
  br i1 %.not.i, label %if.then24.i, label %if.end

if.then24.i:                                      ; preds = %if.end16.i
  %call25.i = tail call i32 @halide_error_host_and_device_dirty(i8* %user_context) #14
  br label %_ZN12_GLOBAL__N_126debug_log_and_validate_bufEPvPK15halide_buffer_tPKc.exit

_ZN12_GLOBAL__N_126debug_log_and_validate_bufEPvPK15halide_buffer_tPKc.exit: ; preds = %if.then24.i, %if.then14.i, %if.then8.i, %if.then.i
  %retval.2.i = phi i32 [ %call.i, %if.then.i ], [ %call15.i, %if.then14.i ], [ %call9.i, %if.then8.i ], [ %call25.i, %if.then24.i ]
  %cmp.not = icmp eq i32 %retval.2.i, 0
  br i1 %cmp.not, label %if.end, label %cleanup13

if.end:                                           ; preds = %_ZN12_GLOBAL__N_126debug_log_and_validate_bufEPvPK15halide_buffer_tPKc.exit, %if.end16.i
  %dimensions.i.i = getelementptr inbounds %struct.halide_buffer_t, %struct.halide_buffer_t* %buf, i32 0, i32 5
  %4 = load i32, i32* %dimensions.i.i, align 4, !tbaa !45
  %cmp16.i.i = icmp sgt i32 %4, 0
  br i1 %cmp16.i.i, label %for.body.lr.ph.i.i, label %if.end._ZNK15halide_buffer_t13size_in_bytesEv.exit_crit_edge

if.end._ZNK15halide_buffer_t13size_in_bytesEv.exit_crit_edge: ; preds = %if.end
  %sub.i.0 = sub nsw i32 1, 0
  br label %_ZNK15halide_buffer_t13size_in_bytesEv.exit

for.body.lr.ph.i.i:                               ; preds = %if.end
  %dim.i.i = getelementptr inbounds %struct.halide_buffer_t, %struct.halide_buffer_t* %buf, i32 0, i32 6
  %5 = load %struct.halide_dimension_t*, %struct.halide_dimension_t** %dim.i.i, align 8, !tbaa !46
  %6 = add i32 %4, -1
  %xtraiter = and i32 %4, 7
  %7 = icmp ult i32 %6, 7
  br i1 %7, label %for.body.i11.i.preheader.unr-lcssa, label %for.body.lr.ph.i.i.new

for.body.lr.ph.i.i.new:                           ; preds = %for.body.lr.ph.i.i
  %unroll_iter = and i32 %4, -8
  br label %for.body.i.i

for.body.i.i:                                     ; preds = %if.end.i.i.7, %for.body.lr.ph.i.i.new
  %index.019.i.i = phi i32 [ 0, %for.body.lr.ph.i.i.new ], [ %index.1.i.i.7, %if.end.i.i.7 ]
  %i.017.i.i = phi i32 [ 0, %for.body.lr.ph.i.i.new ], [ %inc.i.i.7, %if.end.i.i.7 ]
  %niter = phi i32 [ %unroll_iter, %for.body.lr.ph.i.i.new ], [ %niter.nsub.7, %if.end.i.i.7 ]
  %stride2.i.i = getelementptr inbounds %struct.halide_dimension_t, %struct.halide_dimension_t* %5, i32 %i.017.i.i, i32 2
  %8 = load i32, i32* %stride2.i.i, align 4, !tbaa !50
  %cmp3.i.i = icmp sgt i32 %8, 0
  br i1 %cmp3.i.i, label %if.then.i.i, label %if.end.i.i

if.then.i.i:                                      ; preds = %for.body.i.i
  %extent.i.i = getelementptr inbounds %struct.halide_dimension_t, %struct.halide_dimension_t* %5, i32 %i.017.i.i, i32 1
  %9 = load i32, i32* %extent.i.i, align 4, !tbaa !49
  %sub.i.i = add nsw i32 %9, -1
  %mul.i.i = mul nsw i32 %sub.i.i, %8
  %add.i.i = add nsw i32 %mul.i.i, %index.019.i.i
  br label %if.end.i.i

if.end.i.i:                                       ; preds = %if.then.i.i, %for.body.i.i
  %index.1.i.i = phi i32 [ %add.i.i, %if.then.i.i ], [ %index.019.i.i, %for.body.i.i ]
  %inc.i.i = or i32 %i.017.i.i, 1
  %stride2.i.i.1 = getelementptr inbounds %struct.halide_dimension_t, %struct.halide_dimension_t* %5, i32 %inc.i.i, i32 2
  %10 = load i32, i32* %stride2.i.i.1, align 4, !tbaa !50
  %cmp3.i.i.1 = icmp sgt i32 %10, 0
  br i1 %cmp3.i.i.1, label %if.then.i.i.1, label %if.end.i.i.1

for.body.i11.i.preheader.unr-lcssa:               ; preds = %if.end.i.i.7, %for.body.lr.ph.i.i
  %index.1.i.i.lcssa.ph = phi i32 [ undef, %for.body.lr.ph.i.i ], [ %index.1.i.i.7, %if.end.i.i.7 ]
  %index.019.i.i.unr = phi i32 [ 0, %for.body.lr.ph.i.i ], [ %index.1.i.i.7, %if.end.i.i.7 ]
  %i.017.i.i.unr = phi i32 [ 0, %for.body.lr.ph.i.i ], [ %inc.i.i.7, %if.end.i.i.7 ]
  %lcmp.mod.not = icmp eq i32 %xtraiter, 0
  br i1 %lcmp.mod.not, label %for.body.i11.i.preheader, label %for.body.i.i.epil

for.body.i.i.epil:                                ; preds = %for.body.i11.i.preheader.unr-lcssa, %if.end.i.i.epil
  %index.019.i.i.epil = phi i32 [ %index.1.i.i.epil, %if.end.i.i.epil ], [ %index.019.i.i.unr, %for.body.i11.i.preheader.unr-lcssa ]
  %i.017.i.i.epil = phi i32 [ %inc.i.i.epil, %if.end.i.i.epil ], [ %i.017.i.i.unr, %for.body.i11.i.preheader.unr-lcssa ]
  %epil.iter = phi i32 [ %epil.iter.sub, %if.end.i.i.epil ], [ %xtraiter, %for.body.i11.i.preheader.unr-lcssa ]
  %stride2.i.i.epil = getelementptr inbounds %struct.halide_dimension_t, %struct.halide_dimension_t* %5, i32 %i.017.i.i.epil, i32 2
  %11 = load i32, i32* %stride2.i.i.epil, align 4, !tbaa !50
  %cmp3.i.i.epil = icmp sgt i32 %11, 0
  br i1 %cmp3.i.i.epil, label %if.then.i.i.epil, label %if.end.i.i.epil

if.then.i.i.epil:                                 ; preds = %for.body.i.i.epil
  %extent.i.i.epil = getelementptr inbounds %struct.halide_dimension_t, %struct.halide_dimension_t* %5, i32 %i.017.i.i.epil, i32 1
  %12 = load i32, i32* %extent.i.i.epil, align 4, !tbaa !49
  %sub.i.i.epil = add nsw i32 %12, -1
  %mul.i.i.epil = mul nsw i32 %sub.i.i.epil, %11
  %add.i.i.epil = add nsw i32 %mul.i.i.epil, %index.019.i.i.epil
  br label %if.end.i.i.epil

if.end.i.i.epil:                                  ; preds = %if.then.i.i.epil, %for.body.i.i.epil
  %index.1.i.i.epil = phi i32 [ %add.i.i.epil, %if.then.i.i.epil ], [ %index.019.i.i.epil, %for.body.i.i.epil ]
  %inc.i.i.epil = add nuw nsw i32 %i.017.i.i.epil, 1
  %epil.iter.sub = add i32 %epil.iter, -1
  %epil.iter.cmp.not = icmp eq i32 %epil.iter.sub, 0
  br i1 %epil.iter.cmp.not, label %for.body.i11.i.preheader, label %for.body.i.i.epil, !llvm.loop !84

for.body.i11.i.preheader:                         ; preds = %if.end.i.i.epil, %for.body.i11.i.preheader.unr-lcssa
  %index.1.i.i.lcssa = phi i32 [ %index.1.i.i.lcssa.ph, %for.body.i11.i.preheader.unr-lcssa ], [ %index.1.i.i.epil, %if.end.i.i.epil ]
  %13 = add i32 %4, -1
  %xtraiter5 = and i32 %4, 7
  %14 = icmp ult i32 %13, 7
  br i1 %14, label %_ZNK15halide_buffer_t13size_in_bytesEv.exit.loopexit.unr-lcssa, label %for.body.i11.i.preheader.new

for.body.i11.i.preheader.new:                     ; preds = %for.body.i11.i.preheader
  %unroll_iter9 = and i32 %4, -8
  br label %for.body.i11.i

for.body.i11.i:                                   ; preds = %if.end.i20.i.7, %for.body.i11.i.preheader.new
  %index.017.i.i = phi i32 [ 0, %for.body.i11.i.preheader.new ], [ %index.1.i17.i.7, %if.end.i20.i.7 ]
  %i.015.i.i = phi i32 [ 0, %for.body.i11.i.preheader.new ], [ %inc.i18.i.7, %if.end.i20.i.7 ]
  %niter10 = phi i32 [ %unroll_iter9, %for.body.i11.i.preheader.new ], [ %niter10.nsub.7, %if.end.i20.i.7 ]
  %stride2.i9.i = getelementptr inbounds %struct.halide_dimension_t, %struct.halide_dimension_t* %5, i32 %i.015.i.i, i32 2
  %15 = load i32, i32* %stride2.i9.i, align 4, !tbaa !50
  %cmp3.i10.i = icmp slt i32 %15, 0
  br i1 %cmp3.i10.i, label %if.then.i16.i, label %if.end.i20.i

if.then.i16.i:                                    ; preds = %for.body.i11.i
  %extent.i12.i = getelementptr inbounds %struct.halide_dimension_t, %struct.halide_dimension_t* %5, i32 %i.015.i.i, i32 1
  %16 = load i32, i32* %extent.i12.i, align 4, !tbaa !49
  %sub.i13.i = add nsw i32 %16, -1
  %mul.i14.i = mul nsw i32 %sub.i13.i, %15
  %add.i15.i = add nsw i32 %mul.i14.i, %index.017.i.i
  br label %if.end.i20.i

if.end.i20.i:                                     ; preds = %if.then.i16.i, %for.body.i11.i
  %index.1.i17.i = phi i32 [ %add.i15.i, %if.then.i16.i ], [ %index.017.i.i, %for.body.i11.i ]
  %inc.i18.i = or i32 %i.015.i.i, 1
  %stride2.i9.i.1 = getelementptr inbounds %struct.halide_dimension_t, %struct.halide_dimension_t* %5, i32 %inc.i18.i, i32 2
  %17 = load i32, i32* %stride2.i9.i.1, align 4, !tbaa !50
  %cmp3.i10.i.1 = icmp slt i32 %17, 0
  br i1 %cmp3.i10.i.1, label %if.then.i16.i.1, label %if.end.i20.i.1

_ZNK15halide_buffer_t13size_in_bytesEv.exit.loopexit.unr-lcssa: ; preds = %if.end.i20.i.7, %for.body.i11.i.preheader
  %index.1.i17.i.lcssa.ph = phi i32 [ undef, %for.body.i11.i.preheader ], [ %index.1.i17.i.7, %if.end.i20.i.7 ]
  %index.017.i.i.unr = phi i32 [ 0, %for.body.i11.i.preheader ], [ %index.1.i17.i.7, %if.end.i20.i.7 ]
  %i.015.i.i.unr = phi i32 [ 0, %for.body.i11.i.preheader ], [ %inc.i18.i.7, %if.end.i20.i.7 ]
  %lcmp.mod7.not = icmp eq i32 %xtraiter5, 0
  br i1 %lcmp.mod7.not, label %_ZNK15halide_buffer_t13size_in_bytesEv.exit.loopexit, label %for.body.i11.i.epil

for.body.i11.i.epil:                              ; preds = %_ZNK15halide_buffer_t13size_in_bytesEv.exit.loopexit.unr-lcssa, %if.end.i20.i.epil
  %index.017.i.i.epil = phi i32 [ %index.1.i17.i.epil, %if.end.i20.i.epil ], [ %index.017.i.i.unr, %_ZNK15halide_buffer_t13size_in_bytesEv.exit.loopexit.unr-lcssa ]
  %i.015.i.i.epil = phi i32 [ %inc.i18.i.epil, %if.end.i20.i.epil ], [ %i.015.i.i.unr, %_ZNK15halide_buffer_t13size_in_bytesEv.exit.loopexit.unr-lcssa ]
  %epil.iter6 = phi i32 [ %epil.iter6.sub, %if.end.i20.i.epil ], [ %xtraiter5, %_ZNK15halide_buffer_t13size_in_bytesEv.exit.loopexit.unr-lcssa ]
  %stride2.i9.i.epil = getelementptr inbounds %struct.halide_dimension_t, %struct.halide_dimension_t* %5, i32 %i.015.i.i.epil, i32 2
  %18 = load i32, i32* %stride2.i9.i.epil, align 4, !tbaa !50
  %cmp3.i10.i.epil = icmp slt i32 %18, 0
  br i1 %cmp3.i10.i.epil, label %if.then.i16.i.epil, label %if.end.i20.i.epil

if.then.i16.i.epil:                               ; preds = %for.body.i11.i.epil
  %extent.i12.i.epil = getelementptr inbounds %struct.halide_dimension_t, %struct.halide_dimension_t* %5, i32 %i.015.i.i.epil, i32 1
  %19 = load i32, i32* %extent.i12.i.epil, align 4, !tbaa !49
  %sub.i13.i.epil = add nsw i32 %19, -1
  %mul.i14.i.epil = mul nsw i32 %sub.i13.i.epil, %18
  %add.i15.i.epil = add nsw i32 %mul.i14.i.epil, %index.017.i.i.epil
  br label %if.end.i20.i.epil

if.end.i20.i.epil:                                ; preds = %if.then.i16.i.epil, %for.body.i11.i.epil
  %index.1.i17.i.epil = phi i32 [ %add.i15.i.epil, %if.then.i16.i.epil ], [ %index.017.i.i.epil, %for.body.i11.i.epil ]
  %inc.i18.i.epil = add nuw nsw i32 %i.015.i.i.epil, 1
  %epil.iter6.sub = add i32 %epil.iter6, -1
  %epil.iter6.cmp.not = icmp eq i32 %epil.iter6.sub, 0
  br i1 %epil.iter6.cmp.not, label %_ZNK15halide_buffer_t13size_in_bytesEv.exit.loopexit, label %for.body.i11.i.epil, !llvm.loop !85

_ZNK15halide_buffer_t13size_in_bytesEv.exit.loopexit: ; preds = %if.end.i20.i.epil, %_ZNK15halide_buffer_t13size_in_bytesEv.exit.loopexit.unr-lcssa
  %index.1.i17.i.lcssa = phi i32 [ %index.1.i17.i.lcssa.ph, %_ZNK15halide_buffer_t13size_in_bytesEv.exit.loopexit.unr-lcssa ], [ %index.1.i17.i.epil, %if.end.i20.i.epil ]
  %add6.i.i = add nsw i32 %index.1.i.i.lcssa, 1
  %sub.i.1 = sub nsw i32 %add6.i.i, %index.1.i17.i.lcssa
  br label %_ZNK15halide_buffer_t13size_in_bytesEv.exit

_ZNK15halide_buffer_t13size_in_bytesEv.exit:      ; preds = %if.end._ZNK15halide_buffer_t13size_in_bytesEv.exit_crit_edge, %_ZNK15halide_buffer_t13size_in_bytesEv.exit.loopexit
  %sub.i.phi = phi i32 [ %sub.i.0, %if.end._ZNK15halide_buffer_t13size_in_bytesEv.exit_crit_edge ], [ %sub.i.1, %_ZNK15halide_buffer_t13size_in_bytesEv.exit.loopexit ]
  %bits.i.i = getelementptr inbounds %struct.halide_buffer_t, %struct.halide_buffer_t* %buf, i32 0, i32 4, i32 1
  %20 = load i8, i8* %bits.i.i, align 1, !tbaa !38
  %conv.i.i = zext i8 %20 to i32
  %add.i4.i = add nuw nsw i32 %conv.i.i, 7
  %div.i.i = lshr i32 %add.i4.i, 3
  %mul.i = mul i32 %div.i.i, %sub.i.phi
  %call2 = tail call i8* @halide_malloc(i8* %user_context, i32 %mul.i) #14
  %host = getelementptr inbounds %struct.halide_buffer_t, %struct.halide_buffer_t* %buf, i32 0, i32 2
  store i8* %call2, i8** %host, align 4, !tbaa !43
  %cmp4 = icmp eq i8* %call2, null
  br i1 %cmp4, label %cleanup13, label %if.end6

if.end6:                                          ; preds = %_ZNK15halide_buffer_t13size_in_bytesEv.exit
  %call7 = tail call i32 @halide_device_malloc(i8* %user_context, %struct.halide_buffer_t* nonnull %buf, %struct.halide_device_interface_t* %device_interface) #15
  %cmp8.not = icmp eq i32 %call7, 0
  br i1 %cmp8.not, label %cleanup13, label %if.then9

if.then9:                                         ; preds = %if.end6
  %21 = load i8*, i8** %host, align 4, !tbaa !43
  tail call void @halide_free(i8* %user_context, i8* %21) #14
  store i8* null, i8** %host, align 4, !tbaa !43
  br label %cleanup13

cleanup13:                                        ; preds = %if.then9, %if.end6, %_ZNK15halide_buffer_t13size_in_bytesEv.exit, %_ZN12_GLOBAL__N_126debug_log_and_validate_bufEPvPK15halide_buffer_tPKc.exit
  %retval.1 = phi i32 [ %retval.2.i, %_ZN12_GLOBAL__N_126debug_log_and_validate_bufEPvPK15halide_buffer_tPKc.exit ], [ -1, %_ZNK15halide_buffer_t13size_in_bytesEv.exit ], [ %call7, %if.then9 ], [ 0, %if.end6 ]
  ret i32 %retval.1

if.then.i.i.1:                                    ; preds = %if.end.i.i
  %extent.i.i.1 = getelementptr inbounds %struct.halide_dimension_t, %struct.halide_dimension_t* %5, i32 %inc.i.i, i32 1
  %22 = load i32, i32* %extent.i.i.1, align 4, !tbaa !49
  %sub.i.i.1 = add nsw i32 %22, -1
  %mul.i.i.1 = mul nsw i32 %sub.i.i.1, %10
  %add.i.i.1 = add nsw i32 %mul.i.i.1, %index.1.i.i
  br label %if.end.i.i.1

if.end.i.i.1:                                     ; preds = %if.then.i.i.1, %if.end.i.i
  %index.1.i.i.1 = phi i32 [ %add.i.i.1, %if.then.i.i.1 ], [ %index.1.i.i, %if.end.i.i ]
  %inc.i.i.1 = or i32 %i.017.i.i, 2
  %stride2.i.i.2 = getelementptr inbounds %struct.halide_dimension_t, %struct.halide_dimension_t* %5, i32 %inc.i.i.1, i32 2
  %23 = load i32, i32* %stride2.i.i.2, align 4, !tbaa !50
  %cmp3.i.i.2 = icmp sgt i32 %23, 0
  br i1 %cmp3.i.i.2, label %if.then.i.i.2, label %if.end.i.i.2

if.then.i.i.2:                                    ; preds = %if.end.i.i.1
  %extent.i.i.2 = getelementptr inbounds %struct.halide_dimension_t, %struct.halide_dimension_t* %5, i32 %inc.i.i.1, i32 1
  %24 = load i32, i32* %extent.i.i.2, align 4, !tbaa !49
  %sub.i.i.2 = add nsw i32 %24, -1
  %mul.i.i.2 = mul nsw i32 %sub.i.i.2, %23
  %add.i.i.2 = add nsw i32 %mul.i.i.2, %index.1.i.i.1
  br label %if.end.i.i.2

if.end.i.i.2:                                     ; preds = %if.then.i.i.2, %if.end.i.i.1
  %index.1.i.i.2 = phi i32 [ %add.i.i.2, %if.then.i.i.2 ], [ %index.1.i.i.1, %if.end.i.i.1 ]
  %inc.i.i.2 = or i32 %i.017.i.i, 3
  %stride2.i.i.3 = getelementptr inbounds %struct.halide_dimension_t, %struct.halide_dimension_t* %5, i32 %inc.i.i.2, i32 2
  %25 = load i32, i32* %stride2.i.i.3, align 4, !tbaa !50
  %cmp3.i.i.3 = icmp sgt i32 %25, 0
  br i1 %cmp3.i.i.3, label %if.then.i.i.3, label %if.end.i.i.3

if.then.i.i.3:                                    ; preds = %if.end.i.i.2
  %extent.i.i.3 = getelementptr inbounds %struct.halide_dimension_t, %struct.halide_dimension_t* %5, i32 %inc.i.i.2, i32 1
  %26 = load i32, i32* %extent.i.i.3, align 4, !tbaa !49
  %sub.i.i.3 = add nsw i32 %26, -1
  %mul.i.i.3 = mul nsw i32 %sub.i.i.3, %25
  %add.i.i.3 = add nsw i32 %mul.i.i.3, %index.1.i.i.2
  br label %if.end.i.i.3

if.end.i.i.3:                                     ; preds = %if.then.i.i.3, %if.end.i.i.2
  %index.1.i.i.3 = phi i32 [ %add.i.i.3, %if.then.i.i.3 ], [ %index.1.i.i.2, %if.end.i.i.2 ]
  %inc.i.i.3 = or i32 %i.017.i.i, 4
  %stride2.i.i.4 = getelementptr inbounds %struct.halide_dimension_t, %struct.halide_dimension_t* %5, i32 %inc.i.i.3, i32 2
  %27 = load i32, i32* %stride2.i.i.4, align 4, !tbaa !50
  %cmp3.i.i.4 = icmp sgt i32 %27, 0
  br i1 %cmp3.i.i.4, label %if.then.i.i.4, label %if.end.i.i.4

if.then.i.i.4:                                    ; preds = %if.end.i.i.3
  %extent.i.i.4 = getelementptr inbounds %struct.halide_dimension_t, %struct.halide_dimension_t* %5, i32 %inc.i.i.3, i32 1
  %28 = load i32, i32* %extent.i.i.4, align 4, !tbaa !49
  %sub.i.i.4 = add nsw i32 %28, -1
  %mul.i.i.4 = mul nsw i32 %sub.i.i.4, %27
  %add.i.i.4 = add nsw i32 %mul.i.i.4, %index.1.i.i.3
  br label %if.end.i.i.4

if.end.i.i.4:                                     ; preds = %if.then.i.i.4, %if.end.i.i.3
  %index.1.i.i.4 = phi i32 [ %add.i.i.4, %if.then.i.i.4 ], [ %index.1.i.i.3, %if.end.i.i.3 ]
  %inc.i.i.4 = or i32 %i.017.i.i, 5
  %stride2.i.i.5 = getelementptr inbounds %struct.halide_dimension_t, %struct.halide_dimension_t* %5, i32 %inc.i.i.4, i32 2
  %29 = load i32, i32* %stride2.i.i.5, align 4, !tbaa !50
  %cmp3.i.i.5 = icmp sgt i32 %29, 0
  br i1 %cmp3.i.i.5, label %if.then.i.i.5, label %if.end.i.i.5

if.then.i.i.5:                                    ; preds = %if.end.i.i.4
  %extent.i.i.5 = getelementptr inbounds %struct.halide_dimension_t, %struct.halide_dimension_t* %5, i32 %inc.i.i.4, i32 1
  %30 = load i32, i32* %extent.i.i.5, align 4, !tbaa !49
  %sub.i.i.5 = add nsw i32 %30, -1
  %mul.i.i.5 = mul nsw i32 %sub.i.i.5, %29
  %add.i.i.5 = add nsw i32 %mul.i.i.5, %index.1.i.i.4
  br label %if.end.i.i.5

if.end.i.i.5:                                     ; preds = %if.then.i.i.5, %if.end.i.i.4
  %index.1.i.i.5 = phi i32 [ %add.i.i.5, %if.then.i.i.5 ], [ %index.1.i.i.4, %if.end.i.i.4 ]
  %inc.i.i.5 = or i32 %i.017.i.i, 6
  %stride2.i.i.6 = getelementptr inbounds %struct.halide_dimension_t, %struct.halide_dimension_t* %5, i32 %inc.i.i.5, i32 2
  %31 = load i32, i32* %stride2.i.i.6, align 4, !tbaa !50
  %cmp3.i.i.6 = icmp sgt i32 %31, 0
  br i1 %cmp3.i.i.6, label %if.then.i.i.6, label %if.end.i.i.6

if.then.i.i.6:                                    ; preds = %if.end.i.i.5
  %extent.i.i.6 = getelementptr inbounds %struct.halide_dimension_t, %struct.halide_dimension_t* %5, i32 %inc.i.i.5, i32 1
  %32 = load i32, i32* %extent.i.i.6, align 4, !tbaa !49
  %sub.i.i.6 = add nsw i32 %32, -1
  %mul.i.i.6 = mul nsw i32 %sub.i.i.6, %31
  %add.i.i.6 = add nsw i32 %mul.i.i.6, %index.1.i.i.5
  br label %if.end.i.i.6

if.end.i.i.6:                                     ; preds = %if.then.i.i.6, %if.end.i.i.5
  %index.1.i.i.6 = phi i32 [ %add.i.i.6, %if.then.i.i.6 ], [ %index.1.i.i.5, %if.end.i.i.5 ]
  %inc.i.i.6 = or i32 %i.017.i.i, 7
  %stride2.i.i.7 = getelementptr inbounds %struct.halide_dimension_t, %struct.halide_dimension_t* %5, i32 %inc.i.i.6, i32 2
  %33 = load i32, i32* %stride2.i.i.7, align 4, !tbaa !50
  %cmp3.i.i.7 = icmp sgt i32 %33, 0
  br i1 %cmp3.i.i.7, label %if.then.i.i.7, label %if.end.i.i.7

if.then.i.i.7:                                    ; preds = %if.end.i.i.6
  %extent.i.i.7 = getelementptr inbounds %struct.halide_dimension_t, %struct.halide_dimension_t* %5, i32 %inc.i.i.6, i32 1
  %34 = load i32, i32* %extent.i.i.7, align 4, !tbaa !49
  %sub.i.i.7 = add nsw i32 %34, -1
  %mul.i.i.7 = mul nsw i32 %sub.i.i.7, %33
  %add.i.i.7 = add nsw i32 %mul.i.i.7, %index.1.i.i.6
  br label %if.end.i.i.7

if.end.i.i.7:                                     ; preds = %if.then.i.i.7, %if.end.i.i.6
  %index.1.i.i.7 = phi i32 [ %add.i.i.7, %if.then.i.i.7 ], [ %index.1.i.i.6, %if.end.i.i.6 ]
  %inc.i.i.7 = add nuw nsw i32 %i.017.i.i, 8
  %niter.nsub.7 = add i32 %niter, -8
  %niter.ncmp.7 = icmp eq i32 %niter.nsub.7, 0
  br i1 %niter.ncmp.7, label %for.body.i11.i.preheader.unr-lcssa, label %for.body.i.i, !llvm.loop !86

if.then.i16.i.1:                                  ; preds = %if.end.i20.i
  %extent.i12.i.1 = getelementptr inbounds %struct.halide_dimension_t, %struct.halide_dimension_t* %5, i32 %inc.i18.i, i32 1
  %35 = load i32, i32* %extent.i12.i.1, align 4, !tbaa !49
  %sub.i13.i.1 = add nsw i32 %35, -1
  %mul.i14.i.1 = mul nsw i32 %sub.i13.i.1, %17
  %add.i15.i.1 = add nsw i32 %mul.i14.i.1, %index.1.i17.i
  br label %if.end.i20.i.1

if.end.i20.i.1:                                   ; preds = %if.then.i16.i.1, %if.end.i20.i
  %index.1.i17.i.1 = phi i32 [ %add.i15.i.1, %if.then.i16.i.1 ], [ %index.1.i17.i, %if.end.i20.i ]
  %inc.i18.i.1 = or i32 %i.015.i.i, 2
  %stride2.i9.i.2 = getelementptr inbounds %struct.halide_dimension_t, %struct.halide_dimension_t* %5, i32 %inc.i18.i.1, i32 2
  %36 = load i32, i32* %stride2.i9.i.2, align 4, !tbaa !50
  %cmp3.i10.i.2 = icmp slt i32 %36, 0
  br i1 %cmp3.i10.i.2, label %if.then.i16.i.2, label %if.end.i20.i.2

if.then.i16.i.2:                                  ; preds = %if.end.i20.i.1
  %extent.i12.i.2 = getelementptr inbounds %struct.halide_dimension_t, %struct.halide_dimension_t* %5, i32 %inc.i18.i.1, i32 1
  %37 = load i32, i32* %extent.i12.i.2, align 4, !tbaa !49
  %sub.i13.i.2 = add nsw i32 %37, -1
  %mul.i14.i.2 = mul nsw i32 %sub.i13.i.2, %36
  %add.i15.i.2 = add nsw i32 %mul.i14.i.2, %index.1.i17.i.1
  br label %if.end.i20.i.2

if.end.i20.i.2:                                   ; preds = %if.then.i16.i.2, %if.end.i20.i.1
  %index.1.i17.i.2 = phi i32 [ %add.i15.i.2, %if.then.i16.i.2 ], [ %index.1.i17.i.1, %if.end.i20.i.1 ]
  %inc.i18.i.2 = or i32 %i.015.i.i, 3
  %stride2.i9.i.3 = getelementptr inbounds %struct.halide_dimension_t, %struct.halide_dimension_t* %5, i32 %inc.i18.i.2, i32 2
  %38 = load i32, i32* %stride2.i9.i.3, align 4, !tbaa !50
  %cmp3.i10.i.3 = icmp slt i32 %38, 0
  br i1 %cmp3.i10.i.3, label %if.then.i16.i.3, label %if.end.i20.i.3

if.then.i16.i.3:                                  ; preds = %if.end.i20.i.2
  %extent.i12.i.3 = getelementptr inbounds %struct.halide_dimension_t, %struct.halide_dimension_t* %5, i32 %inc.i18.i.2, i32 1
  %39 = load i32, i32* %extent.i12.i.3, align 4, !tbaa !49
  %sub.i13.i.3 = add nsw i32 %39, -1
  %mul.i14.i.3 = mul nsw i32 %sub.i13.i.3, %38
  %add.i15.i.3 = add nsw i32 %mul.i14.i.3, %index.1.i17.i.2
  br label %if.end.i20.i.3

if.end.i20.i.3:                                   ; preds = %if.then.i16.i.3, %if.end.i20.i.2
  %index.1.i17.i.3 = phi i32 [ %add.i15.i.3, %if.then.i16.i.3 ], [ %index.1.i17.i.2, %if.end.i20.i.2 ]
  %inc.i18.i.3 = or i32 %i.015.i.i, 4
  %stride2.i9.i.4 = getelementptr inbounds %struct.halide_dimension_t, %struct.halide_dimension_t* %5, i32 %inc.i18.i.3, i32 2
  %40 = load i32, i32* %stride2.i9.i.4, align 4, !tbaa !50
  %cmp3.i10.i.4 = icmp slt i32 %40, 0
  br i1 %cmp3.i10.i.4, label %if.then.i16.i.4, label %if.end.i20.i.4

if.then.i16.i.4:                                  ; preds = %if.end.i20.i.3
  %extent.i12.i.4 = getelementptr inbounds %struct.halide_dimension_t, %struct.halide_dimension_t* %5, i32 %inc.i18.i.3, i32 1
  %41 = load i32, i32* %extent.i12.i.4, align 4, !tbaa !49
  %sub.i13.i.4 = add nsw i32 %41, -1
  %mul.i14.i.4 = mul nsw i32 %sub.i13.i.4, %40
  %add.i15.i.4 = add nsw i32 %mul.i14.i.4, %index.1.i17.i.3
  br label %if.end.i20.i.4

if.end.i20.i.4:                                   ; preds = %if.then.i16.i.4, %if.end.i20.i.3
  %index.1.i17.i.4 = phi i32 [ %add.i15.i.4, %if.then.i16.i.4 ], [ %index.1.i17.i.3, %if.end.i20.i.3 ]
  %inc.i18.i.4 = or i32 %i.015.i.i, 5
  %stride2.i9.i.5 = getelementptr inbounds %struct.halide_dimension_t, %struct.halide_dimension_t* %5, i32 %inc.i18.i.4, i32 2
  %42 = load i32, i32* %stride2.i9.i.5, align 4, !tbaa !50
  %cmp3.i10.i.5 = icmp slt i32 %42, 0
  br i1 %cmp3.i10.i.5, label %if.then.i16.i.5, label %if.end.i20.i.5

if.then.i16.i.5:                                  ; preds = %if.end.i20.i.4
  %extent.i12.i.5 = getelementptr inbounds %struct.halide_dimension_t, %struct.halide_dimension_t* %5, i32 %inc.i18.i.4, i32 1
  %43 = load i32, i32* %extent.i12.i.5, align 4, !tbaa !49
  %sub.i13.i.5 = add nsw i32 %43, -1
  %mul.i14.i.5 = mul nsw i32 %sub.i13.i.5, %42
  %add.i15.i.5 = add nsw i32 %mul.i14.i.5, %index.1.i17.i.4
  br label %if.end.i20.i.5

if.end.i20.i.5:                                   ; preds = %if.then.i16.i.5, %if.end.i20.i.4
  %index.1.i17.i.5 = phi i32 [ %add.i15.i.5, %if.then.i16.i.5 ], [ %index.1.i17.i.4, %if.end.i20.i.4 ]
  %inc.i18.i.5 = or i32 %i.015.i.i, 6
  %stride2.i9.i.6 = getelementptr inbounds %struct.halide_dimension_t, %struct.halide_dimension_t* %5, i32 %inc.i18.i.5, i32 2
  %44 = load i32, i32* %stride2.i9.i.6, align 4, !tbaa !50
  %cmp3.i10.i.6 = icmp slt i32 %44, 0
  br i1 %cmp3.i10.i.6, label %if.then.i16.i.6, label %if.end.i20.i.6

if.then.i16.i.6:                                  ; preds = %if.end.i20.i.5
  %extent.i12.i.6 = getelementptr inbounds %struct.halide_dimension_t, %struct.halide_dimension_t* %5, i32 %inc.i18.i.5, i32 1
  %45 = load i32, i32* %extent.i12.i.6, align 4, !tbaa !49
  %sub.i13.i.6 = add nsw i32 %45, -1
  %mul.i14.i.6 = mul nsw i32 %sub.i13.i.6, %44
  %add.i15.i.6 = add nsw i32 %mul.i14.i.6, %index.1.i17.i.5
  br label %if.end.i20.i.6

if.end.i20.i.6:                                   ; preds = %if.then.i16.i.6, %if.end.i20.i.5
  %index.1.i17.i.6 = phi i32 [ %add.i15.i.6, %if.then.i16.i.6 ], [ %index.1.i17.i.5, %if.end.i20.i.5 ]
  %inc.i18.i.6 = or i32 %i.015.i.i, 7
  %stride2.i9.i.7 = getelementptr inbounds %struct.halide_dimension_t, %struct.halide_dimension_t* %5, i32 %inc.i18.i.6, i32 2
  %46 = load i32, i32* %stride2.i9.i.7, align 4, !tbaa !50
  %cmp3.i10.i.7 = icmp slt i32 %46, 0
  br i1 %cmp3.i10.i.7, label %if.then.i16.i.7, label %if.end.i20.i.7

if.then.i16.i.7:                                  ; preds = %if.end.i20.i.6
  %extent.i12.i.7 = getelementptr inbounds %struct.halide_dimension_t, %struct.halide_dimension_t* %5, i32 %inc.i18.i.6, i32 1
  %47 = load i32, i32* %extent.i12.i.7, align 4, !tbaa !49
  %sub.i13.i.7 = add nsw i32 %47, -1
  %mul.i14.i.7 = mul nsw i32 %sub.i13.i.7, %46
  %add.i15.i.7 = add nsw i32 %mul.i14.i.7, %index.1.i17.i.6
  br label %if.end.i20.i.7

if.end.i20.i.7:                                   ; preds = %if.then.i16.i.7, %if.end.i20.i.6
  %index.1.i17.i.7 = phi i32 [ %add.i15.i.7, %if.then.i16.i.7 ], [ %index.1.i17.i.6, %if.end.i20.i.6 ]
  %inc.i18.i.7 = add nuw nsw i32 %i.015.i.i, 8
  %niter10.nsub.7 = add i32 %niter10, -8
  %niter10.ncmp.7 = icmp eq i32 %niter10.nsub.7, 0
  br i1 %niter10.ncmp.7, label %_ZNK15halide_buffer_t13size_in_bytesEv.exit.loopexit.unr-lcssa, label %for.body.i11.i, !llvm.loop !87
}

; Function Attrs: nounwind mustprogress
define weak i32 @halide_default_device_and_host_free(i8* %user_context, %struct.halide_buffer_t* %buf, %struct.halide_device_interface_t* %device_interface) local_unnamed_addr #0 {
entry:
  %cmp.i = icmp eq %struct.halide_buffer_t* %buf, null
  br i1 %cmp.i, label %if.then.i, label %if.end.i

if.then.i:                                        ; preds = %entry
  %call.i = tail call i32 @halide_error_buffer_is_null(i8* %user_context, i8* getelementptr inbounds ([36 x i8], [36 x i8]* @.str.30, i32 0, i32 0)) #14
  br label %_ZN12_GLOBAL__N_126debug_log_and_validate_bufEPvPK15halide_buffer_tPKc.exit

if.end.i:                                         ; preds = %entry
  %device_interface.i = getelementptr inbounds %struct.halide_buffer_t, %struct.halide_buffer_t* %buf, i32 0, i32 1
  %0 = load %struct.halide_device_interface_t*, %struct.halide_device_interface_t** %device_interface.i, align 8, !tbaa !42
  %cmp4.not.i = icmp eq %struct.halide_device_interface_t* %0, null
  %device.i = getelementptr inbounds %struct.halide_buffer_t, %struct.halide_buffer_t* %buf, i32 0, i32 0
  %1 = load i64, i64* %device.i, align 8, !tbaa !40
  %cmp5.not.i = icmp eq i64 %1, 0
  %cmp4.not.not.i = xor i1 %cmp4.not.i, true
  %brmerge.i = or i1 %cmp5.not.i, %cmp4.not.not.i
  br i1 %brmerge.i, label %if.end10.i, label %if.then8.i

if.then8.i:                                       ; preds = %if.end.i
  %call9.i = tail call i32 @halide_error_no_device_interface(i8* %user_context) #14
  br label %_ZN12_GLOBAL__N_126debug_log_and_validate_bufEPvPK15halide_buffer_tPKc.exit

if.end10.i:                                       ; preds = %if.end.i
  %cmp5.not.not.i = xor i1 %cmp5.not.i, true
  %brmerge44.i = or i1 %cmp4.not.i, %cmp5.not.not.i
  br i1 %brmerge44.i, label %if.end16.i, label %if.then14.i

if.then14.i:                                      ; preds = %if.end10.i
  %call15.i = tail call i32 @halide_error_device_interface_no_device(i8* %user_context) #14
  br label %_ZN12_GLOBAL__N_126debug_log_and_validate_bufEPvPK15halide_buffer_tPKc.exit

if.end16.i:                                       ; preds = %if.end10.i
  %flags.i.i46.i = getelementptr inbounds %struct.halide_buffer_t, %struct.halide_buffer_t* %buf, i32 0, i32 3
  %2 = load i64, i64* %flags.i.i46.i, align 8, !tbaa !44
  %3 = and i64 %2, 3
  %.not.i = icmp eq i64 %3, 3
  br i1 %.not.i, label %if.then24.i, label %if.end16.i.split

if.end16.i.split:                                 ; preds = %if.end16.i
  %call11 = tail call i32 @halide_device_free(i8* %user_context, %struct.halide_buffer_t* nonnull %buf) #15
  br label %if.end

if.then24.i:                                      ; preds = %if.end16.i
  %call25.i = tail call i32 @halide_error_host_and_device_dirty(i8* %user_context) #14
  br label %_ZN12_GLOBAL__N_126debug_log_and_validate_bufEPvPK15halide_buffer_tPKc.exit

_ZN12_GLOBAL__N_126debug_log_and_validate_bufEPvPK15halide_buffer_tPKc.exit: ; preds = %if.then24.i, %if.then14.i, %if.then8.i, %if.then.i
  %retval.2.i = phi i32 [ %call.i, %if.then.i ], [ %call15.i, %if.then14.i ], [ %call9.i, %if.then8.i ], [ %call25.i, %if.then24.i ]
  %cmp.not = icmp eq i32 %retval.2.i, 0
  br i1 %cmp.not, label %_ZN12_GLOBAL__N_126debug_log_and_validate_bufEPvPK15halide_buffer_tPKc.exit.split, label %cleanup

_ZN12_GLOBAL__N_126debug_log_and_validate_bufEPvPK15halide_buffer_tPKc.exit.split: ; preds = %_ZN12_GLOBAL__N_126debug_log_and_validate_bufEPvPK15halide_buffer_tPKc.exit
  %call12 = tail call i32 @halide_device_free(i8* %user_context, %struct.halide_buffer_t* %buf) #15
  br label %if.end

if.end:                                           ; preds = %_ZN12_GLOBAL__N_126debug_log_and_validate_bufEPvPK15halide_buffer_tPKc.exit.split, %if.end16.i.split
  %phi.call = phi i32 [ %call11, %if.end16.i.split ], [ %call12, %_ZN12_GLOBAL__N_126debug_log_and_validate_bufEPvPK15halide_buffer_tPKc.exit.split ]
  %host = getelementptr inbounds %struct.halide_buffer_t, %struct.halide_buffer_t* %buf, i32 0, i32 2
  %4 = load i8*, i8** %host, align 4, !tbaa !43
  %tobool.not = icmp eq i8* %4, null
  br i1 %tobool.not, label %if.end5, label %if.then2

if.then2:                                         ; preds = %if.end
  tail call void @halide_free(i8* %user_context, i8* nonnull %4) #14
  store i8* null, i8** %host, align 4, !tbaa !43
  br label %if.end5

if.end5:                                          ; preds = %if.then2, %if.end
  %flags3.i.i = getelementptr inbounds %struct.halide_buffer_t, %struct.halide_buffer_t* %buf, i32 0, i32 3
  %5 = load i64, i64* %flags3.i.i, align 8, !tbaa !44
  %and.i.i18 = and i64 %5, -4
  store i64 %and.i.i18, i64* %flags3.i.i, align 8, !tbaa !44
  br label %cleanup

cleanup:                                          ; preds = %if.end5, %_ZN12_GLOBAL__N_126debug_log_and_validate_bufEPvPK15halide_buffer_tPKc.exit
  %retval.0 = phi i32 [ %phi.call, %if.end5 ], [ %retval.2.i, %_ZN12_GLOBAL__N_126debug_log_and_validate_bufEPvPK15halide_buffer_tPKc.exit ]
  ret i32 %retval.0
}

; Function Attrs: nounwind mustprogress
define weak i32 @halide_device_wrap_native(i8* %user_context, %struct.halide_buffer_t* %buf, i64 %handle, %struct.halide_device_interface_t* %device_interface) local_unnamed_addr #0 {
entry:
  %cmp.i = icmp eq %struct.halide_buffer_t* %buf, null
  br i1 %cmp.i, label %if.then.i, label %if.end.i

if.then.i:                                        ; preds = %entry
  %call.i = tail call i32 @halide_error_buffer_is_null(i8* %user_context, i8* getelementptr inbounds ([26 x i8], [26 x i8]* @.str.31, i32 0, i32 0)) #14
  br label %_ZN12_GLOBAL__N_126debug_log_and_validate_bufEPvPK15halide_buffer_tPKc.exit

if.end.i:                                         ; preds = %entry
  %device_interface.i = getelementptr inbounds %struct.halide_buffer_t, %struct.halide_buffer_t* %buf, i32 0, i32 1
  %0 = load %struct.halide_device_interface_t*, %struct.halide_device_interface_t** %device_interface.i, align 8, !tbaa !42
  %cmp4.not.i = icmp eq %struct.halide_device_interface_t* %0, null
  %device.i = getelementptr inbounds %struct.halide_buffer_t, %struct.halide_buffer_t* %buf, i32 0, i32 0
  %1 = load i64, i64* %device.i, align 8, !tbaa !40
  %cmp5.not.i = icmp eq i64 %1, 0
  %cmp4.not.not.i = xor i1 %cmp4.not.i, true
  %brmerge.i = or i1 %cmp5.not.i, %cmp4.not.not.i
  br i1 %brmerge.i, label %if.end10.i, label %if.then8.i

if.then8.i:                                       ; preds = %if.end.i
  %call9.i = tail call i32 @halide_error_no_device_interface(i8* %user_context) #14
  br label %_ZN12_GLOBAL__N_126debug_log_and_validate_bufEPvPK15halide_buffer_tPKc.exit

if.end10.i:                                       ; preds = %if.end.i
  %cmp5.not.not.i = xor i1 %cmp5.not.i, true
  %brmerge44.i = or i1 %cmp4.not.i, %cmp5.not.not.i
  br i1 %brmerge44.i, label %if.end16.i, label %if.then14.i

if.then14.i:                                      ; preds = %if.end10.i
  %call15.i = tail call i32 @halide_error_device_interface_no_device(i8* %user_context) #14
  br label %_ZN12_GLOBAL__N_126debug_log_and_validate_bufEPvPK15halide_buffer_tPKc.exit

if.end16.i:                                       ; preds = %if.end10.i
  %flags.i.i46.i = getelementptr inbounds %struct.halide_buffer_t, %struct.halide_buffer_t* %buf, i32 0, i32 3
  %2 = load i64, i64* %flags.i.i46.i, align 8, !tbaa !44
  %3 = and i64 %2, 3
  %.not.i = icmp eq i64 %3, 3
  br i1 %.not.i, label %if.then24.i, label %if.end

if.then24.i:                                      ; preds = %if.end16.i
  %call25.i = tail call i32 @halide_error_host_and_device_dirty(i8* %user_context) #14
  br label %_ZN12_GLOBAL__N_126debug_log_and_validate_bufEPvPK15halide_buffer_tPKc.exit

_ZN12_GLOBAL__N_126debug_log_and_validate_bufEPvPK15halide_buffer_tPKc.exit: ; preds = %if.then24.i, %if.then14.i, %if.then8.i, %if.then.i
  %retval.2.i = phi i32 [ %call.i, %if.then.i ], [ %call15.i, %if.then14.i ], [ %call9.i, %if.then8.i ], [ %call25.i, %if.then24.i ]
  %cmp.not = icmp eq i32 %retval.2.i, 0
  br i1 %cmp.not, label %_ZN12_GLOBAL__N_126debug_log_and_validate_bufEPvPK15halide_buffer_tPKc.exit.if.end_crit_edge, label %cleanup12

_ZN12_GLOBAL__N_126debug_log_and_validate_bufEPvPK15halide_buffer_tPKc.exit.if.end_crit_edge: ; preds = %_ZN12_GLOBAL__N_126debug_log_and_validate_bufEPvPK15halide_buffer_tPKc.exit
  %device_interface1.phi.trans.insert = getelementptr inbounds %struct.halide_buffer_t, %struct.halide_buffer_t* %buf, i32 0, i32 1
  %.pre = load %struct.halide_device_interface_t*, %struct.halide_device_interface_t** %device_interface1.phi.trans.insert, align 8, !tbaa !42
  br label %if.end

if.end:                                           ; preds = %_ZN12_GLOBAL__N_126debug_log_and_validate_bufEPvPK15halide_buffer_tPKc.exit.if.end_crit_edge, %if.end16.i
  %4 = phi %struct.halide_device_interface_t* [ %.pre, %_ZN12_GLOBAL__N_126debug_log_and_validate_bufEPvPK15halide_buffer_tPKc.exit.if.end_crit_edge ], [ %0, %if.end16.i ]
  %cmp2.not = icmp eq %struct.halide_device_interface_t* %4, null
  %cmp3.not = icmp eq %struct.halide_device_interface_t* %4, %device_interface
  %or.cond = or i1 %cmp2.not, %cmp3.not
  br i1 %or.cond, label %if.end5, label %if.then4

if.then4:                                         ; preds = %if.end
  tail call void @halide_error(i8* %user_context, i8* getelementptr inbounds ([64 x i8], [64 x i8]* @.str.32, i32 0, i32 0)) #14
  br label %cleanup12

if.end5:                                          ; preds = %if.end
  %device_interface1 = getelementptr inbounds %struct.halide_buffer_t, %struct.halide_buffer_t* %buf, i32 0, i32 1
  %impl = getelementptr inbounds %struct.halide_device_interface_t, %struct.halide_device_interface_t* %device_interface, i32 0, i32 15
  %5 = load %struct.halide_device_interface_impl_t*, %struct.halide_device_interface_impl_t** %impl, align 4, !tbaa !71
  %use_module = getelementptr inbounds %struct.halide_device_interface_impl_t, %struct.halide_device_interface_impl_t* %5, i32 0, i32 0
  %6 = load void ()*, void ()** %use_module, align 4, !tbaa !77
  tail call void %6() #14
  store %struct.halide_device_interface_t* %device_interface, %struct.halide_device_interface_t** %device_interface1, align 8, !tbaa !42
  %7 = load %struct.halide_device_interface_impl_t*, %struct.halide_device_interface_impl_t** %impl, align 4, !tbaa !71
  %wrap_native = getelementptr inbounds %struct.halide_device_interface_impl_t, %struct.halide_device_interface_impl_t* %7, i32 0, i32 14
  %8 = load i32 (i8*, %struct.halide_buffer_t*, i64)*, i32 (i8*, %struct.halide_buffer_t*, i64)** %wrap_native, align 4, !tbaa !88
  %call8 = tail call i32 %8(i8* %user_context, %struct.halide_buffer_t* nonnull %buf, i64 %handle) #14
  %9 = load %struct.halide_device_interface_impl_t*, %struct.halide_device_interface_impl_t** %impl, align 4, !tbaa !71
  %release_module = getelementptr inbounds %struct.halide_device_interface_impl_t, %struct.halide_device_interface_impl_t* %9, i32 0, i32 1
  %10 = load void ()*, void ()** %release_module, align 4, !tbaa !79
  tail call void %10() #14
  %tobool.not = icmp eq i32 %call8, 0
  %spec.select = select i1 %tobool.not, i32 0, i32 -16
  ret i32 %spec.select

cleanup12:                                        ; preds = %if.then4, %_ZN12_GLOBAL__N_126debug_log_and_validate_bufEPvPK15halide_buffer_tPKc.exit
  %retval.1 = phi i32 [ %retval.2.i, %_ZN12_GLOBAL__N_126debug_log_and_validate_bufEPvPK15halide_buffer_tPKc.exit ], [ -42, %if.then4 ]
  ret i32 %retval.1
}

; Function Attrs: nounwind mustprogress
define weak i32 @halide_device_detach_native(i8* %user_context, %struct.halide_buffer_t* %buf) local_unnamed_addr #0 {
entry:
  %cmp.i = icmp eq %struct.halide_buffer_t* %buf, null
  br i1 %cmp.i, label %if.then.i, label %if.end.i

if.then.i:                                        ; preds = %entry
  %call.i = tail call i32 @halide_error_buffer_is_null(i8* %user_context, i8* getelementptr inbounds ([28 x i8], [28 x i8]* @.str.33, i32 0, i32 0)) #14
  br label %_ZN12_GLOBAL__N_126debug_log_and_validate_bufEPvPK15halide_buffer_tPKc.exit

if.end.i:                                         ; preds = %entry
  %device_interface.i = getelementptr inbounds %struct.halide_buffer_t, %struct.halide_buffer_t* %buf, i32 0, i32 1
  %0 = load %struct.halide_device_interface_t*, %struct.halide_device_interface_t** %device_interface.i, align 8, !tbaa !42
  %cmp4.not.i = icmp eq %struct.halide_device_interface_t* %0, null
  %device.i = getelementptr inbounds %struct.halide_buffer_t, %struct.halide_buffer_t* %buf, i32 0, i32 0
  %1 = load i64, i64* %device.i, align 8, !tbaa !40
  %cmp5.not.i = icmp eq i64 %1, 0
  %cmp4.not.not.i = xor i1 %cmp4.not.i, true
  %brmerge.i = or i1 %cmp5.not.i, %cmp4.not.not.i
  br i1 %brmerge.i, label %if.end10.i, label %if.then8.i

if.then8.i:                                       ; preds = %if.end.i
  %call9.i = tail call i32 @halide_error_no_device_interface(i8* %user_context) #14
  br label %_ZN12_GLOBAL__N_126debug_log_and_validate_bufEPvPK15halide_buffer_tPKc.exit

if.end10.i:                                       ; preds = %if.end.i
  %cmp5.not.not.i = xor i1 %cmp5.not.i, true
  %brmerge44.i = or i1 %cmp4.not.i, %cmp5.not.not.i
  br i1 %brmerge44.i, label %if.end16.i, label %if.then14.i

if.then14.i:                                      ; preds = %if.end10.i
  %call15.i = tail call i32 @halide_error_device_interface_no_device(i8* %user_context) #14
  br label %_ZN12_GLOBAL__N_126debug_log_and_validate_bufEPvPK15halide_buffer_tPKc.exit

if.end16.i:                                       ; preds = %if.end10.i
  %flags.i.i46.i = getelementptr inbounds %struct.halide_buffer_t, %struct.halide_buffer_t* %buf, i32 0, i32 3
  %2 = load i64, i64* %flags.i.i46.i, align 8, !tbaa !44
  %3 = and i64 %2, 3
  %.not.i = icmp eq i64 %3, 3
  br i1 %.not.i, label %if.then24.i, label %if.end

if.then24.i:                                      ; preds = %if.end16.i
  %call25.i = tail call i32 @halide_error_host_and_device_dirty(i8* %user_context) #14
  br label %_ZN12_GLOBAL__N_126debug_log_and_validate_bufEPvPK15halide_buffer_tPKc.exit

