; ModuleID = 'conv3x3a16'
source_filename = "/home/muchenx2/Hydride/frontends/halide/src/runtime/posix_allocator.cpp"
target datalayout = "e-m:o-i64:64-i128:128-n32:64-S128"
target triple = "arm64-apple-macosx"

%struct.mach_timebase_info = type { i32, i32 }
%"struct.Halide::Runtime::Internal::Synchronization::hash_table" = type { [1024 x %"struct.Halide::Runtime::Internal::Synchronization::hash_bucket"] }
%"struct.Halide::Runtime::Internal::Synchronization::hash_bucket" = type { %"class.Halide::Runtime::Internal::Synchronization::word_lock", %"struct.Halide::Runtime::Internal::Synchronization::queue_data"*, %"struct.Halide::Runtime::Internal::Synchronization::queue_data"* }
%"class.Halide::Runtime::Internal::Synchronization::word_lock" = type { i64 }
%"struct.Halide::Runtime::Internal::Synchronization::queue_data" = type { %"struct.Halide::Runtime::Internal::Synchronization::thread_parker", i64, %"struct.Halide::Runtime::Internal::Synchronization::queue_data"*, i64 }
%"struct.Halide::Runtime::Internal::Synchronization::thread_parker" = type <{ %struct.pthread_mutex_t, %struct.pthread_mutex_t, i8, [7 x i8] }>
%struct.pthread_mutex_t = type { [8 x i64] }
%"struct.Halide::Runtime::Internal::work_queue_t" = type { %struct.halide_mutex, i32, i32, %"struct.Halide::Runtime::Internal::work"*, i32, i32, i32, [4 x i8], %struct.halide_mutex, %struct.halide_mutex, %struct.halide_mutex, i32, i32, [256 x %struct.halide_thread*], i8, i8, i32 }
%"struct.Halide::Runtime::Internal::work" = type { %struct.halide_parallel_task_t, i32 (i8*, i32, i8*)*, %"struct.Halide::Runtime::Internal::work"*, %"struct.Halide::Runtime::Internal::work"*, i32, %"struct.Halide::Runtime::Internal::work"*, i32, i8*, i32, i32, i32, i8 }
%struct.halide_parallel_task_t = type { i32 (i8*, i32, i32, i8*, i8*)*, i8*, i8*, %struct.halide_semaphore_acquire_t*, i32, i32, i32, i32, i8, [7 x i8] }
%struct.halide_semaphore_acquire_t = type { %struct.halide_semaphore_t*, i32, [4 x i8] }
%struct.halide_semaphore_t = type { [2 x i64] }
%struct.halide_mutex = type { [1 x i64] }
%struct.halide_thread = type opaque
%"class.Halide::Runtime::Internal::TraceBuffer" = type { %"class.Halide::Runtime::Internal::SharedExclusiveSpinLock", i32, i32, [1048576 x i8] }
%"class.Halide::Runtime::Internal::SharedExclusiveSpinLock" = type { i32 }
%struct.halide_trace_event_t = type <{ i8*, i8*, i32*, i8*, %struct.halide_type_t, i32, i32, i32, i32, [4 x i8] }>
%struct.halide_type_t = type { i8, i8, i16 }
%"struct.Halide::Runtime::Internal::CacheEntry" = type { %"struct.Halide::Runtime::Internal::CacheEntry"*, %"struct.Halide::Runtime::Internal::CacheEntry"*, %"struct.Halide::Runtime::Internal::CacheEntry"*, i8*, i64, i8*, i32, i32, i32, i32, %struct.halide_dimension_t*, %struct.halide_buffer_t*, i64, i8, [7 x i8] }
%struct.halide_dimension_t = type { i32, i32, i32, i32 }
%struct.halide_buffer_t = type { i64, %struct.halide_device_interface_t*, i8*, i64, %struct.halide_type_t, i32, %struct.halide_dimension_t*, i8* }
%struct.halide_device_interface_t = type { i32 (i8*, %struct.halide_buffer_t*, %struct.halide_device_interface_t*)*, i32 (i8*, %struct.halide_buffer_t*)*, i32 (i8*, %struct.halide_buffer_t*)*, void (i8*, %struct.halide_device_interface_t*)*, i32 (i8*, %struct.halide_buffer_t*)*, i32 (i8*, %struct.halide_buffer_t*, %struct.halide_device_interface_t*)*, i32 (i8*, %struct.halide_buffer_t*, %struct.halide_device_interface_t*)*, i32 (i8*, %struct.halide_buffer_t*)*, i32 (i8*, %struct.halide_buffer_t*, %struct.halide_device_interface_t*, %struct.halide_buffer_t*)*, i32 (i8*, %struct.halide_buffer_t*, %struct.halide_buffer_t*)*, i32 (i8*, %struct.halide_buffer_t*, i32, i32, %struct.halide_buffer_t*)*, i32 (i8*, %struct.halide_buffer_t*)*, i32 (i8*, %struct.halide_buffer_t*, i64, %struct.halide_device_interface_t*)*, i32 (i8*, %struct.halide_buffer_t*)*, i32 (i8*, i32*, i32*)*, %struct.halide_device_interface_impl_t* }
%struct.halide_device_interface_impl_t = type { void ()*, void ()*, i32 (i8*, %struct.halide_buffer_t*)*, i32 (i8*, %struct.halide_buffer_t*)*, i32 (i8*, %struct.halide_buffer_t*)*, i32 (i8*)*, i32 (i8*, %struct.halide_buffer_t*)*, i32 (i8*, %struct.halide_buffer_t*)*, i32 (i8*, %struct.halide_buffer_t*)*, i32 (i8*, %struct.halide_buffer_t*)*, i32 (i8*, %struct.halide_buffer_t*, %struct.halide_device_interface_t*, %struct.halide_buffer_t*)*, i32 (i8*, %struct.halide_buffer_t*, %struct.halide_buffer_t*)*, i32 (i8*, %struct.halide_buffer_t*, i32, i32, %struct.halide_buffer_t*)*, i32 (i8*, %struct.halide_buffer_t*)*, i32 (i8*, %struct.halide_buffer_t*, i64)*, i32 (i8*, %struct.halide_buffer_t*)* }
%struct.halide_device_allocation_pool = type { i32 (i8*)*, %struct.halide_device_allocation_pool* }
%struct.halide_profiler_state = type { %struct.halide_mutex, i32, i32, i32, i32, %struct.halide_profiler_pipeline_stats*, void (i32*, i32*)*, %struct.halide_thread* }
%struct.halide_profiler_pipeline_stats = type { i64, i64, i64, i64, i64, i64, i8*, %struct.halide_profiler_func_stats*, i8*, i32, i32, i32, i32, i32, [4 x i8] }
%struct.halide_profiler_func_stats = type { i64, i64, i64, i64, i64, i64, i64, i8*, i32, [4 x i8] }
%struct.halide_filter_argument_t = type { i8*, i32, i32, %struct.halide_type_t, %struct.halide_scalar_value_t*, %struct.halide_scalar_value_t*, %struct.halide_scalar_value_t*, %struct.halide_scalar_value_t*, i64** }
%struct.halide_scalar_value_t = type { %union.anon.28 }
%union.anon.28 = type { double }
%struct.halide_filter_metadata_t = type { i32, i32, %struct.halide_filter_argument_t*, i8*, i8* }
%"struct.Halide::Runtime::Internal::Synchronization::mutex_parking_control" = type { %"struct.Halide::Runtime::Internal::Synchronization::parking_control", i64* }
%"struct.Halide::Runtime::Internal::Synchronization::parking_control" = type { i32 (...)** }
%"struct.Halide::Runtime::Internal::Synchronization::word_lock_queue_data" = type { %"struct.Halide::Runtime::Internal::Synchronization::thread_parker", %"struct.Halide::Runtime::Internal::Synchronization::word_lock_queue_data"*, %"struct.Halide::Runtime::Internal::Synchronization::word_lock_queue_data"*, %"struct.Halide::Runtime::Internal::Synchronization::word_lock_queue_data"* }
%"struct.Halide::Runtime::Internal::Synchronization::validate_action" = type { i8, [7 x i8], i64 }
%"struct.Halide::Runtime::Internal::Synchronization::wait_parking_control" = type { %"struct.Halide::Runtime::Internal::Synchronization::parking_control", i64*, %"class.Halide::Runtime::Internal::Synchronization::word_lock"* }
%"struct.Halide::Runtime::Internal::Synchronization::bucket_pair" = type { %"struct.Halide::Runtime::Internal::Synchronization::hash_bucket"*, %"struct.Halide::Runtime::Internal::Synchronization::hash_bucket"* }
%"struct.Halide::Runtime::Internal::spawned_thread" = type { void (i8*)*, i8*, i64 }
%struct.halide_mutex_array = type { %struct.halide_mutex* }
%"struct.Halide::Runtime::Internal::halide_tiff_header" = type <{ i16, i16, i32, i16, [15 x %"struct.Halide::Runtime::Internal::tiff_tag"], i32, [2 x i32], [2 x i32] }>
%"struct.Halide::Runtime::Internal::tiff_tag" = type { i16, i16, i32, %"class.Halide::Runtime::Internal::SharedExclusiveSpinLock" }
%"struct.Halide::Runtime::Internal::CacheBlockHeader" = type { %"struct.Halide::Runtime::Internal::CacheEntry"*, i32, [4 x i8] }
%"struct.Halide::Runtime::Internal::device_copy" = type { i64, i64, i64, [16 x i64], [16 x i64], [16 x i64], i64 }
%"struct.Halide::Runtime::Internal::CpuFeatures" = type { [2 x i64], [2 x i64] }
%struct.halide_pseudostack_slot_t = type { i8*, i64, i64 }

@_ZN6Halide7Runtime8Internal13custom_mallocE = linkonce local_unnamed_addr global i8* (i8*, i64)* @halide_default_malloc, align 8
@_ZN6Halide7Runtime8Internal11custom_freeE = linkonce local_unnamed_addr global void (i8*, i8*)* @halide_default_free, align 8
@_ZN6Halide7Runtime8Internal13error_handlerE = linkonce local_unnamed_addr global void (i8*, i8*)* @halide_default_error, align 8
@.str = private unnamed_addr constant [8 x i8] c"Error: \00", align 1
@_ZN6Halide7Runtime8Internal12custom_printE = linkonce local_unnamed_addr global void (i8*, i8*)* @halide_default_print, align 8
@_ZN6Halide7Runtime8Internal29halide_reference_clock_initedE = linkonce local_unnamed_addr global i8 0, align 1
@_ZN6Halide7Runtime8Internal22halide_reference_clockE = linkonce local_unnamed_addr global i64 0, align 8
@_ZN6Halide7Runtime8Internal20halide_timebase_infoE = linkonce global %struct.mach_timebase_info zeroinitializer, align 4
@_ZN6Halide7Runtime8Internal15Synchronization5tableE = linkonce global %"struct.Halide::Runtime::Internal::Synchronization::hash_table" zeroinitializer, align 8
@_ZN6Halide7Runtime8Internal10work_queueE = linkonce global %"struct.Halide::Runtime::Internal::work_queue_t" { %struct.halide_mutex zeroinitializer, i32 0, i32 0, %"struct.Halide::Runtime::Internal::work"* null, i32 0, i32 0, i32 0, [4 x i8] undef, %struct.halide_mutex zeroinitializer, %struct.halide_mutex zeroinitializer, %struct.halide_mutex zeroinitializer, i32 0, i32 0, [256 x %struct.halide_thread*] zeroinitializer, i8 0, i8 0, i32 0 }, align 8
@_ZN6Halide7Runtime8Internal14custom_do_taskE = linkonce local_unnamed_addr global i32 (i8*, i32 (i8*, i32, i8*)*, i32, i8*)* @halide_default_do_task, align 8
@_ZN6Halide7Runtime8Internal19custom_do_loop_taskE = linkonce local_unnamed_addr global i32 (i8*, i32 (i8*, i32, i32, i8*, i8*)*, i32, i32, i8*, i8*)* @halide_default_do_loop_task, align 8
@_ZN6Halide7Runtime8Internal17custom_do_par_forE = linkonce local_unnamed_addr global i32 (i8*, i32 (i8*, i32, i8*)*, i32, i32, i8*)* @halide_default_do_par_for, align 8
@_ZTVN6Halide7Runtime8Internal15Synchronization21mutex_parking_controlE = linkonce_odr unnamed_addr constant { [6 x i8*] } { [6 x i8*] [i8* null, i8* null, i8* bitcast (i1 (%"struct.Halide::Runtime::Internal::Synchronization::mutex_parking_control"*, %"struct.Halide::Runtime::Internal::Synchronization::validate_action"*)* @_ZN6Halide7Runtime8Internal15Synchronization21mutex_parking_control8validateERNS2_15validate_actionE to i8*), i8* bitcast (void (%"struct.Halide::Runtime::Internal::Synchronization::parking_control"*)* @_ZN6Halide7Runtime8Internal15Synchronization15parking_control12before_sleepEv to i8*), i8* bitcast (i64 (%"struct.Halide::Runtime::Internal::Synchronization::mutex_parking_control"*, i32, i1)* @_ZN6Halide7Runtime8Internal15Synchronization21mutex_parking_control6unparkEib to i8*), i8* bitcast (void (%"struct.Halide::Runtime::Internal::Synchronization::parking_control"*, %"struct.Halide::Runtime::Internal::Synchronization::validate_action"*, i1, i1)* @_ZN6Halide7Runtime8Internal15Synchronization15parking_control16requeue_callbackERKNS2_15validate_actionEbb to i8*)] }, align 8
@.str.5 = private unnamed_addr constant [130 x i8] c"/home/muchenx2/Hydride/frontends/halide/src/runtime/synchronization_common.h:386 halide_abort_if_false() failed: next != nullptr\0A\00", align 1
@_ZTVN6Halide7Runtime8Internal15Synchronization20wait_parking_controlE = linkonce_odr unnamed_addr constant { [6 x i8*] } { [6 x i8*] [i8* null, i8* null, i8* bitcast (i1 (%"struct.Halide::Runtime::Internal::Synchronization::wait_parking_control"*, %"struct.Halide::Runtime::Internal::Synchronization::validate_action"*)* @_ZN6Halide7Runtime8Internal15Synchronization20wait_parking_control8validateERNS2_15validate_actionE to i8*), i8* bitcast (void (%"struct.Halide::Runtime::Internal::Synchronization::wait_parking_control"*)* @_ZN6Halide7Runtime8Internal15Synchronization20wait_parking_control12before_sleepEv to i8*), i8* bitcast (i64 (%"struct.Halide::Runtime::Internal::Synchronization::wait_parking_control"*, i32, i1)* @_ZN6Halide7Runtime8Internal15Synchronization20wait_parking_control6unparkEib to i8*), i8* bitcast (void (%"struct.Halide::Runtime::Internal::Synchronization::parking_control"*, %"struct.Halide::Runtime::Internal::Synchronization::validate_action"*, i1, i1)* @_ZN6Halide7Runtime8Internal15Synchronization15parking_control16requeue_callbackERKNS2_15validate_actionEbb to i8*)] }, align 8
@.str.5.6 = private unnamed_addr constant [124 x i8] c"/home/muchenx2/Hydride/frontends/halide/src/runtime/synchronization_common.h:994 halide_abort_if_false() failed: val & 0x1\0A\00", align 1
@_ZTVN6Halide7Runtime8Internal15Synchronization25broadcast_parking_controlE = linkonce_odr unnamed_addr constant { [6 x i8*] } { [6 x i8*] [i8* null, i8* null, i8* bitcast (i1 (%"struct.Halide::Runtime::Internal::Synchronization::wait_parking_control"*, %"struct.Halide::Runtime::Internal::Synchronization::validate_action"*)* @_ZN6Halide7Runtime8Internal15Synchronization25broadcast_parking_control8validateERNS2_15validate_actionE to i8*), i8* bitcast (void (%"struct.Halide::Runtime::Internal::Synchronization::parking_control"*)* @_ZN6Halide7Runtime8Internal15Synchronization15parking_control12before_sleepEv to i8*), i8* bitcast (i64 (%"struct.Halide::Runtime::Internal::Synchronization::parking_control"*, i32, i1)* @_ZN6Halide7Runtime8Internal15Synchronization15parking_control6unparkEib to i8*), i8* bitcast (void (%"struct.Halide::Runtime::Internal::Synchronization::wait_parking_control"*, %"struct.Halide::Runtime::Internal::Synchronization::validate_action"*, i1, i1)* @_ZN6Halide7Runtime8Internal15Synchronization25broadcast_parking_control16requeue_callbackERKNS2_15validate_actionEbb to i8*)] }, align 8
@.str.6 = private unnamed_addr constant [186 x i8] c"/home/muchenx2/Hydride/frontends/halide/src/runtime/thread_pool_common.h:155 halide_abort_if_false() failed: bytes == limit && \22Logic error in thread pool work queue initialization.\\n\22\0A\00", align 1
@.str.3 = private unnamed_addr constant [263 x i8] c"/home/muchenx2/Hydride/frontends/halide/src/runtime/thread_pool_common.h:527 halide_abort_if_false() failed: (min_threads <= ((task_parent->task.min_threads * task_parent->active_workers) - task_parent->threads_reserved)) && \22Logic error: thread over commit.\\n\22\0A\00", align 1
@.str.1 = private unnamed_addr constant [15 x i8] c"HL_NUM_THREADS\00", align 1
@.str.2 = private unnamed_addr constant [14 x i8] c"HL_NUMTHREADS\00", align 1
@_ZN6Halide7Runtime8Internal24custom_do_parallel_tasksE = linkonce local_unnamed_addr global i32 (i8*, i32, %struct.halide_parallel_task_t*, i8*)* @halide_default_do_parallel_tasks, align 8
@_ZN6Halide7Runtime8Internal21custom_semaphore_initE = linkonce local_unnamed_addr global i32 (%struct.halide_semaphore_t*, i32)* @halide_default_semaphore_init, align 8
@_ZN6Halide7Runtime8Internal28custom_semaphore_try_acquireE = linkonce local_unnamed_addr global i1 (%struct.halide_semaphore_t*, i32)* @halide_default_semaphore_try_acquire, align 8
@_ZN6Halide7Runtime8Internal24custom_semaphore_releaseE = linkonce local_unnamed_addr global i32 (%struct.halide_semaphore_t*, i32)* @halide_default_semaphore_release, align 8
@llvm.global_dtors = appending global [4 x { i32, void ()*, i8* }] [{ i32, void ()*, i8* } { i32 65535, void ()* @halide_thread_pool_cleanup, i8* null }, { i32, void ()*, i8* } { i32 65535, void ()* @halide_trace_cleanup, i8* null }, { i32, void ()*, i8* } { i32 65535, void ()* @halide_cache_cleanup, i8* null }, { i32, void ()*, i8* } { i32 65535, void ()* @halide_profiler_shutdown, i8* null }]
@_ZTVN6Halide7Runtime8Internal15Synchronization22signal_parking_controlE = linkonce_odr unnamed_addr constant { [6 x i8*] } { [6 x i8*] [i8* null, i8* null, i8* bitcast (i1 (%"struct.Halide::Runtime::Internal::Synchronization::parking_control"*, %"struct.Halide::Runtime::Internal::Synchronization::validate_action"*)* @_ZN6Halide7Runtime8Internal15Synchronization15parking_control8validateERNS2_15validate_actionE to i8*), i8* bitcast (void (%"struct.Halide::Runtime::Internal::Synchronization::parking_control"*)* @_ZN6Halide7Runtime8Internal15Synchronization15parking_control12before_sleepEv to i8*), i8* bitcast (i64 (%"struct.Halide::Runtime::Internal::Synchronization::wait_parking_control"*, i32, i1)* @_ZN6Halide7Runtime8Internal15Synchronization22signal_parking_control6unparkEib to i8*), i8* bitcast (void (%"struct.Halide::Runtime::Internal::Synchronization::parking_control"*, %"struct.Halide::Runtime::Internal::Synchronization::validate_action"*, i1, i1)* @_ZN6Halide7Runtime8Internal15Synchronization15parking_control16requeue_callbackERKNS2_15validate_actionEbb to i8*)] }, align 8
@.str.4 = private unnamed_addr constant [38 x i8] c"halide_set_num_threads: must be >= 0.\00", align 1
@_ZN6Halide7Runtime8Internal17custom_get_symbolE = linkonce local_unnamed_addr global i8* (i8*)* @halide_default_get_symbol, align 8
@_ZN6Halide7Runtime8Internal19custom_load_libraryE = linkonce local_unnamed_addr global i8* (i8*)* @halide_default_load_library, align 8
@_ZN6Halide7Runtime8Internal25custom_get_library_symbolE = linkonce local_unnamed_addr global i8* (i8*, i8*)* @halide_default_get_library_symbol, align 8
@_ZN6Halide7Runtime8Internal17halide_gpu_deviceE = linkonce local_unnamed_addr global i32 0, align 4
@_ZN6Halide7Runtime8Internal22halide_gpu_device_lockE = linkonce global i8 0, align 1
@_ZN6Halide7Runtime8Internal29halide_gpu_device_initializedE = linkonce local_unnamed_addr global i8 0, align 1
@.str.8 = private unnamed_addr constant [14 x i8] c"HL_GPU_DEVICE\00", align 1
@_ZN6Halide7Runtime8Internal19halide_trace_bufferE = linkonce local_unnamed_addr global %"class.Halide::Runtime::Internal::TraceBuffer"* null, align 8
@_ZN6Halide7Runtime8Internal17halide_trace_fileE = linkonce local_unnamed_addr global i32 -1, align 4
@_ZN6Halide7Runtime8Internal22halide_trace_file_lockE = linkonce global i8 0, align 1
@_ZN6Halide7Runtime8Internal29halide_trace_file_initializedE = linkonce local_unnamed_addr global i8 0, align 1
@_ZN6Halide7Runtime8Internal35halide_trace_file_internally_openedE = linkonce local_unnamed_addr global i8* null, align 8
@_ZN6Halide7Runtime8Internal19halide_custom_traceE = linkonce local_unnamed_addr global i32 (i8*, %struct.halide_trace_event_t*)* @halide_default_trace, align 8
@_ZZ20halide_default_traceE3ids = internal global i32 1, align 4
@.str.32 = private unnamed_addr constant [144 x i8] c"/home/muchenx2/Hydride/frontends/halide/src/runtime/tracing.cpp:115 halide_abort_if_false() failed: success && \22Could not write to trace file\22\0A\00", align 1
@.str.31 = private unnamed_addr constant [120 x i8] c"/home/muchenx2/Hydride/frontends/halide/src/runtime/tracing.cpp:87 halide_abort_if_false() failed: size <= buffer_size\0A\00", align 1
@.str.1.10 = private unnamed_addr constant [1 x i8] zeroinitializer, align 1
@.str.2.11 = private unnamed_addr constant [140 x i8] c"/home/muchenx2/Hydride/frontends/halide/src/runtime/tracing.cpp:218 halide_abort_if_false() failed: print_bits <= 64 && \22Tracing bad type\22\0A\00", align 1
@__const.halide_default_trace.event_types = private unnamed_addr constant [11 x i8*] [i8* getelementptr inbounds ([5 x i8], [5 x i8]* @.str.3.12, i32 0, i32 0), i8* getelementptr inbounds ([6 x i8], [6 x i8]* @.str.4.13, i32 0, i32 0), i8* getelementptr inbounds ([18 x i8], [18 x i8]* @.str.5.14, i32 0, i32 0), i8* getelementptr inbounds ([16 x i8], [16 x i8]* @.str.6.15, i32 0, i32 0), i8* getelementptr inbounds ([8 x i8], [8 x i8]* @.str.7, i32 0, i32 0), i8* getelementptr inbounds ([12 x i8], [12 x i8]* @.str.8.16, i32 0, i32 0), i8* getelementptr inbounds ([8 x i8], [8 x i8]* @.str.9.17, i32 0, i32 0), i8* getelementptr inbounds ([12 x i8], [12 x i8]* @.str.10, i32 0, i32 0), i8* getelementptr inbounds ([15 x i8], [15 x i8]* @.str.11, i32 0, i32 0), i8* getelementptr inbounds ([13 x i8], [13 x i8]* @.str.12, i32 0, i32 0), i8* getelementptr inbounds ([4 x i8], [4 x i8]* @.str.13, i32 0, i32 0)], align 8
@.str.17 = private unnamed_addr constant [2 x i8] c"<\00", align 1
@.str.20 = private unnamed_addr constant [3 x i8] c">)\00", align 1
@.str.18 = private unnamed_addr constant [5 x i8] c">, <\00", align 1
@.str.22 = private unnamed_addr constant [5 x i8] c" = <\00", align 1
@.str.23 = private unnamed_addr constant [4 x i8] c" = \00", align 1
@.str.24 = private unnamed_addr constant [142 x i8] c"/home/muchenx2/Hydride/frontends/halide/src/runtime/tracing.cpp:287 halide_abort_if_false() failed: print_bits >= 16 && \22Tracing a bad type\22\0A\00", align 1
@.str.25 = private unnamed_addr constant [2 x i8] c">\00", align 1
@.str.26 = private unnamed_addr constant [9 x i8] c" tag = \22\00", align 1
@.str.27 = private unnamed_addr constant [2 x i8] c"\22\00", align 1
@.str.3.12 = private unnamed_addr constant [5 x i8] c"Load\00", align 1
@.str.4.13 = private unnamed_addr constant [6 x i8] c"Store\00", align 1
@.str.5.14 = private unnamed_addr constant [18 x i8] c"Begin realization\00", align 1
@.str.6.15 = private unnamed_addr constant [16 x i8] c"End realization\00", align 1
@.str.7 = private unnamed_addr constant [8 x i8] c"Produce\00", align 1
@.str.8.16 = private unnamed_addr constant [12 x i8] c"End produce\00", align 1
@.str.9.17 = private unnamed_addr constant [8 x i8] c"Consume\00", align 1
@.str.10 = private unnamed_addr constant [12 x i8] c"End consume\00", align 1
@.str.11 = private unnamed_addr constant [15 x i8] c"Begin pipeline\00", align 1
@.str.12 = private unnamed_addr constant [13 x i8] c"End pipeline\00", align 1
@.str.13 = private unnamed_addr constant [4 x i8] c"Tag\00", align 1
@.str.28 = private unnamed_addr constant [14 x i8] c"HL_TRACE_FILE\00", align 1
@.str.29 = private unnamed_addr constant [3 x i8] c"ab\00", align 1
@.str.30 = private unnamed_addr constant [139 x i8] c"/home/muchenx2/Hydride/frontends/halide/src/runtime/tracing.cpp:351 halide_abort_if_false() failed: file && \22Failed to open trace file\\n\22\0A\00", align 1
@_ZN6Halide7Runtime8Internal30pixel_type_to_tiff_sample_typeE = linkonce local_unnamed_addr global [10 x i16] [i16 3, i16 3, i16 1, i16 2, i16 1, i16 2, i16 1, i16 2, i16 1, i16 2], align 2
@_ZN6Halide7Runtime8Internal31pixel_type_to_matlab_class_codeE = linkonce local_unnamed_addr global [10 x i8] c"\07\06\09\08\0B\0A\0D\0C\0F\0E", align 1
@_ZN6Halide7Runtime8Internal30pixel_type_to_matlab_type_codeE = linkonce local_unnamed_addr global [10 x i8] c"\07\09\02\01\04\03\06\05\0D\0C", align 1
@.str.34 = private unnamed_addr constant [51 x i8] c"Bounds query buffer passed to halide_debug_to_file\00", align 1
@.str.1.35 = private unnamed_addr constant [59 x i8] c"Can't debug_to_file a Func with more than four dimensions\0A\00", align 1
@.str.2.36 = private unnamed_addr constant [3 x i8] c"wb\00", align 1
@.str.3.37 = private unnamed_addr constant [6 x i8] c".tiff\00", align 1
@.str.4.38 = private unnamed_addr constant [5 x i8] c".tif\00", align 1
@.str.5.39 = private unnamed_addr constant [5 x i8] c".mat\00", align 1
@__const.halide_debug_to_file.header = private unnamed_addr constant [129 x i8] c"MATLAB 5.0 MAT-file, produced by Halide                                                                                     \00\01IM\00", align 1
@.str.6.40 = private unnamed_addr constant [53 x i8] c"Can't debug_to_file to a .mat file greater than 4GB\0A\00", align 1
@_ZN6Halide7Runtime8Internal16memoization_lockE = linkonce global %struct.halide_mutex zeroinitializer, align 8
@_ZN6Halide7Runtime8Internal13cache_entriesE = linkonce global [256 x %"struct.Halide::Runtime::Internal::CacheEntry"*] zeroinitializer, align 8
@_ZN6Halide7Runtime8Internal18most_recently_usedE = linkonce local_unnamed_addr global %"struct.Halide::Runtime::Internal::CacheEntry"* null, align 8
@_ZN6Halide7Runtime8Internal19least_recently_usedE = linkonce local_unnamed_addr global %"struct.Halide::Runtime::Internal::CacheEntry"* null, align 8
@_ZN6Halide7Runtime8Internal14max_cache_sizeE = linkonce local_unnamed_addr global i64 1048576, align 8
@_ZN6Halide7Runtime8Internal18current_cache_sizeE = linkonce local_unnamed_addr global i64 0, align 8
@.str.2.42 = private unnamed_addr constant [126 x i8] c"/home/muchenx2/Hydride/frontends/halide/src/runtime/cache.cpp:284 halide_abort_if_false() failed: prev_hash_entry != nullptr\0A\00", align 1
@.str.3.43 = private unnamed_addr constant [129 x i8] c"/home/muchenx2/Hydride/frontends/halide/src/runtime/cache.cpp:373 halide_abort_if_false() failed: entry->more_recent != nullptr\0A\00", align 1
@.str.4.44 = private unnamed_addr constant [128 x i8] c"/home/muchenx2/Hydride/frontends/halide/src/runtime/cache.cpp:377 halide_abort_if_false() failed: least_recently_used == entry\0A\00", align 1
@.str.5.45 = private unnamed_addr constant [129 x i8] c"/home/muchenx2/Hydride/frontends/halide/src/runtime/cache.cpp:380 halide_abort_if_false() failed: entry->more_recent != nullptr\0A\00", align 1
@.str.9.46 = private unnamed_addr constant [122 x i8] c"/home/muchenx2/Hydride/frontends/halide/src/runtime/cache.cpp:472 halide_abort_if_false() failed: no_host_pointers_equal\0A\00", align 1
@.str.12.47 = private unnamed_addr constant [123 x i8] c"/home/muchenx2/Hydride/frontends/halide/src/runtime/cache.cpp:550 halide_abort_if_false() failed: entry->in_use_count > 0\0A\00", align 1
@.str.50 = private unnamed_addr constant [10 x i8] c"<nullptr>\00", align 1
@.str.1.57 = private unnamed_addr constant [5 x i8] c"-nan\00", align 1
@.str.2.58 = private unnamed_addr constant [4 x i8] c"nan\00", align 1
@.str.3.59 = private unnamed_addr constant [5 x i8] c"-inf\00", align 1
@.str.4.60 = private unnamed_addr constant [4 x i8] c"inf\00", align 1
@.str.5.61 = private unnamed_addr constant [14 x i8] c"-0.000000e+00\00", align 1
@.str.6.62 = private unnamed_addr constant [13 x i8] c"0.000000e+00\00", align 1
@.str.7.63 = private unnamed_addr constant [10 x i8] c"-0.000000\00", align 1
@.str.8.64 = private unnamed_addr constant [9 x i8] c"0.000000\00", align 1
@.str.9.65 = private unnamed_addr constant [2 x i8] c"-\00", align 1
@.str.11.67 = private unnamed_addr constant [3 x i8] c"e+\00", align 1
@.str.12.68 = private unnamed_addr constant [3 x i8] c"e-\00", align 1
@.str.13.71 = private unnamed_addr constant [17 x i8] c"0123456789abcdef\00", align 1
@.str.18.72 = private unnamed_addr constant [14 x i8] c"bad_type_code\00", align 1
@.str.17.73 = private unnamed_addr constant [7 x i8] c"handle\00", align 1
@.str.16.74 = private unnamed_addr constant [6 x i8] c"float\00", align 1
@.str.15.75 = private unnamed_addr constant [5 x i8] c"uint\00", align 1
@.str.14.76 = private unnamed_addr constant [4 x i8] c"int\00", align 1
@.str.19.77 = private unnamed_addr constant [2 x i8] c"x\00", align 1
@.str.20.78 = private unnamed_addr constant [8 x i8] c"nullptr\00", align 1
@.str.21.79 = private unnamed_addr constant [8 x i8] c"buffer(\00", align 1
@.str.23.82 = private unnamed_addr constant [4 x i8] c", {\00", align 1
@.str.24.83 = private unnamed_addr constant [2 x i8] c"}\00", align 1
@_ZN6Halide7Runtime8Internal36halide_reuse_device_allocations_flagE = linkonce local_unnamed_addr global i8 1, align 1
@_ZN6Halide7Runtime8Internal21allocation_pools_lockE = linkonce global %struct.halide_mutex zeroinitializer, align 8
@_ZN6Halide7Runtime8Internal23device_allocation_poolsE = linkonce local_unnamed_addr global %struct.halide_device_allocation_pool* null, align 8
@_ZN6Halide7Runtime8Internal17device_copy_mutexE = linkonce global %struct.halide_mutex zeroinitializer, align 8
@.str.6.88 = private unnamed_addr constant [20 x i8] c"halide_copy_to_host\00", align 1
@.str.7.89 = private unnamed_addr constant [22 x i8] c"halide_copy_to_device\00", align 1
@.str.9.90 = private unnamed_addr constant [61 x i8] c"halide_copy_to_device does not support switching interfaces\0A\00", align 1
@.str.17.91 = private unnamed_addr constant [21 x i8] c"halide_device_malloc\00", align 1
@.str.20.92 = private unnamed_addr constant [59 x i8] c"halide_device_malloc doesn't support switching interfaces\0A\00", align 1
@.str.16.93 = private unnamed_addr constant [19 x i8] c"halide_device_sync\00", align 1
@.str.21.96 = private unnamed_addr constant [19 x i8] c"halide_device_free\00", align 1
@.str.22.97 = private unnamed_addr constant [127 x i8] c"/home/muchenx2/Hydride/frontends/halide/src/runtime/device_interface.cpp:252 halide_abort_if_false() failed: buf->device == 0\0A\00", align 1
@.str.23.98 = private unnamed_addr constant [30 x i8] c"halide_device_and_host_malloc\00", align 1
@.str.25.99 = private unnamed_addr constant [68 x i8] c"halide_device_and_host_malloc doesn't support switching interfaces\0A\00", align 1
@.str.26.100 = private unnamed_addr constant [42 x i8] c"allocating host and device memory failed\0A\00", align 1
@.str.27.101 = private unnamed_addr constant [28 x i8] c"halide_device_and_host_free\00", align 1
@.str.28.102 = private unnamed_addr constant [127 x i8] c"/home/muchenx2/Hydride/frontends/halide/src/runtime/device_interface.cpp:317 halide_abort_if_false() failed: buf->device == 0\0A\00", align 1
@.str.29.103 = private unnamed_addr constant [38 x i8] c"halide_default_device_and_host_malloc\00", align 1
@.str.30.104 = private unnamed_addr constant [36 x i8] c"halide_default_device_and_host_free\00", align 1
@.str.31.105 = private unnamed_addr constant [26 x i8] c"halide_device_wrap_native\00", align 1
@.str.32.106 = private unnamed_addr constant [64 x i8] c"halide_device_wrap_native doesn't support switching interfaces\0A\00", align 1
@.str.33.107 = private unnamed_addr constant [28 x i8] c"halide_device_detach_native\00", align 1
@.str.34.108 = private unnamed_addr constant [127 x i8] c"/home/muchenx2/Hydride/frontends/halide/src/runtime/device_interface.cpp:403 halide_abort_if_false() failed: buf->device == 0\0A\00", align 1
@.str.35 = private unnamed_addr constant [36 x i8] c"halide_default_device_detach_native\00", align 1
@.str.41 = private unnamed_addr constant [64 x i8] c"halide_buffer_copy does not support switching device interfaces\00", align 1
@.str.58 = private unnamed_addr constant [44 x i8] c"device_interface does not support cropping\0A\00", align 1
@.str.59 = private unnamed_addr constant [43 x i8] c"device_interface does not support slicing\0A\00", align 1
@.str.60 = private unnamed_addr constant [52 x i8] c"destination buffer already has a device allocation\0A\00", align 1
@.str.61 = private unnamed_addr constant [48 x i8] c"src and dst must have identical dimensionality\0A\00", align 1
@.str.64 = private unnamed_addr constant [52 x i8] c"dst must have exactly one fewer dimension than src\0A\00", align 1
@.str.111 = private unnamed_addr constant [41 x i8] c"Bounds inference call to external stage \00", align 1
@.str.1.112 = private unnamed_addr constant [27 x i8] c" returned non-zero value: \00", align 1
@.str.2.113 = private unnamed_addr constant [24 x i8] c"Call to external stage \00", align 1
@.str.3.114 = private unnamed_addr constant [18 x i8] c"Bounds given for \00", align 1
@.str.4.115 = private unnamed_addr constant [5 x i8] c" in \00", align 1
@.str.5.116 = private unnamed_addr constant [8 x i8] c" (from \00", align 1
@.str.6.117 = private unnamed_addr constant [5 x i8] c" to \00", align 1
@.str.7.118 = private unnamed_addr constant [38 x i8] c") do not cover required region (from \00", align 1
@.str.8.119 = private unnamed_addr constant [2 x i8] c")\00", align 1
@.str.9.120 = private unnamed_addr constant [11 x i8] c" has type \00", align 1
@.str.10.121 = private unnamed_addr constant [38 x i8] c" but type of the buffer passed in is \00", align 1
@.str.11.122 = private unnamed_addr constant [31 x i8] c" requires a buffer of exactly \00", align 1
@.str.12.123 = private unnamed_addr constant [43 x i8] c" dimensions, but the buffer passed in has \00", align 1
@.str.13.124 = private unnamed_addr constant [12 x i8] c" dimensions\00", align 1
@.str.14.125 = private unnamed_addr constant [17 x i8] c" is accessed at \00", align 1
@.str.15.126 = private unnamed_addr constant [28 x i8] c", which is before the min (\00", align 1
@.str.16.127 = private unnamed_addr constant [16 x i8] c") in dimension \00", align 1
@.str.17.128 = private unnamed_addr constant [28 x i8] c", which is beyond the max (\00", align 1
@.str.18.129 = private unnamed_addr constant [29 x i8] c"Total allocation for buffer \00", align 1
@.str.19.130 = private unnamed_addr constant [5 x i8] c" is \00", align 1
@.str.20.131 = private unnamed_addr constant [37 x i8] c", which exceeds the maximum size of \00", align 1
@.str.21.132 = private unnamed_addr constant [24 x i8] c"The extents for buffer \00", align 1
@.str.22.133 = private unnamed_addr constant [12 x i8] c" dimension \00", align 1
@.str.23.134 = private unnamed_addr constant [15 x i8] c" is negative (\00", align 1
@.str.24.135 = private unnamed_addr constant [31 x i8] c"Product of extents for buffer \00", align 1
@.str.25.136 = private unnamed_addr constant [29 x i8] c"Applying the constraints on \00", align 1
@.str.26.137 = private unnamed_addr constant [54 x i8] c" to the required region made it smaller in dimension \00", align 1
@.str.27.138 = private unnamed_addr constant [3 x i8] c". \00", align 1
@.str.28.139 = private unnamed_addr constant [16 x i8] c"Required size: \00", align 1
@.str.29.140 = private unnamed_addr constant [19 x i8] c"Constrained size: \00", align 1
@.str.30.141 = private unnamed_addr constant [2 x i8] c".\00", align 1
@.str.31.142 = private unnamed_addr constant [22 x i8] c"Constraint violated: \00", align 1
@.str.32.143 = private unnamed_addr constant [3 x i8] c" (\00", align 1
@.str.33.144 = private unnamed_addr constant [6 x i8] c") == \00", align 1
@.str.34.145 = private unnamed_addr constant [11 x i8] c"Parameter \00", align 1
@.str.35.146 = private unnamed_addr constant [23 x i8] c" but must be at least \00", align 1
@.str.36 = private unnamed_addr constant [22 x i8] c" but must be at most \00", align 1
@.str.37 = private unnamed_addr constant [47 x i8] c"Out of memory (halide_malloc returned nullptr)\00", align 1
@.str.38 = private unnamed_addr constant [17 x i8] c"Buffer argument \00", align 1
@.str.39 = private unnamed_addr constant [12 x i8] c" is nullptr\00", align 1
@.str.40 = private unnamed_addr constant [25 x i8] c"Failed to dump function \00", align 1
@.str.41.147 = private unnamed_addr constant [10 x i8] c" to file \00", align 1
@.str.42 = private unnamed_addr constant [13 x i8] c" with error \00", align 1
@.str.43 = private unnamed_addr constant [21 x i8] c"The host pointer of \00", align 1
@.str.44 = private unnamed_addr constant [22 x i8] c" is not aligned to a \00", align 1
@.str.45 = private unnamed_addr constant [17 x i8] c" bytes boundary.\00", align 1
@.str.46 = private unnamed_addr constant [12 x i8] c"The buffer \00", align 1
@.str.47 = private unnamed_addr constant [53 x i8] c" is dirty on device, but this pipeline was compiled \00", align 1
@.str.48 = private unnamed_addr constant [43 x i8] c"with no support for device to host copies.\00", align 1
@.str.49 = private unnamed_addr constant [55 x i8] c" is null, but the pipeline will access it on the host.\00", align 1
@.str.50.148 = private unnamed_addr constant [30 x i8] c"The folded storage dimension \00", align 1
@.str.51 = private unnamed_addr constant [5 x i8] c" of \00", align 1
@.str.52 = private unnamed_addr constant [36 x i8] c" was accessed out of order by loop \00", align 1
@.str.53 = private unnamed_addr constant [23 x i8] c"Cannot fold dimension \00", align 1
@.str.54 = private unnamed_addr constant [36 x i8] c" because an extern stage accesses [\00", align 1
@.str.55 = private unnamed_addr constant [3 x i8] c", \00", align 1
@.str.56 = private unnamed_addr constant [3 x i8] c"],\00", align 1
@.str.57 = private unnamed_addr constant [47 x i8] c" which is outside the range currently valid: [\00", align 1
@.str.58.149 = private unnamed_addr constant [3 x i8] c"].\00", align 1
@.str.59.150 = private unnamed_addr constant [47 x i8] c" which wraps around the boundary of the fold, \00", align 1
@.str.60.151 = private unnamed_addr constant [30 x i8] c"which occurs at multiples of \00", align 1
@.str.61.152 = private unnamed_addr constant [18 x i8] c"The fold factor (\00", align 1
@.str.62 = private unnamed_addr constant [16 x i8] c") of dimension \00", align 1
@.str.63 = private unnamed_addr constant [61 x i8] c" is too small to store the required region accessed by loop \00", align 1
@.str.64.153 = private unnamed_addr constant [3 x i8] c").\00", align 1
@.str.65 = private unnamed_addr constant [22 x i8] c"Requirement Failed: (\00", align 1
@.str.66 = private unnamed_addr constant [3 x i8] c") \00", align 1
@.str.67 = private unnamed_addr constant [59 x i8] c"A schedule specialized with specialize_fail() was chosen: \00", align 1
@.str.68 = private unnamed_addr constant [55 x i8] c"Buffer has a non-zero device but no device interface.\0A\00", align 1
@.str.69 = private unnamed_addr constant [57 x i8] c"Buffer has a non-null device_interface but device is 0.\0A\00", align 1
@.str.70 = private unnamed_addr constant [49 x i8] c"Buffer has both host and device dirty bits set.\0A\00", align 1
@.str.71 = private unnamed_addr constant [26 x i8] c"Buffer pointer passed to \00", align 1
@.str.72 = private unnamed_addr constant [11 x i8] c" is null.\0A\00", align 1
@.str.73 = private unnamed_addr constant [32 x i8] c"The explicit allocation bound (\00", align 1
@.str.74 = private unnamed_addr constant [45 x i8] c" is too small to store the required region (\00", align 1
@.str.75 = private unnamed_addr constant [77 x i8] c"Buffer could not be cropped (runtime error or unimplemented device option).\0A\00", align 1
@.str.29.163 = private unnamed_addr constant [35 x i8] c"Printer buffer allocation failed.\0A\00", align 1
@.str.7.164 = private unnamed_addr constant [2 x i8] c"\0A\00", align 1
@.str.8.165 = private unnamed_addr constant [14 x i8] c" total time: \00", align 1
@.str.9.166 = private unnamed_addr constant [4 x i8] c" ms\00", align 1
@.str.10.167 = private unnamed_addr constant [12 x i8] c"  samples: \00", align 1
@.str.11.168 = private unnamed_addr constant [9 x i8] c"  runs: \00", align 1
@.str.12.169 = private unnamed_addr constant [13 x i8] c"  time/run: \00", align 1
@.str.13.170 = private unnamed_addr constant [5 x i8] c" ms\0A\00", align 1
@.str.14.171 = private unnamed_addr constant [24 x i8] c" average threads used: \00", align 1
@.str.15.172 = private unnamed_addr constant [20 x i8] c" heap allocations: \00", align 1
@.str.16.173 = private unnamed_addr constant [20 x i8] c"  peak heap usage: \00", align 1
@.str.17.174 = private unnamed_addr constant [8 x i8] c" bytes\0A\00", align 1
@.str.18.175 = private unnamed_addr constant [3 x i8] c"  \00", align 1
@.str.19.176 = private unnamed_addr constant [3 x i8] c": \00", align 1
@.str.20.177 = private unnamed_addr constant [2 x i8] c" \00", align 1
@.str.21.178 = private unnamed_addr constant [3 x i8] c"ms\00", align 1
@.str.22.179 = private unnamed_addr constant [2 x i8] c"(\00", align 1
@.str.23.180 = private unnamed_addr constant [3 x i8] c"%)\00", align 1
@.str.24.181 = private unnamed_addr constant [10 x i8] c"threads: \00", align 1
@.str.25.182 = private unnamed_addr constant [8 x i8] c" peak: \00", align 1
@.str.26.183 = private unnamed_addr constant [7 x i8] c" num: \00", align 1
@.str.27.184 = private unnamed_addr constant [7 x i8] c" avg: \00", align 1
@.str.28.185 = private unnamed_addr constant [9 x i8] c" stack: \00", align 1
@_ZZ25halide_profiler_get_stateE1s = internal global %struct.halide_profiler_state { %struct.halide_mutex zeroinitializer, i32 1, i32 0, i32 0, i32 0, %struct.halide_profiler_pipeline_stats* null, void (i32*, i32*)* null, %struct.halide_thread* null }, align 8
@.str.186 = private unnamed_addr constant [128 x i8] c"/home/muchenx2/Hydride/frontends/halide/src/runtime/profiler_common.cpp:246 halide_abort_if_false() failed: p_stats != nullptr\0A\00", align 1
@.str.1.187 = private unnamed_addr constant [128 x i8] c"/home/muchenx2/Hydride/frontends/halide/src/runtime/profiler_common.cpp:273 halide_abort_if_false() failed: p_stats != nullptr\0A\00", align 1
@.str.2.188 = private unnamed_addr constant [122 x i8] c"/home/muchenx2/Hydride/frontends/halide/src/runtime/profiler_common.cpp:274 halide_abort_if_false() failed: func_id >= 0\0A\00", align 1
@.str.3.189 = private unnamed_addr constant [138 x i8] c"/home/muchenx2/Hydride/frontends/halide/src/runtime/profiler_common.cpp:275 halide_abort_if_false() failed: func_id < p_stats->num_funcs\0A\00", align 1
@.str.4.190 = private unnamed_addr constant [128 x i8] c"/home/muchenx2/Hydride/frontends/halide/src/runtime/profiler_common.cpp:309 halide_abort_if_false() failed: p_stats != nullptr\0A\00", align 1
@.str.5.191 = private unnamed_addr constant [122 x i8] c"/home/muchenx2/Hydride/frontends/halide/src/runtime/profiler_common.cpp:310 halide_abort_if_false() failed: func_id >= 0\0A\00", align 1
@.str.6.192 = private unnamed_addr constant [138 x i8] c"/home/muchenx2/Hydride/frontends/halide/src/runtime/profiler_common.cpp:311 halide_abort_if_false() failed: func_id < p_stats->num_funcs\0A\00", align 1
@_ZN6Halide7Runtime8Internal30custom_can_use_target_featuresE = linkonce local_unnamed_addr global i32 (i32, i64*)* @halide_default_can_use_target_features, align 8
@_ZN6Halide7Runtime8Internal36halide_cpu_features_initialized_lockE = linkonce global %struct.halide_mutex zeroinitializer, align 8
@_ZN6Halide7Runtime8Internal31halide_cpu_features_initializedE = linkonce local_unnamed_addr global i8 0, align 1
@_ZN6Halide7Runtime8Internal27halide_cpu_features_storageE = linkonce global [4 x i64] zeroinitializer, align 8
@.str.197 = private unnamed_addr constant [81 x i8] c"Internal error: wrong structure size passed to halide_can_use_target_features()\0A\00", align 1
@0 = private constant [4 x i64*] zeroinitializer
@str = private constant [6 x i8] c"input\00", align 32
@1 = private constant [4 x i64*] zeroinitializer
@str.200 = private constant [5 x i8] c"mask\00", align 32
@2 = private constant [4 x i64*] zeroinitializer
@str.201 = private constant [7 x i8] c"output\00", align 32
@3 = private constant [3 x %struct.halide_filter_argument_t] [%struct.halide_filter_argument_t { i8* getelementptr inbounds ([6 x i8], [6 x i8]* @str, i32 0, i32 0), i32 1, i32 2, %struct.halide_type_t { i8 1, i8 8, i16 1 }, %struct.halide_scalar_value_t* null, %struct.halide_scalar_value_t* null, %struct.halide_scalar_value_t* null, %struct.halide_scalar_value_t* null, i64** getelementptr inbounds ([4 x i64*], [4 x i64*]* @0, i32 0, i32 0) }, %struct.halide_filter_argument_t { i8* getelementptr inbounds ([5 x i8], [5 x i8]* @str.200, i32 0, i32 0), i32 1, i32 2, %struct.halide_type_t { i8 0, i8 8, i16 1 }, %struct.halide_scalar_value_t* null, %struct.halide_scalar_value_t* null, %struct.halide_scalar_value_t* null, %struct.halide_scalar_value_t* null, i64** getelementptr inbounds ([4 x i64*], [4 x i64*]* @1, i32 0, i32 0) }, %struct.halide_filter_argument_t { i8* getelementptr inbounds ([7 x i8], [7 x i8]* @str.201, i32 0, i32 0), i32 2, i32 2, %struct.halide_type_t { i8 1, i8 8, i16 1 }, %struct.halide_scalar_value_t* null, %struct.halide_scalar_value_t* null, %struct.halide_scalar_value_t* null, %struct.halide_scalar_value_t* null, i64** getelementptr inbounds ([4 x i64*], [4 x i64*]* @2, i32 0, i32 0) }]
@str.202 = private constant [38 x i8] c"arm-64-osx-no_asserts-no_bounds_query\00", align 32
@str.203 = private constant [11 x i8] c"conv3x3a16\00", align 32
@conv3x3a16_metadata_storage = private constant %struct.halide_filter_metadata_t { i32 1, i32 3, %struct.halide_filter_argument_t* getelementptr inbounds ([3 x %struct.halide_filter_argument_t], [3 x %struct.halide_filter_argument_t]* @3, i32 0, i32 0), i8* getelementptr inbounds ([38 x i8], [38 x i8]* @str.202, i32 0, i32 0), i8* getelementptr inbounds ([11 x i8], [11 x i8]* @str.203, i32 0, i32 0) }
@switch.table.halide_type_to_string = private unnamed_addr constant [4 x i8*] [i8* getelementptr inbounds ([4 x i8], [4 x i8]* @.str.14.76, i64 0, i64 0), i8* getelementptr inbounds ([5 x i8], [5 x i8]* @.str.15.75, i64 0, i64 0), i8* getelementptr inbounds ([6 x i8], [6 x i8]* @.str.16.74, i64 0, i64 0), i8* getelementptr inbounds ([7 x i8], [7 x i8]* @.str.17.73, i64 0, i64 0)], align 8

; Function Attrs: nounwind mustprogress
define weak i8* @halide_default_malloc(i8* %user_context, i64 %x) #0 {
entry:
  %add = add i64 %x, 32
  %call1 = tail call i8* @malloc(i64 %add) #14
  %cmp = icmp eq i8* %call1, null
  br i1 %cmp, label %cleanup, label %if.end

if.end:                                           ; preds = %entry
  %0 = ptrtoint i8* %call1 to i64
  %sub = add i64 %0, 39
  %and = and i64 %sub, -32
  %1 = inttoptr i64 %and to i8*
  %2 = inttoptr i64 %and to i8**
  %arrayidx = getelementptr inbounds i8*, i8** %2, i64 -1
  store i8* %call1, i8** %arrayidx, align 8, !tbaa !14
  br label %cleanup

cleanup:                                          ; preds = %if.end, %entry
  %retval.0 = phi i8* [ %1, %if.end ], [ null, %entry ]
  ret i8* %retval.0
}

declare i8* @malloc(i64) local_unnamed_addr #1

; Function Attrs: nounwind mustprogress
define weak void @halide_default_free(i8* %user_context, i8* %ptr) #0 {
entry:
  %arrayidx = getelementptr inbounds i8, i8* %ptr, i64 -8
  %0 = bitcast i8* %arrayidx to i8**
  %1 = load i8*, i8** %0, align 8, !tbaa !14
  tail call void @free(i8* %1) #14
  ret void
}

declare void @free(i8*) local_unnamed_addr #1

; Function Attrs: nounwind willreturn mustprogress
define weak i8* (i8*, i64)* @halide_set_custom_malloc(i8* (i8*, i64)* %user_malloc) local_unnamed_addr #2 {
entry:
  %0 = load i8* (i8*, i64)*, i8* (i8*, i64)** @_ZN6Halide7Runtime8Internal13custom_mallocE, align 8, !tbaa !14
  store i8* (i8*, i64)* %user_malloc, i8* (i8*, i64)** @_ZN6Halide7Runtime8Internal13custom_mallocE, align 8, !tbaa !14
  ret i8* (i8*, i64)* %0
}

; Function Attrs: nounwind willreturn mustprogress
define weak void (i8*, i8*)* @halide_set_custom_free(void (i8*, i8*)* %user_free) local_unnamed_addr #2 {
entry:
  %0 = load void (i8*, i8*)*, void (i8*, i8*)** @_ZN6Halide7Runtime8Internal11custom_freeE, align 8, !tbaa !14
  store void (i8*, i8*)* %user_free, void (i8*, i8*)** @_ZN6Halide7Runtime8Internal11custom_freeE, align 8, !tbaa !14
  ret void (i8*, i8*)* %0
}

; Function Attrs: nounwind mustprogress
define weak i8* @halide_malloc(i8* %user_context, i64 %x) local_unnamed_addr #0 {
entry:
  %0 = load i8* (i8*, i64)*, i8* (i8*, i64)** @_ZN6Halide7Runtime8Internal13custom_mallocE, align 8, !tbaa !14
  %call = tail call i8* %0(i8* %user_context, i64 %x) #14
  ret i8* %call
}

; Function Attrs: nounwind mustprogress
define weak void @halide_free(i8* %user_context, i8* %ptr) local_unnamed_addr #0 {
entry:
  %0 = load void (i8*, i8*)*, void (i8*, i8*)** @_ZN6Halide7Runtime8Internal11custom_freeE, align 8, !tbaa !14
  tail call void %0(i8* %user_context, i8* %ptr) #14
  ret void
}

; Function Attrs: nounwind mustprogress
define weak void @halide_default_error(i8* %user_context, i8* %msg) #0 {
entry:
  %buf = alloca [4096 x i8], align 1
  %0 = getelementptr inbounds [4096 x i8], [4096 x i8]* %buf, i64 0, i64 0
  call void @llvm.lifetime.start.p0i8(i64 4096, i8* nonnull %0) #11
  %add.ptr = getelementptr inbounds [4096 x i8], [4096 x i8]* %buf, i64 0, i64 4094
  %call = call i8* @halide_string_to_string(i8* nonnull %0, i8* nonnull %add.ptr, i8* getelementptr inbounds ([8 x i8], [8 x i8]* @.str, i64 0, i64 0)) #14
  %add.ptr2 = getelementptr inbounds i8, i8* %call, i64 4094
  %call3 = call i8* @halide_string_to_string(i8* %call, i8* nonnull %add.ptr2, i8* %msg) #14
  %arrayidx = getelementptr inbounds i8, i8* %call3, i64 -1
  %1 = load i8, i8* %arrayidx, align 1, !tbaa !18
  %cmp.not = icmp eq i8 %1, 10
  br i1 %cmp.not, label %if.end, label %if.then

if.then:                                          ; preds = %entry
  store i8 10, i8* %call3, align 1, !tbaa !18
  %arrayidx5 = getelementptr inbounds i8, i8* %call3, i64 1
  store i8 0, i8* %arrayidx5, align 1, !tbaa !18
  br label %if.end

if.end:                                           ; preds = %if.then, %entry
  %dst.0 = phi i8* [ %arrayidx5, %if.then ], [ %call3, %entry ]
  %sub.ptr.lhs.cast = ptrtoint i8* %dst.0 to i64
  %sub.ptr.rhs.cast = ptrtoint [4096 x i8]* %buf to i64
  %sub.ptr.sub = sub i64 1, %sub.ptr.rhs.cast
  %add = add i64 %sub.ptr.sub, %sub.ptr.lhs.cast
  %call9 = call i32 @halide_msan_annotate_memory_is_initialized(i8* %user_context, i8* nonnull %0, i64 %add) #14
  call void @halide_print(i8* %user_context, i8* nonnull %0) #14
  call void @abort() #14
  call void @llvm.lifetime.end.p0i8(i64 4096, i8* nonnull %0) #11
  ret void
}

; Function Attrs: argmemonly nofree nosync nounwind willreturn
declare void @llvm.lifetime.start.p0i8(i64 immarg, i8* nocapture) #3

declare void @abort() local_unnamed_addr #1

; Function Attrs: argmemonly nofree nosync nounwind willreturn
declare void @llvm.lifetime.end.p0i8(i64 immarg, i8* nocapture) #3

; Function Attrs: nounwind mustprogress
define weak void @halide_error(i8* %user_context, i8* %msg) local_unnamed_addr #0 {
entry:
  %0 = load void (i8*, i8*)*, void (i8*, i8*)** @_ZN6Halide7Runtime8Internal13error_handlerE, align 8, !tbaa !14
  tail call void %0(i8* %user_context, i8* %msg) #14
  ret void
}

; Function Attrs: nounwind willreturn mustprogress
define weak void (i8*, i8*)* @halide_set_error_handler(void (i8*, i8*)* %handler) local_unnamed_addr #2 {
entry:
  %0 = load void (i8*, i8*)*, void (i8*, i8*)** @_ZN6Halide7Runtime8Internal13error_handlerE, align 8, !tbaa !14
  store void (i8*, i8*)* %handler, void (i8*, i8*)** @_ZN6Halide7Runtime8Internal13error_handlerE, align 8, !tbaa !14
  ret void (i8*, i8*)* %0
}

; Function Attrs: nounwind mustprogress
define weak void @halide_print(i8* %user_context, i8* %msg) local_unnamed_addr #0 {
entry:
  %0 = load void (i8*, i8*)*, void (i8*, i8*)** @_ZN6Halide7Runtime8Internal12custom_printE, align 8, !tbaa !14
  tail call void %0(i8* %user_context, i8* %msg) #14
  ret void
}

; Function Attrs: nounwind willreturn mustprogress
define weak void (i8*, i8*)* @halide_set_custom_print(void (i8*, i8*)* %print) local_unnamed_addr #2 {
entry:
  %0 = load void (i8*, i8*)*, void (i8*, i8*)** @_ZN6Halide7Runtime8Internal12custom_printE, align 8, !tbaa !14
  store void (i8*, i8*)* %print, void (i8*, i8*)** @_ZN6Halide7Runtime8Internal12custom_printE, align 8, !tbaa !14
  ret void (i8*, i8*)* %0
}

; Function Attrs: nounwind mustprogress
define weak i32 @halide_start_clock(i8* %user_context) local_unnamed_addr #0 {
entry:
  %0 = load i8, i8* @_ZN6Halide7Runtime8Internal29halide_reference_clock_initedE, align 1, !tbaa !19, !range !21
  %tobool.not = icmp eq i8 %0, 0
  br i1 %tobool.not, label %if.then, label %if.end

if.then:                                          ; preds = %entry
  %call = tail call i32 @mach_timebase_info(%struct.mach_timebase_info* nonnull @_ZN6Halide7Runtime8Internal20halide_timebase_infoE) #14
  %call1 = tail call i64 @mach_absolute_time() #14
  store i64 %call1, i64* @_ZN6Halide7Runtime8Internal22halide_reference_clockE, align 8, !tbaa !22
  store i8 1, i8* @_ZN6Halide7Runtime8Internal29halide_reference_clock_initedE, align 1, !tbaa !19
  br label %if.end

if.end:                                           ; preds = %if.then, %entry
  ret i32 0
}

declare i32 @mach_timebase_info(%struct.mach_timebase_info*) local_unnamed_addr #1

declare i64 @mach_absolute_time() local_unnamed_addr #1

; Function Attrs: nounwind mustprogress
define weak i64 @halide_current_time_ns(i8* %user_context) local_unnamed_addr #0 {
entry:
  %call = tail call i64 @mach_absolute_time() #14
  %0 = load i64, i64* @_ZN6Halide7Runtime8Internal22halide_reference_clockE, align 8, !tbaa !22
  %sub = sub i64 %call, %0
  %1 = load i32, i32* getelementptr inbounds (%struct.mach_timebase_info, %struct.mach_timebase_info* @_ZN6Halide7Runtime8Internal20halide_timebase_infoE, i64 0, i32 0), align 4, !tbaa !24
  %conv = zext i32 %1 to i64
  %mul = mul i64 %sub, %conv
  %2 = load i32, i32* getelementptr inbounds (%struct.mach_timebase_info, %struct.mach_timebase_info* @_ZN6Halide7Runtime8Internal20halide_timebase_infoE, i64 0, i32 1), align 4, !tbaa !27
  %conv1 = zext i32 %2 to i64
  %div = udiv i64 %mul, %conv1
  ret i64 %div
}

; Function Attrs: nounwind mustprogress
define weak void @halide_sleep_ms(i8* %user_context, i32 %ms) local_unnamed_addr #0 {
entry:
  %mul = mul nsw i32 %ms, 1000
  %call = tail call i32 @usleep(i32 %mul) #14
  ret void
}

declare i32 @usleep(i32) local_unnamed_addr #1

; Function Attrs: nounwind mustprogress
define weak void @halide_default_print(i8* %user_context, i8* %str) #0 {
entry:
  %call = tail call i64 @strlen(i8* %str) #14
  %call1 = tail call i64 @write(i32 1, i8* %str, i64 %call) #14
  ret void
}

declare i64 @strlen(i8*) local_unnamed_addr #1

declare i64 @write(i32, i8*, i64) local_unnamed_addr #1

; Function Attrs: nounwind mustprogress
define weak i32 @halide_host_cpu_count() local_unnamed_addr #0 {
entry:
  %call = tail call i64 @sysconf(i32 58) #14
  %conv = trunc i64 %call to i32
  ret i32 %conv
}

declare i64 @sysconf(i32) local_unnamed_addr #1

; Function Attrs: nounwind mustprogress
define weak void @halide_thread_yield() local_unnamed_addr #0 {
entry:
  %call = tail call i32 @swtch_pri(i32 0) #14
  ret void
}

declare i32 @swtch_pri(i32) local_unnamed_addr #1

; Function Attrs: nounwind mustprogress
define weak i32 @halide_default_do_task(i8* %user_context, i32 (i8*, i32, i8*)* %f, i32 %idx, i8* %closure) #0 {
entry:
  %call = tail call i32 %f(i8* %user_context, i32 %idx, i8* %closure) #14
  ret i32 %call
}

; Function Attrs: nounwind mustprogress
define weak i32 @halide_default_do_loop_task(i8* %user_context, i32 (i8*, i32, i32, i8*, i8*)* %f, i32 %min, i32 %extent, i8* %closure, i8* %task_parent) #0 {
entry:
  %call = tail call i32 %f(i8* %user_context, i32 %min, i32 %extent, i8* %closure, i8* %task_parent) #14
  ret i32 %call
}

; Function Attrs: nounwind mustprogress
define weak i32 @halide_default_do_par_for(i8* %user_context, i32 (i8*, i32, i8*)* %f, i32 %min, i32 %size, i8* %closure) #0 {
entry:
  %job = alloca %"struct.Halide::Runtime::Internal::work", align 8
  %cmp = icmp slt i32 %size, 1
  br i1 %cmp, label %return, label %if.end

if.end:                                           ; preds = %entry
  %0 = bitcast %"struct.Halide::Runtime::Internal::work"* %job to i8*
  call void @llvm.lifetime.start.p0i8(i64 128, i8* nonnull %0) #11
  %fn = getelementptr inbounds %"struct.Halide::Runtime::Internal::work", %"struct.Halide::Runtime::Internal::work"* %job, i64 0, i32 0, i32 0
  store i32 (i8*, i32, i32, i8*, i8*)* null, i32 (i8*, i32, i32, i8*, i8*)** %fn, align 8, !tbaa !28
  %min2 = getelementptr inbounds %"struct.Halide::Runtime::Internal::work", %"struct.Halide::Runtime::Internal::work"* %job, i64 0, i32 0, i32 5
  store i32 %min, i32* %min2, align 4, !tbaa !31
  %extent = getelementptr inbounds %"struct.Halide::Runtime::Internal::work", %"struct.Halide::Runtime::Internal::work"* %job, i64 0, i32 0, i32 6
  store i32 %size, i32* %extent, align 8, !tbaa !32
  %serial = getelementptr inbounds %"struct.Halide::Runtime::Internal::work", %"struct.Halide::Runtime::Internal::work"* %job, i64 0, i32 0, i32 8
  store i8 0, i8* %serial, align 8, !tbaa !33
  %semaphores = getelementptr inbounds %"struct.Halide::Runtime::Internal::work", %"struct.Halide::Runtime::Internal::work"* %job, i64 0, i32 0, i32 3
  store %struct.halide_semaphore_acquire_t* null, %struct.halide_semaphore_acquire_t** %semaphores, align 8, !tbaa !34
  %num_semaphores = getelementptr inbounds %"struct.Halide::Runtime::Internal::work", %"struct.Halide::Runtime::Internal::work"* %job, i64 0, i32 0, i32 4
  store i32 0, i32* %num_semaphores, align 8, !tbaa !35
  %closure8 = getelementptr inbounds %"struct.Halide::Runtime::Internal::work", %"struct.Halide::Runtime::Internal::work"* %job, i64 0, i32 0, i32 1
  store i8* %closure, i8** %closure8, align 8, !tbaa !36
  %min_threads = getelementptr inbounds %"struct.Halide::Runtime::Internal::work", %"struct.Halide::Runtime::Internal::work"* %job, i64 0, i32 0, i32 7
  store i32 0, i32* %min_threads, align 4, !tbaa !37
  %name = getelementptr inbounds %"struct.Halide::Runtime::Internal::work", %"struct.Halide::Runtime::Internal::work"* %job, i64 0, i32 0, i32 2
  store i8* null, i8** %name, align 8, !tbaa !38
  %task_fn = getelementptr inbounds %"struct.Halide::Runtime::Internal::work", %"struct.Halide::Runtime::Internal::work"* %job, i64 0, i32 1
  store i32 (i8*, i32, i8*)* %f, i32 (i8*, i32, i8*)** %task_fn, align 8, !tbaa !39
  %user_context11 = getelementptr inbounds %"struct.Halide::Runtime::Internal::work", %"struct.Halide::Runtime::Internal::work"* %job, i64 0, i32 7
  store i8* %user_context, i8** %user_context11, align 8, !tbaa !40
  %exit_status = getelementptr inbounds %"struct.Halide::Runtime::Internal::work", %"struct.Halide::Runtime::Internal::work"* %job, i64 0, i32 9
  %active_workers = getelementptr inbounds %"struct.Halide::Runtime::Internal::work", %"struct.Halide::Runtime::Internal::work"* %job, i64 0, i32 8
  %1 = bitcast i32* %active_workers to <2 x i32>*
  store <2 x i32> zeroinitializer, <2 x i32>* %1, align 8, !tbaa !41
  %next_semaphore = getelementptr inbounds %"struct.Halide::Runtime::Internal::work", %"struct.Halide::Runtime::Internal::work"* %job, i64 0, i32 10
  store i32 0, i32* %next_semaphore, align 8, !tbaa !42
  %owner_is_sleeping = getelementptr inbounds %"struct.Halide::Runtime::Internal::work", %"struct.Halide::Runtime::Internal::work"* %job, i64 0, i32 11
  store i8 0, i8* %owner_is_sleeping, align 4, !tbaa !43
  %siblings = getelementptr inbounds %"struct.Halide::Runtime::Internal::work", %"struct.Halide::Runtime::Internal::work"* %job, i64 0, i32 3
  store %"struct.Halide::Runtime::Internal::work"* %job, %"struct.Halide::Runtime::Internal::work"** %siblings, align 8, !tbaa !44
  %sibling_count = getelementptr inbounds %"struct.Halide::Runtime::Internal::work", %"struct.Halide::Runtime::Internal::work"* %job, i64 0, i32 4
  store i32 0, i32* %sibling_count, align 8, !tbaa !45
  %parent_job = getelementptr inbounds %"struct.Halide::Runtime::Internal::work", %"struct.Halide::Runtime::Internal::work"* %job, i64 0, i32 5
  store %"struct.Halide::Runtime::Internal::work"* null, %"struct.Halide::Runtime::Internal::work"** %parent_job, align 8, !tbaa !46
  call void @halide_mutex_lock(%struct.halide_mutex* getelementptr inbounds (%"struct.Halide::Runtime::Internal::work_queue_t", %"struct.Halide::Runtime::Internal::work_queue_t"* @_ZN6Halide7Runtime8Internal10work_queueE, i64 0, i32 0)) #15
  call void @_ZN6Halide7Runtime8Internal27enqueue_work_already_lockedEiPNS1_4workES3_(i32 1, %"struct.Halide::Runtime::Internal::work"* nonnull %job, %"struct.Halide::Runtime::Internal::work"* null) #15
  call void @_ZN6Halide7Runtime8Internal28worker_thread_already_lockedEPNS1_4workE(%"struct.Halide::Runtime::Internal::work"* nonnull %job) #15
  call void @halide_mutex_unlock(%struct.halide_mutex* getelementptr inbounds (%"struct.Halide::Runtime::Internal::work_queue_t", %"struct.Halide::Runtime::Internal::work_queue_t"* @_ZN6Halide7Runtime8Internal10work_queueE, i64 0, i32 0)) #15
  %2 = load i32, i32* %exit_status, align 4, !tbaa !47
  call void @llvm.lifetime.end.p0i8(i64 128, i8* nonnull %0) #11
  br label %return

return:                                           ; preds = %if.end, %entry
  %retval.0 = phi i32 [ %2, %if.end ], [ 0, %entry ]
  ret i32 %retval.0
}

; Function Attrs: nounwind
define weak void @halide_mutex_lock(%struct.halide_mutex* %mutex) local_unnamed_addr #4 {
entry:
  %control.i.i = alloca %"struct.Halide::Runtime::Internal::Synchronization::mutex_parking_control", align 8
  %state.i = getelementptr %struct.halide_mutex, %struct.halide_mutex* %mutex, i64 0, i32 0, i64 0
  %0 = cmpxchg weak i64* %state.i, i64 0, i64 1 acquire monotonic
  %1 = extractvalue { i64, i1 } %0, 1
  br i1 %1, label %_ZN6Halide7Runtime8Internal15Synchronization10fast_mutex4lockEv.exit, label %if.then.i

if.then.i:                                        ; preds = %entry
  %2 = load atomic i64, i64* %state.i monotonic, align 8
  %3 = bitcast %"struct.Halide::Runtime::Internal::Synchronization::mutex_parking_control"* %control.i.i to i8*
  %4 = getelementptr inbounds %"struct.Halide::Runtime::Internal::Synchronization::mutex_parking_control", %"struct.Halide::Runtime::Internal::Synchronization::mutex_parking_control"* %control.i.i, i64 0, i32 0, i32 0
  %lock_state2.i.i.i = getelementptr inbounds %"struct.Halide::Runtime::Internal::Synchronization::mutex_parking_control", %"struct.Halide::Runtime::Internal::Synchronization::mutex_parking_control"* %control.i.i, i64 0, i32 1
  %5 = getelementptr inbounds %"struct.Halide::Runtime::Internal::Synchronization::mutex_parking_control", %"struct.Halide::Runtime::Internal::Synchronization::mutex_parking_control"* %control.i.i, i64 0, i32 0
  %6 = ptrtoint %struct.halide_mutex* %mutex to i64
  br label %while.cond.outer.i.i

while.cond.outer.i.i:                             ; preds = %while.cond.outer.i.i.backedge, %if.then.i
  %expected.0.ph.i.i = phi i64 [ %2, %if.then.i ], [ %expected.0.ph.i.i.be, %while.cond.outer.i.i.backedge ]
  %spinner.sroa.0.0.ph.i.i = phi i32 [ 40, %if.then.i ], [ %spinner.sroa.0.0.ph.i.i.be, %while.cond.outer.i.i.backedge ]
  %and55.i.i = and i64 %expected.0.ph.i.i, 1
  %tobool.not56.i.i = icmp eq i64 %and55.i.i, 0
  br i1 %tobool.not56.i.i, label %if.then.i.i, label %if.end4.i.i

if.then.i.i:                                      ; preds = %while.cond.outer.i.i, %_ZN6Halide7Runtime8Internal15Synchronization12_GLOBAL__N_131atomic_cas_weak_acquire_relaxedEPyS4_S4_.exit.i.i
  %expected.057.i.i = phi i64 [ %9, %_ZN6Halide7Runtime8Internal15Synchronization12_GLOBAL__N_131atomic_cas_weak_acquire_relaxedEPyS4_S4_.exit.i.i ], [ %expected.0.ph.i.i, %while.cond.outer.i.i ]
  %or.i.i = or i64 %expected.057.i.i, 1
  %7 = cmpxchg weak i64* %state.i, i64 %expected.057.i.i, i64 %or.i.i acquire monotonic
  %8 = extractvalue { i64, i1 } %7, 1
  br i1 %8, label %_ZN6Halide7Runtime8Internal15Synchronization10fast_mutex4lockEv.exit, label %_ZN6Halide7Runtime8Internal15Synchronization12_GLOBAL__N_131atomic_cas_weak_acquire_relaxedEPyS4_S4_.exit.i.i

_ZN6Halide7Runtime8Internal15Synchronization12_GLOBAL__N_131atomic_cas_weak_acquire_relaxedEPyS4_S4_.exit.i.i: ; preds = %if.then.i.i
  %9 = extractvalue { i64, i1 } %7, 0
  %and.i.i = and i64 %9, 1
  %tobool.not.i.i = icmp eq i64 %and.i.i, 0
  br i1 %tobool.not.i.i, label %if.then.i.i, label %if.end4.i.i.loopexit

if.end4.i.i.loopexit:                             ; preds = %_ZN6Halide7Runtime8Internal15Synchronization12_GLOBAL__N_131atomic_cas_weak_acquire_relaxedEPyS4_S4_.exit.i.i
  %10 = extractvalue { i64, i1 } %7, 0
  br label %if.end4.i.i

if.end4.i.i:                                      ; preds = %if.end4.i.i.loopexit, %while.cond.outer.i.i
  %expected.0.lcssa.i.i = phi i64 [ %expected.0.ph.i.i, %while.cond.outer.i.i ], [ %10, %if.end4.i.i.loopexit ]
  %cmp.i.i.i = icmp sgt i32 %spinner.sroa.0.0.ph.i.i, 0
  br i1 %cmp.i.i.i, label %_ZN6Halide7Runtime8Internal15Synchronization12spin_control11should_spinEv.exit.i.i, label %if.end8.i.i

_ZN6Halide7Runtime8Internal15Synchronization12spin_control11should_spinEv.exit.i.i: ; preds = %if.end4.i.i
  %cmp4.i.not.i.i = icmp eq i32 %spinner.sroa.0.0.ph.i.i, 1
  br i1 %cmp4.i.not.i.i, label %if.end8.i.i, label %if.then6.i.i

if.then6.i.i:                                     ; preds = %_ZN6Halide7Runtime8Internal15Synchronization12spin_control11should_spinEv.exit.i.i
  %dec.i.i.i = add nsw i32 %spinner.sroa.0.0.ph.i.i, -1
  call void @halide_thread_yield() #14
  %11 = load atomic i64, i64* %state.i monotonic, align 8
  br label %while.cond.outer.i.i.backedge

if.end8.i.i:                                      ; preds = %_ZN6Halide7Runtime8Internal15Synchronization12spin_control11should_spinEv.exit.i.i, %if.end4.i.i
  %spinner.sroa.0.152.i.i = phi i32 [ 0, %_ZN6Halide7Runtime8Internal15Synchronization12spin_control11should_spinEv.exit.i.i ], [ %spinner.sroa.0.0.ph.i.i, %if.end4.i.i ]
  %and9.i.i = and i64 %expected.0.lcssa.i.i, 2
  %cmp.i.i = icmp eq i64 %and9.i.i, 0
  br i1 %cmp.i.i, label %if.then10.i.i, label %if.end19.i.i

if.then10.i.i:                                    ; preds = %if.end8.i.i
  %or12.i.i = or i64 %expected.0.lcssa.i.i, 2
  %12 = cmpxchg weak i64* %state.i, i64 %expected.0.lcssa.i.i, i64 %or12.i.i monotonic monotonic
  %13 = extractvalue { i64, i1 } %12, 1
  br i1 %13, label %if.end19.i.i, label %_ZN6Halide7Runtime8Internal15Synchronization12_GLOBAL__N_131atomic_cas_weak_relaxed_relaxedEPyS4_S4_.exit.i.i

_ZN6Halide7Runtime8Internal15Synchronization12_GLOBAL__N_131atomic_cas_weak_relaxed_relaxedEPyS4_S4_.exit.i.i: ; preds = %if.then10.i.i
  %14 = extractvalue { i64, i1 } %12, 0
  br label %while.cond.outer.i.i.backedge

if.end19.i.i:                                     ; preds = %if.then10.i.i, %if.end8.i.i
  call void @llvm.lifetime.start.p0i8(i64 16, i8* nonnull %3) #11
  store i32 (...)** bitcast (i8** getelementptr inbounds ({ [6 x i8*] }, { [6 x i8*] }* @_ZTVN6Halide7Runtime8Internal15Synchronization21mutex_parking_controlE, i64 0, inrange i32 0, i64 2) to i32 (...)**), i32 (...)*** %4, align 8, !tbaa !48
  store i64* %state.i, i64** %lock_state2.i.i.i, align 8, !tbaa !50
  %call21.i.i = call i64 @_ZN6Halide7Runtime8Internal15Synchronization15parking_control4parkEy(%"struct.Halide::Runtime::Internal::Synchronization::parking_control"* nonnull dereferenceable(8) %5, i64 %6) #14
  %cmp22.i.i = icmp eq i64 %call21.i.i, %6
  br i1 %cmp22.i.i, label %cleanup30.critedge.i.i, label %if.end24.i.i

if.end24.i.i:                                     ; preds = %if.end19.i.i
  %15 = load atomic i64, i64* %state.i monotonic, align 8
  call void @llvm.lifetime.end.p0i8(i64 16, i8* nonnull %3) #11
  br label %while.cond.outer.i.i.backedge

while.cond.outer.i.i.backedge:                    ; preds = %if.end24.i.i, %_ZN6Halide7Runtime8Internal15Synchronization12_GLOBAL__N_131atomic_cas_weak_relaxed_relaxedEPyS4_S4_.exit.i.i, %if.then6.i.i
  %expected.0.ph.i.i.be = phi i64 [ %14, %_ZN6Halide7Runtime8Internal15Synchronization12_GLOBAL__N_131atomic_cas_weak_relaxed_relaxedEPyS4_S4_.exit.i.i ], [ %15, %if.end24.i.i ], [ %11, %if.then6.i.i ]
  %spinner.sroa.0.0.ph.i.i.be = phi i32 [ %spinner.sroa.0.152.i.i, %_ZN6Halide7Runtime8Internal15Synchronization12_GLOBAL__N_131atomic_cas_weak_relaxed_relaxedEPyS4_S4_.exit.i.i ], [ 40, %if.end24.i.i ], [ %dec.i.i.i, %if.then6.i.i ]
  br label %while.cond.outer.i.i

cleanup30.critedge.i.i:                           ; preds = %if.end19.i.i
  call void @llvm.lifetime.end.p0i8(i64 16, i8* nonnull %3) #11
  br label %_ZN6Halide7Runtime8Internal15Synchronization10fast_mutex4lockEv.exit

_ZN6Halide7Runtime8Internal15Synchronization10fast_mutex4lockEv.exit: ; preds = %if.then.i.i, %cleanup30.critedge.i.i, %entry
  ret void
}

; Function Attrs: nounwind mustprogress
define linkonce void @_ZN6Halide7Runtime8Internal27enqueue_work_already_lockedEiPNS1_4workES3_(i32 %num_jobs, %"struct.Halide::Runtime::Internal::work"* %jobs, %"struct.Halide::Runtime::Internal::work"* %task_parent) local_unnamed_addr #0 {
entry:
  %0 = load i8, i8* getelementptr inbounds (%"struct.Halide::Runtime::Internal::work_queue_t", %"struct.Halide::Runtime::Internal::work_queue_t"* @_ZN6Halide7Runtime8Internal10work_queueE, i64 0, i32 15), align 1, !tbaa !52, !range !21
  %tobool.not = icmp eq i8 %0, 0
  br i1 %tobool.not, label %land.rhs.i, label %if.end4

land.rhs.i:                                       ; preds = %entry, %while.body.i
  %bytes.011.i = phi i8* [ %incdec.ptr.i, %while.body.i ], [ bitcast (i32* getelementptr inbounds (%"struct.Halide::Runtime::Internal::work_queue_t", %"struct.Halide::Runtime::Internal::work_queue_t"* @_ZN6Halide7Runtime8Internal10work_queueE, i64 0, i32 2) to i8*), %entry ]
  %1 = load i8, i8* %bytes.011.i, align 1, !tbaa !18
  %cmp2.i = icmp eq i8 %1, 0
  br i1 %cmp2.i, label %while.body.i, label %do.body.i

while.body.i:                                     ; preds = %land.rhs.i
  %incdec.ptr.i = getelementptr inbounds i8, i8* %bytes.011.i, i64 1
  %exitcond.not.i = icmp eq i8* %incdec.ptr.i, bitcast (%"struct.Halide::Runtime::Internal::work_queue_t"* select (i1 icmp ugt (i8* bitcast (%"struct.Halide::Runtime::Internal::work_queue_t"* getelementptr inbounds (%"struct.Halide::Runtime::Internal::work_queue_t", %"struct.Halide::Runtime::Internal::work_queue_t"* @_ZN6Halide7Runtime8Internal10work_queueE, i64 1) to i8*), i8* getelementptr (i8, i8* bitcast (i32* getelementptr inbounds (%"struct.Halide::Runtime::Internal::work_queue_t", %"struct.Halide::Runtime::Internal::work_queue_t"* @_ZN6Halide7Runtime8Internal10work_queueE, i64 0, i32 2) to i8*), i64 1)), %"struct.Halide::Runtime::Internal::work_queue_t"* getelementptr inbounds (%"struct.Halide::Runtime::Internal::work_queue_t", %"struct.Halide::Runtime::Internal::work_queue_t"* @_ZN6Halide7Runtime8Internal10work_queueE, i64 1), %"struct.Halide::Runtime::Internal::work_queue_t"* bitcast (i8* getelementptr (i8, i8* bitcast (i32* getelementptr inbounds (%"struct.Halide::Runtime::Internal::work_queue_t", %"struct.Halide::Runtime::Internal::work_queue_t"* @_ZN6Halide7Runtime8Internal10work_queueE, i64 0, i32 2) to i8*), i64 1) to %"struct.Halide::Runtime::Internal::work_queue_t"*)) to i8*)
  br i1 %exitcond.not.i, label %do.body.i, label %land.rhs.i, !llvm.loop !56

do.body.i:                                        ; preds = %while.body.i, %land.rhs.i
  %bytes.0.lcssa.i = phi i8* [ %bytes.011.i, %land.rhs.i ], [ bitcast (%"struct.Halide::Runtime::Internal::work_queue_t"* select (i1 icmp ugt (i8* bitcast (%"struct.Halide::Runtime::Internal::work_queue_t"* getelementptr inbounds (%"struct.Halide::Runtime::Internal::work_queue_t", %"struct.Halide::Runtime::Internal::work_queue_t"* @_ZN6Halide7Runtime8Internal10work_queueE, i64 1) to i8*), i8* getelementptr (i8, i8* bitcast (i32* getelementptr inbounds (%"struct.Halide::Runtime::Internal::work_queue_t", %"struct.Halide::Runtime::Internal::work_queue_t"* @_ZN6Halide7Runtime8Internal10work_queueE, i64 0, i32 2) to i8*), i64 1)), %"struct.Halide::Runtime::Internal::work_queue_t"* getelementptr inbounds (%"struct.Halide::Runtime::Internal::work_queue_t", %"struct.Halide::Runtime::Internal::work_queue_t"* @_ZN6Halide7Runtime8Internal10work_queueE, i64 1), %"struct.Halide::Runtime::Internal::work_queue_t"* bitcast (i8* getelementptr (i8, i8* bitcast (i32* getelementptr inbounds (%"struct.Halide::Runtime::Internal::work_queue_t", %"struct.Halide::Runtime::Internal::work_queue_t"* @_ZN6Halide7Runtime8Internal10work_queueE, i64 0, i32 2) to i8*), i64 1) to %"struct.Halide::Runtime::Internal::work_queue_t"*)) to i8*), %while.body.i ]
  %cmp3.i = icmp eq i8* %bytes.0.lcssa.i, bitcast (%"struct.Halide::Runtime::Internal::work_queue_t"* getelementptr inbounds (%"struct.Halide::Runtime::Internal::work_queue_t", %"struct.Halide::Runtime::Internal::work_queue_t"* @_ZN6Halide7Runtime8Internal10work_queueE, i64 1) to i8*)
  br i1 %cmp3.i, label %_ZNK6Halide7Runtime8Internal12work_queue_t13assert_zeroedEv.exit, label %if.then.i

if.then.i:                                        ; preds = %do.body.i
  tail call void @halide_print(i8* null, i8* getelementptr inbounds ([186 x i8], [186 x i8]* @.str.6, i64 0, i64 0)) #14
  tail call void @abort() #14
  br label %_ZNK6Halide7Runtime8Internal12work_queue_t13assert_zeroedEv.exit

_ZNK6Halide7Runtime8Internal12work_queue_t13assert_zeroedEv.exit: ; preds = %if.then.i, %do.body.i
  %2 = load i32, i32* getelementptr inbounds (%"struct.Halide::Runtime::Internal::work_queue_t", %"struct.Halide::Runtime::Internal::work_queue_t"* @_ZN6Halide7Runtime8Internal10work_queueE, i64 0, i32 1), align 8, !tbaa !58
  %tobool1.not = icmp eq i32 %2, 0
  br i1 %tobool1.not, label %if.then2, label %if.end

if.then2:                                         ; preds = %_ZNK6Halide7Runtime8Internal12work_queue_t13assert_zeroedEv.exit
  %call = tail call i32 @_ZN6Halide7Runtime8Internal27default_desired_num_threadsEv() #15
  br label %if.end

if.end:                                           ; preds = %if.then2, %_ZNK6Halide7Runtime8Internal12work_queue_t13assert_zeroedEv.exit
  %3 = phi i32 [ %call, %if.then2 ], [ %2, %_ZNK6Halide7Runtime8Internal12work_queue_t13assert_zeroedEv.exit ]
  %4 = icmp sgt i32 %3, 1
  %spec.select.i = select i1 %4, i32 %3, i32 1
  %5 = icmp slt i32 %spec.select.i, 256
  %call3176 = select i1 %5, i32 %spec.select.i, i32 256
  store i32 %call3176, i32* getelementptr inbounds (%"struct.Halide::Runtime::Internal::work_queue_t", %"struct.Halide::Runtime::Internal::work_queue_t"* @_ZN6Halide7Runtime8Internal10work_queueE, i64 0, i32 1), align 8, !tbaa !58
  store i8 1, i8* getelementptr inbounds (%"struct.Halide::Runtime::Internal::work_queue_t", %"struct.Halide::Runtime::Internal::work_queue_t"* @_ZN6Halide7Runtime8Internal10work_queueE, i64 0, i32 15), align 1, !tbaa !52
  br label %if.end4

if.end4:                                          ; preds = %if.end, %entry
  %cmp181 = icmp sgt i32 %num_jobs, 0
  br i1 %cmp181, label %for.body.preheader, label %for.cond.cleanup

for.body.preheader:                               ; preds = %if.end4
  %wide.trip.count = zext i32 %num_jobs to i64
  br label %for.body

for.cond.cleanup.loopexit:                        ; preds = %for.inc
  %phi.bo = and i8 %stealable_jobs.1, 1
  br label %for.cond.cleanup

for.cond.cleanup:                                 ; preds = %for.cond.cleanup.loopexit, %if.end4
  %workers_to_wake.0.lcssa = phi i32 [ -1, %if.end4 ], [ %workers_to_wake.1, %for.cond.cleanup.loopexit ]
  %stealable_jobs.0.lcssa = phi i8 [ 0, %if.end4 ], [ %phi.bo, %for.cond.cleanup.loopexit ]
  %job_has_acquires.0.lcssa = phi i8 [ 0, %if.end4 ], [ %spec.select, %for.cond.cleanup.loopexit ]
  %job_may_block.0.lcssa = phi i8 [ 0, %if.end4 ], [ %job_may_block.1, %for.cond.cleanup.loopexit ]
  %min_threads.0.lcssa = phi i32 [ 0, %if.end4 ], [ %add, %for.cond.cleanup.loopexit ]
  %cmp31 = icmp eq %"struct.Halide::Runtime::Internal::work"* %task_parent, null
  br i1 %cmp31, label %if.then32, label %do.body61

for.body:                                         ; preds = %for.inc, %for.body.preheader
  %indvars.iv193 = phi i64 [ 0, %for.body.preheader ], [ %indvars.iv.next194, %for.inc ]
  %min_threads.0187 = phi i32 [ 0, %for.body.preheader ], [ %add, %for.inc ]
  %job_may_block.0185 = phi i8 [ 0, %for.body.preheader ], [ %job_may_block.1, %for.inc ]
  %job_has_acquires.0184 = phi i8 [ 0, %for.body.preheader ], [ %spec.select, %for.inc ]
  %stealable_jobs.0183 = phi i8 [ 0, %for.body.preheader ], [ %stealable_jobs.1, %for.inc ]
  %workers_to_wake.0182 = phi i32 [ -1, %for.body.preheader ], [ %workers_to_wake.1, %for.inc ]
  %min_threads5 = getelementptr inbounds %"struct.Halide::Runtime::Internal::work", %"struct.Halide::Runtime::Internal::work"* %jobs, i64 %indvars.iv193, i32 0, i32 7
  %6 = load i32, i32* %min_threads5, align 4, !tbaa !37
  %cmp6 = icmp eq i32 %6, 0
  %add = add i32 %6, %min_threads.0187
  %stealable_jobs.1 = select i1 %cmp6, i8 1, i8 %stealable_jobs.0183
  %job_may_block.1 = select i1 %cmp6, i8 %job_may_block.0185, i8 1
  %num_semaphores = getelementptr inbounds %"struct.Halide::Runtime::Internal::work", %"struct.Halide::Runtime::Internal::work"* %jobs, i64 %indvars.iv193, i32 0, i32 4
  %7 = load i32, i32* %num_semaphores, align 8, !tbaa !35
  %cmp16.not = icmp eq i32 %7, 0
  %spec.select = select i1 %cmp16.not, i8 %job_has_acquires.0184, i8 1
  %serial = getelementptr inbounds %"struct.Halide::Runtime::Internal::work", %"struct.Halide::Runtime::Internal::work"* %jobs, i64 %indvars.iv193, i32 0, i32 8
  %8 = load i8, i8* %serial, align 8, !tbaa !33, !range !21
  %tobool22.not = icmp eq i8 %8, 0
  br i1 %tobool22.not, label %if.else24, label %if.then23

if.then23:                                        ; preds = %for.body
  %inc = add nsw i32 %workers_to_wake.0182, 1
  br label %for.inc

if.else24:                                        ; preds = %for.body
  %extent = getelementptr inbounds %"struct.Halide::Runtime::Internal::work", %"struct.Halide::Runtime::Internal::work"* %jobs, i64 %indvars.iv193, i32 0, i32 6
  %9 = load i32, i32* %extent, align 8, !tbaa !32
  %add28 = add nsw i32 %9, %workers_to_wake.0182
  br label %for.inc

for.inc:                                          ; preds = %if.else24, %if.then23
  %workers_to_wake.1 = phi i32 [ %inc, %if.then23 ], [ %add28, %if.else24 ]
  %indvars.iv.next194 = add nuw nsw i64 %indvars.iv193, 1
  %exitcond.not = icmp eq i64 %indvars.iv.next194, %wide.trip.count
  br i1 %exitcond.not, label %for.cond.cleanup.loopexit, label %for.body, !llvm.loop !59

if.then32:                                        ; preds = %for.cond.cleanup
  %10 = or i8 %job_may_block.0.lcssa, %job_has_acquires.0.lcssa
  %11 = and i8 %10, 1
  %12 = icmp eq i8 %11, 0
  %not. = xor i1 %12, true
  %add36 = zext i1 %not. to i32
  %min_threads.2 = add nsw i32 %min_threads.0.lcssa, %add36
  %13 = load i32, i32* getelementptr inbounds (%"struct.Halide::Runtime::Internal::work_queue_t", %"struct.Halide::Runtime::Internal::work_queue_t"* @_ZN6Halide7Runtime8Internal10work_queueE, i64 0, i32 4), align 8, !tbaa !60
  %cmp38180 = icmp slt i32 %13, 256
  br i1 %cmp38180, label %land.rhs, label %do.end50

land.rhs:                                         ; preds = %if.then32, %while.body
  %14 = phi i32 [ %inc45, %while.body ], [ %13, %if.then32 ]
  %15 = load i32, i32* getelementptr inbounds (%"struct.Halide::Runtime::Internal::work_queue_t", %"struct.Halide::Runtime::Internal::work_queue_t"* @_ZN6Halide7Runtime8Internal10work_queueE, i64 0, i32 1), align 8, !tbaa !58
  %sub = add nsw i32 %15, -1
  %cmp39 = icmp slt i32 %14, %sub
  br i1 %cmp39, label %while.body, label %lor.rhs

lor.rhs:                                          ; preds = %land.rhs
  %add40 = add nsw i32 %14, 1
  %16 = load i32, i32* getelementptr inbounds (%"struct.Halide::Runtime::Internal::work_queue_t", %"struct.Halide::Runtime::Internal::work_queue_t"* @_ZN6Halide7Runtime8Internal10work_queueE, i64 0, i32 16), align 4, !tbaa !61
  %sub41 = sub i32 %add40, %16
  %cmp42 = icmp slt i32 %sub41, %min_threads.2
  br i1 %cmp42, label %while.body, label %do.end50

while.body:                                       ; preds = %lor.rhs, %land.rhs
  %17 = load i32, i32* getelementptr inbounds (%"struct.Halide::Runtime::Internal::work_queue_t", %"struct.Halide::Runtime::Internal::work_queue_t"* @_ZN6Halide7Runtime8Internal10work_queueE, i64 0, i32 5), align 4, !tbaa !62
  %inc43 = add nsw i32 %17, 1
  store i32 %inc43, i32* getelementptr inbounds (%"struct.Halide::Runtime::Internal::work_queue_t", %"struct.Halide::Runtime::Internal::work_queue_t"* @_ZN6Halide7Runtime8Internal10work_queueE, i64 0, i32 5), align 4, !tbaa !62
  %call44 = tail call %struct.halide_thread* @halide_spawn_thread(void (i8*)* nonnull @_ZN6Halide7Runtime8Internal13worker_threadEPv, i8* null) #15
  %18 = load i32, i32* getelementptr inbounds (%"struct.Halide::Runtime::Internal::work_queue_t", %"struct.Halide::Runtime::Internal::work_queue_t"* @_ZN6Halide7Runtime8Internal10work_queueE, i64 0, i32 4), align 8, !tbaa !60
  %inc45 = add nsw i32 %18, 1
  store i32 %inc45, i32* getelementptr inbounds (%"struct.Halide::Runtime::Internal::work_queue_t", %"struct.Halide::Runtime::Internal::work_queue_t"* @_ZN6Halide7Runtime8Internal10work_queueE, i64 0, i32 4), align 8, !tbaa !60
  %idxprom46 = sext i32 %18 to i64
  %arrayidx47 = getelementptr inbounds %"struct.Halide::Runtime::Internal::work_queue_t", %"struct.Halide::Runtime::Internal::work_queue_t"* @_ZN6Halide7Runtime8Internal10work_queueE, i64 0, i32 13, i64 %idxprom46
  store %struct.halide_thread* %call44, %struct.halide_thread** %arrayidx47, align 8, !tbaa !14
  %cmp38 = icmp slt i32 %18, 255
  br i1 %cmp38, label %land.rhs, label %do.end50, !llvm.loop !63

do.end50:                                         ; preds = %while.body, %lor.rhs, %if.then32
  br i1 %12, label %if.end77, label %if.then54

if.then54:                                        ; preds = %do.end50
  %19 = load i32, i32* getelementptr inbounds (%"struct.Halide::Runtime::Internal::work_queue_t", %"struct.Halide::Runtime::Internal::work_queue_t"* @_ZN6Halide7Runtime8Internal10work_queueE, i64 0, i32 16), align 4, !tbaa !61
  %inc55 = add nsw i32 %19, 1
  store i32 %inc55, i32* getelementptr inbounds (%"struct.Halide::Runtime::Internal::work_queue_t", %"struct.Halide::Runtime::Internal::work_queue_t"* @_ZN6Halide7Runtime8Internal10work_queueE, i64 0, i32 16), align 4, !tbaa !61
  br label %if.end77

do.body61:                                        ; preds = %for.cond.cleanup
  %min_threads63 = getelementptr inbounds %"struct.Halide::Runtime::Internal::work", %"struct.Halide::Runtime::Internal::work"* %task_parent, i64 0, i32 0, i32 7
  %20 = load i32, i32* %min_threads63, align 4, !tbaa !37
  %active_workers = getelementptr inbounds %"struct.Halide::Runtime::Internal::work", %"struct.Halide::Runtime::Internal::work"* %task_parent, i64 0, i32 8
  %21 = load i32, i32* %active_workers, align 8, !tbaa !64
  %mul = mul nsw i32 %21, %20
  %threads_reserved = getelementptr inbounds %"struct.Halide::Runtime::Internal::work", %"struct.Halide::Runtime::Internal::work"* %task_parent, i64 0, i32 6
  %22 = load i32, i32* %threads_reserved, align 8, !tbaa !65
  %sub64 = sub nsw i32 %mul, %22
  %cmp65.not = icmp sgt i32 %min_threads.0.lcssa, %sub64
  br i1 %cmp65.not, label %if.then66, label %do.end69

if.then66:                                        ; preds = %do.body61
  tail call void @halide_print(i8* null, i8* getelementptr inbounds ([263 x i8], [263 x i8]* @.str.3, i64 0, i64 0)) #14
  tail call void @abort() #14
  br label %do.end69

do.end69:                                         ; preds = %if.then66, %do.body61
  %23 = or i8 %job_may_block.0.lcssa, %job_has_acquires.0.lcssa
  %24 = and i8 %23, 1
  %25 = icmp eq i8 %24, 0
  br i1 %25, label %if.end77, label %if.then73

if.then73:                                        ; preds = %do.end69
  %26 = load i32, i32* %threads_reserved, align 8, !tbaa !65
  %inc75 = add nsw i32 %26, 1
  store i32 %inc75, i32* %threads_reserved, align 8, !tbaa !65
  br label %if.end77

if.end77:                                         ; preds = %if.then73, %do.end69, %if.then54, %do.end50
  br i1 %cmp181, label %for.body83.lr.ph, label %for.cond.cleanup82

for.body83.lr.ph:                                 ; preds = %if.end77
  %.promoted = load %"struct.Halide::Runtime::Internal::work"*, %"struct.Halide::Runtime::Internal::work"** getelementptr inbounds (%"struct.Halide::Runtime::Internal::work_queue_t", %"struct.Halide::Runtime::Internal::work_queue_t"* @_ZN6Halide7Runtime8Internal10work_queueE, i64 0, i32 3), align 8, !tbaa !66
  %27 = zext i32 %num_jobs to i64
  %min.iters.check = icmp eq i32 %num_jobs, 1
  br i1 %min.iters.check, label %for.body83.preheader, label %vector.ph

vector.ph:                                        ; preds = %for.body83.lr.ph
  %n.vec = and i64 %27, 4294967294
  %ind.end = and i64 %27, 1
  br label %vector.body

vector.body:                                      ; preds = %vector.body, %vector.ph
  %index = phi i64 [ 0, %vector.ph ], [ %index.next, %vector.body ]
  %vector.recur = phi %"struct.Halide::Runtime::Internal::work"* [ %.promoted, %vector.ph ], [ %31, %vector.body ]
  %offset.idx = sub i64 %27, %index
  %28 = add nsw i64 %offset.idx, -1
  %29 = add i64 %offset.idx, -2
  %30 = getelementptr inbounds %"struct.Halide::Runtime::Internal::work", %"struct.Halide::Runtime::Internal::work"* %jobs, i64 %28
  %31 = getelementptr inbounds %"struct.Halide::Runtime::Internal::work", %"struct.Halide::Runtime::Internal::work"* %jobs, i64 %29
  %32 = getelementptr inbounds %"struct.Halide::Runtime::Internal::work", %"struct.Halide::Runtime::Internal::work"* %jobs, i64 %28, i32 2
  %33 = getelementptr inbounds %"struct.Halide::Runtime::Internal::work", %"struct.Halide::Runtime::Internal::work"* %jobs, i64 %29, i32 2
  store %"struct.Halide::Runtime::Internal::work"* %vector.recur, %"struct.Halide::Runtime::Internal::work"** %32, align 8, !tbaa !67
  store %"struct.Halide::Runtime::Internal::work"* %30, %"struct.Halide::Runtime::Internal::work"** %33, align 8, !tbaa !67
  %34 = getelementptr inbounds %"struct.Halide::Runtime::Internal::work", %"struct.Halide::Runtime::Internal::work"* %jobs, i64 %28, i32 3
  %35 = getelementptr inbounds %"struct.Halide::Runtime::Internal::work", %"struct.Halide::Runtime::Internal::work"* %jobs, i64 %29, i32 3
  store %"struct.Halide::Runtime::Internal::work"* %jobs, %"struct.Halide::Runtime::Internal::work"** %34, align 8, !tbaa !44
  store %"struct.Halide::Runtime::Internal::work"* %jobs, %"struct.Halide::Runtime::Internal::work"** %35, align 8, !tbaa !44
  %36 = getelementptr inbounds %"struct.Halide::Runtime::Internal::work", %"struct.Halide::Runtime::Internal::work"* %jobs, i64 %28, i32 4
  %37 = getelementptr inbounds %"struct.Halide::Runtime::Internal::work", %"struct.Halide::Runtime::Internal::work"* %jobs, i64 %29, i32 4
  store i32 %num_jobs, i32* %36, align 8, !tbaa !45
  store i32 %num_jobs, i32* %37, align 8, !tbaa !45
  %38 = getelementptr inbounds %"struct.Halide::Runtime::Internal::work", %"struct.Halide::Runtime::Internal::work"* %jobs, i64 %28, i32 6
  %39 = getelementptr inbounds %"struct.Halide::Runtime::Internal::work", %"struct.Halide::Runtime::Internal::work"* %jobs, i64 %29, i32 6
  store i32 0, i32* %38, align 8, !tbaa !65
  store i32 0, i32* %39, align 8, !tbaa !65
  %index.next = add i64 %index, 2
  %40 = icmp eq i64 %index.next, %n.vec
  br i1 %40, label %middle.block, label %vector.body, !llvm.loop !68

middle.block:                                     ; preds = %vector.body
  %cmp.n = icmp eq i64 %n.vec, %27
  br i1 %cmp.n, label %for.cond80.for.cond.cleanup82_crit_edge, label %for.body83.preheader

for.body83.preheader:                             ; preds = %for.body83.lr.ph, %middle.block
  %indvars.iv.ph = phi i64 [ %ind.end, %middle.block ], [ %27, %for.body83.lr.ph ]
  %scalar.recur.ph = phi %"struct.Halide::Runtime::Internal::work"* [ %31, %middle.block ], [ %.promoted, %for.body83.lr.ph ]
  br label %for.body83

for.cond80.for.cond.cleanup82_crit_edge:          ; preds = %for.body83, %middle.block
  store %"struct.Halide::Runtime::Internal::work"* %jobs, %"struct.Halide::Runtime::Internal::work"** getelementptr inbounds (%"struct.Halide::Runtime::Internal::work_queue_t", %"struct.Halide::Runtime::Internal::work_queue_t"* @_ZN6Halide7Runtime8Internal10work_queueE, i64 0, i32 3), align 8, !tbaa !66
  br label %for.cond.cleanup82

for.cond.cleanup82:                               ; preds = %for.cond80.for.cond.cleanup82_crit_edge, %if.end77
  %41 = load i32, i32* getelementptr inbounds (%"struct.Halide::Runtime::Internal::work_queue_t", %"struct.Halide::Runtime::Internal::work_queue_t"* @_ZN6Halide7Runtime8Internal10work_queueE, i64 0, i32 12), align 4, !tbaa !70
  %tobool96 = icmp ne i32 %41, 0
  %42 = load i32, i32* getelementptr inbounds (%"struct.Halide::Runtime::Internal::work_queue_t", %"struct.Halide::Runtime::Internal::work_queue_t"* @_ZN6Halide7Runtime8Internal10work_queueE, i64 0, i32 11), align 8
  %43 = load i32, i32* getelementptr inbounds (%"struct.Halide::Runtime::Internal::work_queue_t", %"struct.Halide::Runtime::Internal::work_queue_t"* @_ZN6Halide7Runtime8Internal10work_queueE, i64 0, i32 4), align 8
  %cmp98 = icmp slt i32 %42, %43
  %44 = or i1 %tobool96, %cmp98
  %cmp102 = icmp sgt i32 %workers_to_wake.0.lcssa, %42
  %or.cond174 = or i1 %cmp102, %44
  %storemerge = select i1 %or.cond174, i32 %43, i32 %workers_to_wake.0.lcssa
  store i32 %storemerge, i32* getelementptr inbounds (%"struct.Halide::Runtime::Internal::work_queue_t", %"struct.Halide::Runtime::Internal::work_queue_t"* @_ZN6Halide7Runtime8Internal10work_queueE, i64 0, i32 6), align 8, !tbaa !71
  tail call void @halide_cond_broadcast(%struct.halide_mutex* getelementptr inbounds (%"struct.Halide::Runtime::Internal::work_queue_t", %"struct.Halide::Runtime::Internal::work_queue_t"* @_ZN6Halide7Runtime8Internal10work_queueE, i64 0, i32 8)) #15
  %45 = load i32, i32* getelementptr inbounds (%"struct.Halide::Runtime::Internal::work_queue_t", %"struct.Halide::Runtime::Internal::work_queue_t"* @_ZN6Halide7Runtime8Internal10work_queueE, i64 0, i32 6), align 8, !tbaa !71
  %46 = load i32, i32* getelementptr inbounds (%"struct.Halide::Runtime::Internal::work_queue_t", %"struct.Halide::Runtime::Internal::work_queue_t"* @_ZN6Halide7Runtime8Internal10work_queueE, i64 0, i32 5), align 4, !tbaa !62
  %cmp106 = icmp sgt i32 %45, %46
  br i1 %cmp106, label %if.then107, label %if.end111

for.body83:                                       ; preds = %for.body83.preheader, %for.body83
  %indvars.iv = phi i64 [ %indvars.iv.next, %for.body83 ], [ %indvars.iv.ph, %for.body83.preheader ]
  %scalar.recur = phi %"struct.Halide::Runtime::Internal::work"* [ %arrayidx85, %for.body83 ], [ %scalar.recur.ph, %for.body83.preheader ]
  %indvars.iv.next = add nsw i64 %indvars.iv, -1
  %arrayidx85 = getelementptr inbounds %"struct.Halide::Runtime::Internal::work", %"struct.Halide::Runtime::Internal::work"* %jobs, i64 %indvars.iv.next
  %next_job = getelementptr inbounds %"struct.Halide::Runtime::Internal::work", %"struct.Halide::Runtime::Internal::work"* %jobs, i64 %indvars.iv.next, i32 2
  store %"struct.Halide::Runtime::Internal::work"* %scalar.recur, %"struct.Halide::Runtime::Internal::work"** %next_job, align 8, !tbaa !67
  %siblings = getelementptr inbounds %"struct.Halide::Runtime::Internal::work", %"struct.Halide::Runtime::Internal::work"* %jobs, i64 %indvars.iv.next, i32 3
  store %"struct.Halide::Runtime::Internal::work"* %jobs, %"struct.Halide::Runtime::Internal::work"** %siblings, align 8, !tbaa !44
  %sibling_count = getelementptr inbounds %"struct.Halide::Runtime::Internal::work", %"struct.Halide::Runtime::Internal::work"* %jobs, i64 %indvars.iv.next, i32 4
  store i32 %num_jobs, i32* %sibling_count, align 8, !tbaa !45
  %threads_reserved93 = getelementptr inbounds %"struct.Halide::Runtime::Internal::work", %"struct.Halide::Runtime::Internal::work"* %jobs, i64 %indvars.iv.next, i32 6
  store i32 0, i32* %threads_reserved93, align 8, !tbaa !65
  %cmp81 = icmp sgt i64 %indvars.iv, 1
  br i1 %cmp81, label %for.body83, label %for.cond80.for.cond.cleanup82_crit_edge, !llvm.loop !72

if.then107:                                       ; preds = %for.cond.cleanup82
  tail call void @halide_cond_broadcast(%struct.halide_mutex* getelementptr inbounds (%"struct.Halide::Runtime::Internal::work_queue_t", %"struct.Halide::Runtime::Internal::work_queue_t"* @_ZN6Halide7Runtime8Internal10work_queueE, i64 0, i32 9)) #15
  %tobool108.not = icmp eq i8 %stealable_jobs.0.lcssa, 0
  br i1 %tobool108.not, label %if.end111, label %if.then109

if.then109:                                       ; preds = %if.then107
  tail call void @halide_cond_broadcast(%struct.halide_mutex* getelementptr inbounds (%"struct.Halide::Runtime::Internal::work_queue_t", %"struct.Halide::Runtime::Internal::work_queue_t"* @_ZN6Halide7Runtime8Internal10work_queueE, i64 0, i32 10)) #15
  br label %if.end111

if.end111:                                        ; preds = %if.then109, %if.then107, %for.cond.cleanup82
  %47 = or i8 %job_may_block.0.lcssa, %job_has_acquires.0.lcssa
  %48 = and i8 %47, 1
  %49 = icmp eq i8 %48, 0
  br i1 %49, label %if.end123, label %if.then115

if.then115:                                       ; preds = %if.end111
  br i1 %cmp31, label %if.else120, label %if.then117

if.then117:                                       ; preds = %if.then115
  %threads_reserved118 = getelementptr inbounds %"struct.Halide::Runtime::Internal::work", %"struct.Halide::Runtime::Internal::work"* %task_parent, i64 0, i32 6
  %50 = load i32, i32* %threads_reserved118, align 8, !tbaa !65
  %dec119 = add nsw i32 %50, -1
  store i32 %dec119, i32* %threads_reserved118, align 8, !tbaa !65
  br label %if.end123

if.else120:                                       ; preds = %if.then115
  %51 = load i32, i32* getelementptr inbounds (%"struct.Halide::Runtime::Internal::work_queue_t", %"struct.Halide::Runtime::Internal::work_queue_t"* @_ZN6Halide7Runtime8Internal10work_queueE, i64 0, i32 16), align 4, !tbaa !61
  %dec121 = add nsw i32 %51, -1
  store i32 %dec121, i32* getelementptr inbounds (%"struct.Halide::Runtime::Internal::work_queue_t", %"struct.Halide::Runtime::Internal::work_queue_t"* @_ZN6Halide7Runtime8Internal10work_queueE, i64 0, i32 16), align 4, !tbaa !61
  br label %if.end123

if.end123:                                        ; preds = %if.else120, %if.then117, %if.end111
  ret void
}

; Function Attrs: nounwind mustprogress
define linkonce void @_ZN6Halide7Runtime8Internal28worker_thread_already_lockedEPNS1_4workE(%"struct.Halide::Runtime::Internal::work"* %owned_job) local_unnamed_addr #0 {
entry:
  %active_workers.i = getelementptr inbounds %"struct.Halide::Runtime::Internal::work", %"struct.Halide::Runtime::Internal::work"* %owned_job, i64 0, i32 8
  %tobool.not = icmp eq %"struct.Halide::Runtime::Internal::work"* %owned_job, null
  %extent.i = getelementptr inbounds %"struct.Halide::Runtime::Internal::work", %"struct.Halide::Runtime::Internal::work"* %owned_job, i64 0, i32 0, i32 6
  %exit_status = getelementptr inbounds %"struct.Halide::Runtime::Internal::work", %"struct.Halide::Runtime::Internal::work"* %owned_job, i64 0, i32 9
  %parent_job = getelementptr inbounds %"struct.Halide::Runtime::Internal::work", %"struct.Halide::Runtime::Internal::work"* %owned_job, i64 0, i32 5
  %siblings56 = getelementptr inbounds %"struct.Halide::Runtime::Internal::work", %"struct.Halide::Runtime::Internal::work"* %owned_job, i64 0, i32 3
  %owner_is_sleeping = getelementptr inbounds %"struct.Halide::Runtime::Internal::work", %"struct.Halide::Runtime::Internal::work"* %owned_job, i64 0, i32 11
  %next_job10 = getelementptr inbounds %"struct.Halide::Runtime::Internal::work", %"struct.Halide::Runtime::Internal::work"* %owned_job, i64 0, i32 2
  br label %while.cond

while.cond:                                       ; preds = %while.cond.backedge, %entry
  %spin_count.0 = phi i32 [ 0, %entry ], [ %spin_count.0.be, %while.cond.backedge ]
  br i1 %tobool.not, label %cond.false, label %cond.true

cond.true:                                        ; preds = %while.cond
  %0 = load i32, i32* %extent.i, align 8, !tbaa !32
  %tobool.not.i = icmp eq i32 %0, 0
  br i1 %tobool.not.i, label %cond.end, label %if.then

cond.false:                                       ; preds = %while.cond
  %1 = load i8, i8* getelementptr inbounds (%"struct.Halide::Runtime::Internal::work_queue_t", %"struct.Halide::Runtime::Internal::work_queue_t"* @_ZN6Halide7Runtime8Internal10work_queueE, i64 0, i32 14), align 8, !tbaa !73, !range !21
  %tobool1.not = icmp eq i8 %1, 0
  br i1 %tobool1.not, label %do.end.thread, label %while.end316

cond.end:                                         ; preds = %cond.true
  %2 = load i32, i32* %active_workers.i, align 8, !tbaa !64
  %tobool2.i.not = icmp eq i32 %2, 0
  br i1 %tobool2.i.not, label %while.end316, label %if.then

if.then:                                          ; preds = %cond.end, %cond.true
  %3 = load %"struct.Halide::Runtime::Internal::work"*, %"struct.Halide::Runtime::Internal::work"** getelementptr inbounds (%"struct.Halide::Runtime::Internal::work_queue_t", %"struct.Halide::Runtime::Internal::work_queue_t"* @_ZN6Halide7Runtime8Internal10work_queueE, i64 0, i32 3), align 8, !tbaa !66
  %4 = load i32, i32* %exit_status, align 4, !tbaa !47
  %cmp.not = icmp eq i32 %4, 0
  br i1 %cmp.not, label %if.else, label %if.then3

if.then3:                                         ; preds = %if.then
  %5 = load i32, i32* %active_workers.i, align 8, !tbaa !64
  %cmp4 = icmp eq i32 %5, 0
  br i1 %cmp4, label %while.cond6.preheader, label %do.end

while.cond6.preheader:                            ; preds = %if.then3
  %cmp7.not524 = icmp eq %"struct.Halide::Runtime::Internal::work"* %3, %owned_job
  br i1 %cmp7.not524, label %while.end, label %while.body8

while.body8:                                      ; preds = %while.cond6.preheader, %while.body8
  %job.0525 = phi %"struct.Halide::Runtime::Internal::work"* [ %6, %while.body8 ], [ %3, %while.cond6.preheader ]
  %next_job = getelementptr inbounds %"struct.Halide::Runtime::Internal::work", %"struct.Halide::Runtime::Internal::work"* %job.0525, i64 0, i32 2
  %6 = load %"struct.Halide::Runtime::Internal::work"*, %"struct.Halide::Runtime::Internal::work"** %next_job, align 8, !tbaa !67
  %cmp7.not = icmp eq %"struct.Halide::Runtime::Internal::work"* %6, %owned_job
  br i1 %cmp7.not, label %while.end.loopexit, label %while.body8, !llvm.loop !74

while.end.loopexit:                               ; preds = %while.body8
  %next_job.le = getelementptr inbounds %"struct.Halide::Runtime::Internal::work", %"struct.Halide::Runtime::Internal::work"* %job.0525, i64 0, i32 2
  br label %while.end

while.end:                                        ; preds = %while.end.loopexit, %while.cond6.preheader
  %prev_ptr.0.lcssa = phi %"struct.Halide::Runtime::Internal::work"** [ getelementptr inbounds (%"struct.Halide::Runtime::Internal::work_queue_t", %"struct.Halide::Runtime::Internal::work_queue_t"* @_ZN6Halide7Runtime8Internal10work_queueE, i64 0, i32 3), %while.cond6.preheader ], [ %next_job.le, %while.end.loopexit ]
  %7 = load %"struct.Halide::Runtime::Internal::work"*, %"struct.Halide::Runtime::Internal::work"** %next_job10, align 8, !tbaa !67
  store %"struct.Halide::Runtime::Internal::work"* %7, %"struct.Halide::Runtime::Internal::work"** %prev_ptr.0.lcssa, align 8, !tbaa !14
  store i32 0, i32* %extent.i, align 8, !tbaa !32
  br label %while.cond.backedge

if.else:                                          ; preds = %if.then
  %8 = load %"struct.Halide::Runtime::Internal::work"*, %"struct.Halide::Runtime::Internal::work"** %parent_job, align 8, !tbaa !46
  %tobool11.not = icmp eq %"struct.Halide::Runtime::Internal::work"* %8, null
  br i1 %tobool11.not, label %do.end, label %land.lhs.true

land.lhs.true:                                    ; preds = %if.else
  %exit_status13 = getelementptr inbounds %"struct.Halide::Runtime::Internal::work", %"struct.Halide::Runtime::Internal::work"* %8, i64 0, i32 9
  %9 = load i32, i32* %exit_status13, align 4, !tbaa !47
  %cmp14.not = icmp eq i32 %9, 0
  br i1 %cmp14.not, label %do.end, label %if.then15

if.then15:                                        ; preds = %land.lhs.true
  store i32 %9, i32* %exit_status, align 4, !tbaa !47
  tail call void @halide_cond_broadcast(%struct.halide_mutex* getelementptr inbounds (%"struct.Halide::Runtime::Internal::work_queue_t", %"struct.Halide::Runtime::Internal::work_queue_t"* @_ZN6Halide7Runtime8Internal10work_queueE, i64 0, i32 10)) #15
  br label %while.cond.backedge

do.end:                                           ; preds = %land.lhs.true, %if.else, %if.then3
  %tobool23.not527 = icmp eq %"struct.Halide::Runtime::Internal::work"* %3, null
  br i1 %tobool23.not527, label %if.then105, label %do.end27

do.end.thread:                                    ; preds = %cond.false
  %10 = load %"struct.Halide::Runtime::Internal::work"*, %"struct.Halide::Runtime::Internal::work"** getelementptr inbounds (%"struct.Halide::Runtime::Internal::work_queue_t", %"struct.Halide::Runtime::Internal::work_queue_t"* @_ZN6Halide7Runtime8Internal10work_queueE, i64 0, i32 3), align 8, !tbaa !66
  %tobool23.not527563 = icmp eq %"struct.Halide::Runtime::Internal::work"* %10, null
  br i1 %tobool23.not527563, label %if.else112, label %do.end27.us

do.end27.us:                                      ; preds = %do.end.thread, %cleanup.us
  %job.1529.us = phi %"struct.Halide::Runtime::Internal::work"* [ %29, %cleanup.us ], [ %10, %do.end.thread ]
  %prev_ptr.1528.us = phi %"struct.Halide::Runtime::Internal::work"** [ %next_job95.us, %cleanup.us ], [ getelementptr inbounds (%"struct.Halide::Runtime::Internal::work_queue_t", %"struct.Halide::Runtime::Internal::work_queue_t"* @_ZN6Halide7Runtime8Internal10work_queueE, i64 0, i32 3), %do.end.thread ]
  %parent_job29.us = getelementptr inbounds %"struct.Halide::Runtime::Internal::work", %"struct.Halide::Runtime::Internal::work"* %job.1529.us, i64 0, i32 5
  %11 = load %"struct.Halide::Runtime::Internal::work"*, %"struct.Halide::Runtime::Internal::work"** %parent_job29.us, align 8, !tbaa !46
  %cmp30.us = icmp eq %"struct.Halide::Runtime::Internal::work"* %11, null
  br i1 %cmp30.us, label %if.then31.us, label %if.else32.us

if.else32.us:                                     ; preds = %do.end27.us
  %active_workers33.us = getelementptr inbounds %"struct.Halide::Runtime::Internal::work", %"struct.Halide::Runtime::Internal::work"* %11, i64 0, i32 8
  %12 = load i32, i32* %active_workers33.us, align 8, !tbaa !64
  %cmp34.us = icmp eq i32 %12, 0
  %min_threads.us = getelementptr inbounds %"struct.Halide::Runtime::Internal::work", %"struct.Halide::Runtime::Internal::work"* %11, i64 0, i32 0, i32 7
  %13 = load i32, i32* %min_threads.us, align 4, !tbaa !37
  br i1 %cmp34.us, label %if.then35.us, label %if.else38.us

if.else38.us:                                     ; preds = %if.else32.us
  %mul.us = mul nsw i32 %13, %12
  %threads_reserved42.us = getelementptr inbounds %"struct.Halide::Runtime::Internal::work", %"struct.Halide::Runtime::Internal::work"* %11, i64 0, i32 6
  %14 = load i32, i32* %threads_reserved42.us, align 8, !tbaa !65
  %sub43.us = sub nsw i32 %mul.us, %14
  br label %if.end45.us

if.then35.us:                                     ; preds = %if.else32.us
  %threads_reserved.us = getelementptr inbounds %"struct.Halide::Runtime::Internal::work", %"struct.Halide::Runtime::Internal::work"* %11, i64 0, i32 6
  %15 = load i32, i32* %threads_reserved.us, align 8, !tbaa !65
  %sub37.us = sub nsw i32 %13, %15
  br label %if.end45.us

if.then31.us:                                     ; preds = %do.end27.us
  %16 = load i32, i32* getelementptr inbounds (%"struct.Halide::Runtime::Internal::work_queue_t", %"struct.Halide::Runtime::Internal::work_queue_t"* @_ZN6Halide7Runtime8Internal10work_queueE, i64 0, i32 4), align 8, !tbaa !60
  %add.us = add nsw i32 %16, 1
  %17 = load i32, i32* getelementptr inbounds (%"struct.Halide::Runtime::Internal::work_queue_t", %"struct.Halide::Runtime::Internal::work_queue_t"* @_ZN6Halide7Runtime8Internal10work_queueE, i64 0, i32 16), align 4, !tbaa !61
  %sub.us = sub i32 %add.us, %17
  br label %if.end45.us

if.end45.us:                                      ; preds = %if.then31.us, %if.then35.us, %if.else38.us
  %threads_available.0.us = phi i32 [ %sub.us, %if.then31.us ], [ %sub37.us, %if.then35.us ], [ %sub43.us, %if.else38.us ]
  %min_threads47.us = getelementptr inbounds %"struct.Halide::Runtime::Internal::work", %"struct.Halide::Runtime::Internal::work"* %job.1529.us, i64 0, i32 0, i32 7
  %18 = load i32, i32* %min_threads47.us, align 4, !tbaa !37
  %cmp48.not.us = icmp sge i32 %threads_available.0.us, %18
  %serial.us = getelementptr inbounds %"struct.Halide::Runtime::Internal::work", %"struct.Halide::Runtime::Internal::work"* %job.1529.us, i64 0, i32 0, i32 8
  %19 = load i8, i8* %serial.us, align 8, !tbaa !33, !range !21
  %tobool69.not.us = icmp eq i8 %19, 0
  br i1 %tobool69.not.us, label %if.end45.us.lor.end73.us_crit_edge, label %lor.rhs70.us

if.end45.us.lor.end73.us_crit_edge:               ; preds = %if.end45.us
  %.0 = and i1 %cmp48.not.us, true
  br label %lor.end73.us

lor.rhs70.us:                                     ; preds = %if.end45.us
  %active_workers71.us = getelementptr inbounds %"struct.Halide::Runtime::Internal::work", %"struct.Halide::Runtime::Internal::work"* %job.1529.us, i64 0, i32 8
  %20 = load i32, i32* %active_workers71.us, align 8, !tbaa !64
  %cmp72.us = icmp eq i32 %20, 0
  %.1 = and i1 %cmp48.not.us, %cmp72.us
  br label %lor.end73.us

lor.end73.us:                                     ; preds = %if.end45.us.lor.end73.us_crit_edge, %lor.rhs70.us
  %.phi = phi i1 [ %.0, %if.end45.us.lor.end73.us_crit_edge ], [ %.1, %lor.rhs70.us ]
  br i1 %.phi, label %if.then86.us, label %cleanup.us

if.then86.us:                                     ; preds = %lor.end73.us
  %next_semaphore.i.us = getelementptr inbounds %"struct.Halide::Runtime::Internal::work", %"struct.Halide::Runtime::Internal::work"* %job.1529.us, i64 0, i32 10
  %21 = load i32, i32* %next_semaphore.i.us, align 8, !tbaa !42
  %num_semaphores.i.us = getelementptr inbounds %"struct.Halide::Runtime::Internal::work", %"struct.Halide::Runtime::Internal::work"* %job.1529.us, i64 0, i32 0, i32 4
  %22 = load i32, i32* %num_semaphores.i.us, align 8, !tbaa !35
  %cmp14.i.us = icmp slt i32 %21, %22
  br i1 %cmp14.i.us, label %for.body.lr.ph.i.us, label %if.else127

for.body.lr.ph.i.us:                              ; preds = %if.then86.us
  %semaphores.i.us = getelementptr inbounds %"struct.Halide::Runtime::Internal::work", %"struct.Halide::Runtime::Internal::work"* %job.1529.us, i64 0, i32 0, i32 3
  br label %for.body.i.us

for.body.i.us:                                    ; preds = %for.inc.i.us, %for.body.lr.ph.i.us
  %23 = phi i32 [ %21, %for.body.lr.ph.i.us ], [ %inc.i.us, %for.inc.i.us ]
  %24 = load %struct.halide_semaphore_acquire_t*, %struct.halide_semaphore_acquire_t** %semaphores.i.us, align 8, !tbaa !34
  %idxprom.i.us = sext i32 %23 to i64
  %semaphore.i.us = getelementptr inbounds %struct.halide_semaphore_acquire_t, %struct.halide_semaphore_acquire_t* %24, i64 %idxprom.i.us, i32 0
  %25 = load %struct.halide_semaphore_t*, %struct.halide_semaphore_t** %semaphore.i.us, align 8, !tbaa !75
  %count.i.us = getelementptr inbounds %struct.halide_semaphore_acquire_t, %struct.halide_semaphore_acquire_t* %24, i64 %idxprom.i.us, i32 1
  %26 = load i32, i32* %count.i.us, align 8, !tbaa !77
  %call.i.us = tail call zeroext i1 @halide_default_semaphore_try_acquire(%struct.halide_semaphore_t* %25, i32 %26) #14
  br i1 %call.i.us, label %for.inc.i.us, label %cleanup.us

for.inc.i.us:                                     ; preds = %for.body.i.us
  %27 = load i32, i32* %next_semaphore.i.us, align 8, !tbaa !42
  %inc.i.us = add nsw i32 %27, 1
  store i32 %inc.i.us, i32* %next_semaphore.i.us, align 8, !tbaa !42
  %28 = load i32, i32* %num_semaphores.i.us, align 8, !tbaa !35
  %cmp.i.us = icmp slt i32 %inc.i.us, %28
  br i1 %cmp.i.us, label %for.body.i.us, label %if.else127, !llvm.loop !78

cleanup.us:                                       ; preds = %for.body.i.us, %lor.end73.us
  %next_job95.us = getelementptr inbounds %"struct.Halide::Runtime::Internal::work", %"struct.Halide::Runtime::Internal::work"* %job.1529.us, i64 0, i32 2
  %29 = load %"struct.Halide::Runtime::Internal::work"*, %"struct.Halide::Runtime::Internal::work"** %next_job95.us, align 8, !tbaa !67
  %tobool23.not.us = icmp eq %"struct.Halide::Runtime::Internal::work"* %29, null
  br i1 %tobool23.not.us, label %if.then103, label %do.end27.us

do.end27:                                         ; preds = %do.end, %cleanup
  %job.1529 = phi %"struct.Halide::Runtime::Internal::work"* [ %50, %cleanup ], [ %3, %do.end ]
  %prev_ptr.1528 = phi %"struct.Halide::Runtime::Internal::work"** [ %next_job95, %cleanup ], [ getelementptr inbounds (%"struct.Halide::Runtime::Internal::work_queue_t", %"struct.Halide::Runtime::Internal::work_queue_t"* @_ZN6Halide7Runtime8Internal10work_queueE, i64 0, i32 3), %do.end ]
  %parent_job29 = getelementptr inbounds %"struct.Halide::Runtime::Internal::work", %"struct.Halide::Runtime::Internal::work"* %job.1529, i64 0, i32 5
  %30 = load %"struct.Halide::Runtime::Internal::work"*, %"struct.Halide::Runtime::Internal::work"** %parent_job29, align 8, !tbaa !46
  %cmp30 = icmp eq %"struct.Halide::Runtime::Internal::work"* %30, null
  br i1 %cmp30, label %if.then31, label %if.else32

if.then31:                                        ; preds = %do.end27
  %31 = load i32, i32* getelementptr inbounds (%"struct.Halide::Runtime::Internal::work_queue_t", %"struct.Halide::Runtime::Internal::work_queue_t"* @_ZN6Halide7Runtime8Internal10work_queueE, i64 0, i32 4), align 8, !tbaa !60
  %add = add nsw i32 %31, 1
  %32 = load i32, i32* getelementptr inbounds (%"struct.Halide::Runtime::Internal::work_queue_t", %"struct.Halide::Runtime::Internal::work_queue_t"* @_ZN6Halide7Runtime8Internal10work_queueE, i64 0, i32 16), align 4, !tbaa !61
  %sub = sub i32 %add, %32
  br label %if.end45

if.else32:                                        ; preds = %do.end27
  %active_workers33 = getelementptr inbounds %"struct.Halide::Runtime::Internal::work", %"struct.Halide::Runtime::Internal::work"* %30, i64 0, i32 8
  %33 = load i32, i32* %active_workers33, align 8, !tbaa !64
  %cmp34 = icmp eq i32 %33, 0
  %min_threads = getelementptr inbounds %"struct.Halide::Runtime::Internal::work", %"struct.Halide::Runtime::Internal::work"* %30, i64 0, i32 0, i32 7
  %34 = load i32, i32* %min_threads, align 4, !tbaa !37
  br i1 %cmp34, label %if.then35, label %if.else38

if.then35:                                        ; preds = %if.else32
  %threads_reserved = getelementptr inbounds %"struct.Halide::Runtime::Internal::work", %"struct.Halide::Runtime::Internal::work"* %30, i64 0, i32 6
  %35 = load i32, i32* %threads_reserved, align 8, !tbaa !65
  %sub37 = sub nsw i32 %34, %35
  br label %if.end45

if.else38:                                        ; preds = %if.else32
  %mul = mul nsw i32 %34, %33
  %threads_reserved42 = getelementptr inbounds %"struct.Halide::Runtime::Internal::work", %"struct.Halide::Runtime::Internal::work"* %30, i64 0, i32 6
  %36 = load i32, i32* %threads_reserved42, align 8, !tbaa !65
  %sub43 = sub nsw i32 %mul, %36
  br label %if.end45

if.end45:                                         ; preds = %if.else38, %if.then35, %if.then31
  %threads_available.0 = phi i32 [ %sub, %if.then31 ], [ %sub37, %if.then35 ], [ %sub43, %if.else38 ]
  %min_threads47 = getelementptr inbounds %"struct.Halide::Runtime::Internal::work", %"struct.Halide::Runtime::Internal::work"* %job.1529, i64 0, i32 0, i32 7
  %37 = load i32, i32* %min_threads47, align 4, !tbaa !37
  %cmp48.not = icmp slt i32 %threads_available.0, %37
  %siblings = getelementptr inbounds %"struct.Halide::Runtime::Internal::work", %"struct.Halide::Runtime::Internal::work"* %job.1529, i64 0, i32 3
  %38 = load %"struct.Halide::Runtime::Internal::work"*, %"struct.Halide::Runtime::Internal::work"** %siblings, align 8, !tbaa !44
  %39 = load %"struct.Halide::Runtime::Internal::work"*, %"struct.Halide::Runtime::Internal::work"** %siblings56, align 8, !tbaa !44
  %cmp57 = icmp ne %"struct.Halide::Runtime::Internal::work"* %38, %39
  %cmp60 = icmp ne i32 %37, 0
  %serial = getelementptr inbounds %"struct.Halide::Runtime::Internal::work", %"struct.Halide::Runtime::Internal::work"* %job.1529, i64 0, i32 0, i32 8
  %40 = load i8, i8* %serial, align 8, !tbaa !33, !range !21
  %tobool69.not = icmp eq i8 %40, 0
  br i1 %tobool69.not, label %if.end45.lor.end73_crit_edge, label %lor.rhs70

if.end45.lor.end73_crit_edge:                     ; preds = %if.end45
  %.not472.0 = xor i1 true, true
  br label %lor.end73

lor.rhs70:                                        ; preds = %if.end45
  %active_workers71 = getelementptr inbounds %"struct.Halide::Runtime::Internal::work", %"struct.Halide::Runtime::Internal::work"* %job.1529, i64 0, i32 8
  %41 = load i32, i32* %active_workers71, align 8, !tbaa !64
  %cmp72 = icmp eq i32 %41, 0
  %.not472.1 = xor i1 %cmp72, true
  br label %lor.end73

lor.end73:                                        ; preds = %if.end45.lor.end73_crit_edge, %lor.rhs70
  %.not472.phi = phi i1 [ %.not472.0, %if.end45.lor.end73_crit_edge ], [ %.not472.1, %lor.rhs70 ]
  %.not = and i1 %cmp60, %cmp57
  %brmerge = or i1 %cmp48.not, %.not
  %brmerge473 = or i1 %brmerge, %.not472.phi
  br i1 %brmerge473, label %cleanup, label %if.then86

if.then86:                                        ; preds = %lor.end73
  %next_semaphore.i = getelementptr inbounds %"struct.Halide::Runtime::Internal::work", %"struct.Halide::Runtime::Internal::work"* %job.1529, i64 0, i32 10
  %42 = load i32, i32* %next_semaphore.i, align 8, !tbaa !42
  %num_semaphores.i = getelementptr inbounds %"struct.Halide::Runtime::Internal::work", %"struct.Halide::Runtime::Internal::work"* %job.1529, i64 0, i32 0, i32 4
  %43 = load i32, i32* %num_semaphores.i, align 8, !tbaa !35
  %cmp14.i = icmp slt i32 %42, %43
  br i1 %cmp14.i, label %for.body.lr.ph.i, label %if.else127

for.body.lr.ph.i:                                 ; preds = %if.then86
  %semaphores.i = getelementptr inbounds %"struct.Halide::Runtime::Internal::work", %"struct.Halide::Runtime::Internal::work"* %job.1529, i64 0, i32 0, i32 3
  br label %for.body.i

for.body.i:                                       ; preds = %for.inc.i, %for.body.lr.ph.i
  %44 = phi i32 [ %42, %for.body.lr.ph.i ], [ %inc.i, %for.inc.i ]
  %45 = load %struct.halide_semaphore_acquire_t*, %struct.halide_semaphore_acquire_t** %semaphores.i, align 8, !tbaa !34
  %idxprom.i = sext i32 %44 to i64
  %semaphore.i = getelementptr inbounds %struct.halide_semaphore_acquire_t, %struct.halide_semaphore_acquire_t* %45, i64 %idxprom.i, i32 0
  %46 = load %struct.halide_semaphore_t*, %struct.halide_semaphore_t** %semaphore.i, align 8, !tbaa !75
  %count.i = getelementptr inbounds %struct.halide_semaphore_acquire_t, %struct.halide_semaphore_acquire_t* %45, i64 %idxprom.i, i32 1
  %47 = load i32, i32* %count.i, align 8, !tbaa !77
  %call.i = tail call zeroext i1 @halide_default_semaphore_try_acquire(%struct.halide_semaphore_t* %46, i32 %47) #14
  br i1 %call.i, label %for.inc.i, label %cleanup

for.inc.i:                                        ; preds = %for.body.i
  %48 = load i32, i32* %next_semaphore.i, align 8, !tbaa !42
  %inc.i = add nsw i32 %48, 1
  store i32 %inc.i, i32* %next_semaphore.i, align 8, !tbaa !42
  %49 = load i32, i32* %num_semaphores.i, align 8, !tbaa !35
  %cmp.i = icmp slt i32 %inc.i, %49
  br i1 %cmp.i, label %for.body.i, label %if.else127, !llvm.loop !78

cleanup:                                          ; preds = %for.body.i, %lor.end73
  %next_job95 = getelementptr inbounds %"struct.Halide::Runtime::Internal::work", %"struct.Halide::Runtime::Internal::work"* %job.1529, i64 0, i32 2
  %50 = load %"struct.Halide::Runtime::Internal::work"*, %"struct.Halide::Runtime::Internal::work"** %next_job95, align 8, !tbaa !67
  %tobool23.not = icmp eq %"struct.Halide::Runtime::Internal::work"* %50, null
  br i1 %tobool23.not, label %if.then103, label %do.end27

if.then103:                                       ; preds = %cleanup, %cleanup.us
  br i1 %tobool.not, label %if.else112, label %if.then105

if.then105:                                       ; preds = %do.end, %if.then103
  %inc = add nsw i32 %spin_count.0, 1
  %cmp106 = icmp slt i32 %spin_count.0, 40
  br i1 %cmp106, label %if.then107, label %if.else108

if.then107:                                       ; preds = %if.then105
  tail call void @halide_mutex_unlock(%struct.halide_mutex* getelementptr inbounds (%"struct.Halide::Runtime::Internal::work_queue_t", %"struct.Halide::Runtime::Internal::work_queue_t"* @_ZN6Halide7Runtime8Internal10work_queueE, i64 0, i32 0)) #15
  tail call void @halide_thread_yield() #14
  tail call void @halide_mutex_lock(%struct.halide_mutex* getelementptr inbounds (%"struct.Halide::Runtime::Internal::work_queue_t", %"struct.Halide::Runtime::Internal::work_queue_t"* @_ZN6Halide7Runtime8Internal10work_queueE, i64 0, i32 0)) #15
  br label %while.cond.backedge

if.else108:                                       ; preds = %if.then105
  %51 = load i32, i32* getelementptr inbounds (%"struct.Halide::Runtime::Internal::work_queue_t", %"struct.Halide::Runtime::Internal::work_queue_t"* @_ZN6Halide7Runtime8Internal10work_queueE, i64 0, i32 12), align 4, !tbaa !70
  %inc109 = add nsw i32 %51, 1
  store i32 %inc109, i32* getelementptr inbounds (%"struct.Halide::Runtime::Internal::work_queue_t", %"struct.Halide::Runtime::Internal::work_queue_t"* @_ZN6Halide7Runtime8Internal10work_queueE, i64 0, i32 12), align 4, !tbaa !70
  store i8 1, i8* %owner_is_sleeping, align 4, !tbaa !43
  tail call void @halide_cond_wait(%struct.halide_mutex* getelementptr inbounds (%"struct.Halide::Runtime::Internal::work_queue_t", %"struct.Halide::Runtime::Internal::work_queue_t"* @_ZN6Halide7Runtime8Internal10work_queueE, i64 0, i32 10), %struct.halide_mutex* getelementptr inbounds (%"struct.Halide::Runtime::Internal::work_queue_t", %"struct.Halide::Runtime::Internal::work_queue_t"* @_ZN6Halide7Runtime8Internal10work_queueE, i64 0, i32 0)) #15
  store i8 0, i8* %owner_is_sleeping, align 4, !tbaa !43
  %52 = load i32, i32* getelementptr inbounds (%"struct.Halide::Runtime::Internal::work_queue_t", %"struct.Halide::Runtime::Internal::work_queue_t"* @_ZN6Halide7Runtime8Internal10work_queueE, i64 0, i32 12), align 4, !tbaa !70
  %dec = add nsw i32 %52, -1
  store i32 %dec, i32* getelementptr inbounds (%"struct.Halide::Runtime::Internal::work_queue_t", %"struct.Halide::Runtime::Internal::work_queue_t"* @_ZN6Halide7Runtime8Internal10work_queueE, i64 0, i32 12), align 4, !tbaa !70
  br label %while.cond.backedge

if.else112:                                       ; preds = %if.then103, %do.end.thread
  %53 = load i32, i32* getelementptr inbounds (%"struct.Halide::Runtime::Internal::work_queue_t", %"struct.Halide::Runtime::Internal::work_queue_t"* @_ZN6Halide7Runtime8Internal10work_queueE, i64 0, i32 11), align 8, !tbaa !79
  %inc113 = add nsw i32 %53, 1
  store i32 %inc113, i32* getelementptr inbounds (%"struct.Halide::Runtime::Internal::work_queue_t", %"struct.Halide::Runtime::Internal::work_queue_t"* @_ZN6Halide7Runtime8Internal10work_queueE, i64 0, i32 11), align 8, !tbaa !79
  %54 = load i32, i32* getelementptr inbounds (%"struct.Halide::Runtime::Internal::work_queue_t", %"struct.Halide::Runtime::Internal::work_queue_t"* @_ZN6Halide7Runtime8Internal10work_queueE, i64 0, i32 5), align 4, !tbaa !62
  %55 = load i32, i32* getelementptr inbounds (%"struct.Halide::Runtime::Internal::work_queue_t", %"struct.Halide::Runtime::Internal::work_queue_t"* @_ZN6Halide7Runtime8Internal10work_queueE, i64 0, i32 6), align 8, !tbaa !71
  %cmp114 = icmp sgt i32 %54, %55
  br i1 %cmp114, label %if.then115, label %if.else118

if.then115:                                       ; preds = %if.else112
  %dec116 = add nsw i32 %54, -1
  store i32 %dec116, i32* getelementptr inbounds (%"struct.Halide::Runtime::Internal::work_queue_t", %"struct.Halide::Runtime::Internal::work_queue_t"* @_ZN6Halide7Runtime8Internal10work_queueE, i64 0, i32 5), align 4, !tbaa !62
  tail call void @halide_cond_wait(%struct.halide_mutex* getelementptr inbounds (%"struct.Halide::Runtime::Internal::work_queue_t", %"struct.Halide::Runtime::Internal::work_queue_t"* @_ZN6Halide7Runtime8Internal10work_queueE, i64 0, i32 9), %struct.halide_mutex* getelementptr inbounds (%"struct.Halide::Runtime::Internal::work_queue_t", %"struct.Halide::Runtime::Internal::work_queue_t"* @_ZN6Halide7Runtime8Internal10work_queueE, i64 0, i32 0)) #15
  %56 = load i32, i32* getelementptr inbounds (%"struct.Halide::Runtime::Internal::work_queue_t", %"struct.Halide::Runtime::Internal::work_queue_t"* @_ZN6Halide7Runtime8Internal10work_queueE, i64 0, i32 5), align 4, !tbaa !62
  %inc117 = add nsw i32 %56, 1
  store i32 %inc117, i32* getelementptr inbounds (%"struct.Halide::Runtime::Internal::work_queue_t", %"struct.Halide::Runtime::Internal::work_queue_t"* @_ZN6Halide7Runtime8Internal10work_queueE, i64 0, i32 5), align 4, !tbaa !62
  br label %if.end124

if.else118:                                       ; preds = %if.else112
  %inc119 = add nsw i32 %spin_count.0, 1
  %cmp120 = icmp slt i32 %spin_count.0, 40
  br i1 %cmp120, label %if.then121, label %if.else122

if.then121:                                       ; preds = %if.else118
  tail call void @halide_mutex_unlock(%struct.halide_mutex* getelementptr inbounds (%"struct.Halide::Runtime::Internal::work_queue_t", %"struct.Halide::Runtime::Internal::work_queue_t"* @_ZN6Halide7Runtime8Internal10work_queueE, i64 0, i32 0)) #15
  tail call void @halide_thread_yield() #14
  tail call void @halide_mutex_lock(%struct.halide_mutex* getelementptr inbounds (%"struct.Halide::Runtime::Internal::work_queue_t", %"struct.Halide::Runtime::Internal::work_queue_t"* @_ZN6Halide7Runtime8Internal10work_queueE, i64 0, i32 0)) #15
  br label %if.end124

if.else122:                                       ; preds = %if.else118
  tail call void @halide_cond_wait(%struct.halide_mutex* getelementptr inbounds (%"struct.Halide::Runtime::Internal::work_queue_t", %"struct.Halide::Runtime::Internal::work_queue_t"* @_ZN6Halide7Runtime8Internal10work_queueE, i64 0, i32 8), %struct.halide_mutex* getelementptr inbounds (%"struct.Halide::Runtime::Internal::work_queue_t", %"struct.Halide::Runtime::Internal::work_queue_t"* @_ZN6Halide7Runtime8Internal10work_queueE, i64 0, i32 0)) #15
  br label %if.end124

if.end124:                                        ; preds = %if.else122, %if.then121, %if.then115
  %spin_count.1 = phi i32 [ %spin_count.0, %if.then115 ], [ %inc119, %if.then121 ], [ %inc119, %if.else122 ]
  %57 = load i32, i32* getelementptr inbounds (%"struct.Halide::Runtime::Internal::work_queue_t", %"struct.Halide::Runtime::Internal::work_queue_t"* @_ZN6Halide7Runtime8Internal10work_queueE, i64 0, i32 11), align 8, !tbaa !79
  %dec125 = add nsw i32 %57, -1
  store i32 %dec125, i32* getelementptr inbounds (%"struct.Halide::Runtime::Internal::work_queue_t", %"struct.Halide::Runtime::Internal::work_queue_t"* @_ZN6Halide7Runtime8Internal10work_queueE, i64 0, i32 11), align 8, !tbaa !79
  br label %while.cond.backedge

if.else127:                                       ; preds = %if.then86, %if.then86.us, %for.inc.i, %for.inc.i.us
  %next_semaphore.i521 = phi i32* [ %next_semaphore.i.us, %for.inc.i.us ], [ %next_semaphore.i, %for.inc.i ], [ %next_semaphore.i.us, %if.then86.us ], [ %next_semaphore.i, %if.then86 ]
  %prev_ptr.1519 = phi %"struct.Halide::Runtime::Internal::work"** [ %prev_ptr.1528.us, %for.inc.i.us ], [ %prev_ptr.1528, %for.inc.i ], [ %prev_ptr.1528.us, %if.then86.us ], [ %prev_ptr.1528, %if.then86 ]
  %job.1515 = phi %"struct.Halide::Runtime::Internal::work"* [ %job.1529.us, %for.inc.i.us ], [ %job.1529, %for.inc.i ], [ %job.1529.us, %if.then86.us ], [ %job.1529, %if.then86 ]
  store i32 0, i32* %next_semaphore.i521, align 8, !tbaa !42
  %active_workers132 = getelementptr inbounds %"struct.Halide::Runtime::Internal::work", %"struct.Halide::Runtime::Internal::work"* %job.1515, i64 0, i32 8
  %58 = load i32, i32* %active_workers132, align 8, !tbaa !64
  %inc133 = add nsw i32 %58, 1
  store i32 %inc133, i32* %active_workers132, align 8, !tbaa !64
  %parent_job134 = getelementptr inbounds %"struct.Halide::Runtime::Internal::work", %"struct.Halide::Runtime::Internal::work"* %job.1515, i64 0, i32 5
  %59 = load %"struct.Halide::Runtime::Internal::work"*, %"struct.Halide::Runtime::Internal::work"** %parent_job134, align 8, !tbaa !46
  %cmp135 = icmp eq %"struct.Halide::Runtime::Internal::work"* %59, null
  %min_threads138 = getelementptr inbounds %"struct.Halide::Runtime::Internal::work", %"struct.Halide::Runtime::Internal::work"* %job.1515, i64 0, i32 0, i32 7
  %60 = load i32, i32* %min_threads138, align 4, !tbaa !37
  br i1 %cmp135, label %if.then136, label %if.else143

if.then136:                                       ; preds = %if.else127
  %61 = load i32, i32* getelementptr inbounds (%"struct.Halide::Runtime::Internal::work_queue_t", %"struct.Halide::Runtime::Internal::work_queue_t"* @_ZN6Halide7Runtime8Internal10work_queueE, i64 0, i32 16), align 4, !tbaa !61
  %add139 = add nsw i32 %61, %60
  store i32 %add139, i32* getelementptr inbounds (%"struct.Halide::Runtime::Internal::work_queue_t", %"struct.Halide::Runtime::Internal::work_queue_t"* @_ZN6Halide7Runtime8Internal10work_queueE, i64 0, i32 16), align 4, !tbaa !61
  br label %if.end152

if.else143:                                       ; preds = %if.else127
  %threads_reserved147 = getelementptr inbounds %"struct.Halide::Runtime::Internal::work", %"struct.Halide::Runtime::Internal::work"* %59, i64 0, i32 6
  %62 = load i32, i32* %threads_reserved147, align 8, !tbaa !65
  %add148 = add nsw i32 %62, %60
  store i32 %add148, i32* %threads_reserved147, align 8, !tbaa !65
  br label %if.end152

if.end152:                                        ; preds = %if.else143, %if.then136
  %serial154 = getelementptr inbounds %"struct.Halide::Runtime::Internal::work", %"struct.Halide::Runtime::Internal::work"* %job.1515, i64 0, i32 0, i32 8
  %63 = load i8, i8* %serial154, align 8, !tbaa !33, !range !21
  %tobool155.not = icmp eq i8 %63, 0
  br i1 %tobool155.not, label %if.else198, label %if.then156

if.then156:                                       ; preds = %if.end152
  %next_job157 = getelementptr inbounds %"struct.Halide::Runtime::Internal::work", %"struct.Halide::Runtime::Internal::work"* %job.1515, i64 0, i32 2
  %64 = load %"struct.Halide::Runtime::Internal::work"*, %"struct.Halide::Runtime::Internal::work"** %next_job157, align 8, !tbaa !67
  store %"struct.Halide::Runtime::Internal::work"* %64, %"struct.Halide::Runtime::Internal::work"** %prev_ptr.1519, align 8, !tbaa !14
  tail call void @halide_mutex_unlock(%struct.halide_mutex* getelementptr inbounds (%"struct.Halide::Runtime::Internal::work_queue_t", %"struct.Halide::Runtime::Internal::work_queue_t"* @_ZN6Halide7Runtime8Internal10work_queueE, i64 0, i32 0)) #15
  %extent163 = getelementptr inbounds %"struct.Halide::Runtime::Internal::work", %"struct.Halide::Runtime::Internal::work"* %job.1515, i64 0, i32 0, i32 6
  %next_semaphore.i474 = getelementptr inbounds %"struct.Halide::Runtime::Internal::work", %"struct.Halide::Runtime::Internal::work"* %job.1515, i64 0, i32 10
  %num_semaphores.i475 = getelementptr inbounds %"struct.Halide::Runtime::Internal::work", %"struct.Halide::Runtime::Internal::work"* %job.1515, i64 0, i32 0, i32 4
  %semaphores.i477 = getelementptr inbounds %"struct.Halide::Runtime::Internal::work", %"struct.Halide::Runtime::Internal::work"* %job.1515, i64 0, i32 0, i32 3
  %user_context = getelementptr inbounds %"struct.Halide::Runtime::Internal::work", %"struct.Halide::Runtime::Internal::work"* %job.1515, i64 0, i32 7
  %fn = getelementptr inbounds %"struct.Halide::Runtime::Internal::work", %"struct.Halide::Runtime::Internal::work"* %job.1515, i64 0, i32 0, i32 0
  %min = getelementptr inbounds %"struct.Halide::Runtime::Internal::work", %"struct.Halide::Runtime::Internal::work"* %job.1515, i64 0, i32 0, i32 5
  %closure = getelementptr inbounds %"struct.Halide::Runtime::Internal::work", %"struct.Halide::Runtime::Internal::work"* %job.1515, i64 0, i32 0, i32 1
  %65 = bitcast %"struct.Halide::Runtime::Internal::work"* %job.1515 to i8*
  br label %while.cond161.preheader

while.cond161.preheader:                          ; preds = %if.end172, %if.then156
  %iters.0538 = phi i32 [ 1, %if.then156 ], [ 0, %if.end172 ]
  %total_iters.0537 = phi i32 [ 0, %if.then156 ], [ %add178, %if.end172 ]
  %66 = load i32, i32* %extent163, align 8, !tbaa !32
  %sub164531 = sub nsw i32 %66, %total_iters.0537
  %cmp165532 = icmp sgt i32 %sub164531, %iters.0538
  br i1 %cmp165532, label %land.rhs.preheader, label %while.end169

land.rhs.preheader:                               ; preds = %while.cond161.preheader
  %.pre = load i32, i32* %next_semaphore.i474, align 8, !tbaa !42
  %.pre560 = load i32, i32* %num_semaphores.i475, align 8, !tbaa !35
  br label %land.rhs

land.rhs:                                         ; preds = %while.body167, %land.rhs.preheader
  %67 = phi i32 [ %76, %while.body167 ], [ %66, %land.rhs.preheader ]
  %68 = phi i32 [ %77, %while.body167 ], [ %.pre560, %land.rhs.preheader ]
  %69 = phi i32 [ 0, %while.body167 ], [ %.pre, %land.rhs.preheader ]
  %iters.1533 = phi i32 [ %inc168, %while.body167 ], [ %iters.0538, %land.rhs.preheader ]
  %cmp14.i476 = icmp slt i32 %69, %68
  br i1 %cmp14.i476, label %for.body.i483, label %while.body167

for.body.i483:                                    ; preds = %land.rhs, %for.inc.i486
  %70 = phi i32 [ %inc.i484, %for.inc.i486 ], [ %69, %land.rhs ]
  %71 = load %struct.halide_semaphore_acquire_t*, %struct.halide_semaphore_acquire_t** %semaphores.i477, align 8, !tbaa !34
  %idxprom.i479 = sext i32 %70 to i64
  %semaphore.i480 = getelementptr inbounds %struct.halide_semaphore_acquire_t, %struct.halide_semaphore_acquire_t* %71, i64 %idxprom.i479, i32 0
  %72 = load %struct.halide_semaphore_t*, %struct.halide_semaphore_t** %semaphore.i480, align 8, !tbaa !75
  %count.i481 = getelementptr inbounds %struct.halide_semaphore_acquire_t, %struct.halide_semaphore_acquire_t* %71, i64 %idxprom.i479, i32 1
  %73 = load i32, i32* %count.i481, align 8, !tbaa !77
  %call.i482 = tail call zeroext i1 @halide_default_semaphore_try_acquire(%struct.halide_semaphore_t* %72, i32 %73) #14
  br i1 %call.i482, label %for.inc.i486, label %while.end169

for.inc.i486:                                     ; preds = %for.body.i483
  %74 = load i32, i32* %next_semaphore.i474, align 8, !tbaa !42
  %inc.i484 = add nsw i32 %74, 1
  store i32 %inc.i484, i32* %next_semaphore.i474, align 8, !tbaa !42
  %75 = load i32, i32* %num_semaphores.i475, align 8, !tbaa !35
  %cmp.i485 = icmp slt i32 %inc.i484, %75
  br i1 %cmp.i485, label %for.body.i483, label %while.body167.loopexit, !llvm.loop !78

while.body167.loopexit:                           ; preds = %for.inc.i486
  %.pre561 = load i32, i32* %extent163, align 8, !tbaa !32
  br label %while.body167

while.body167:                                    ; preds = %while.body167.loopexit, %land.rhs
  %76 = phi i32 [ %.pre561, %while.body167.loopexit ], [ %67, %land.rhs ]
  %77 = phi i32 [ %75, %while.body167.loopexit ], [ %68, %land.rhs ]
  store i32 0, i32* %next_semaphore.i474, align 8, !tbaa !42
  %inc168 = add nuw nsw i32 %iters.1533, 1
  %sub164 = sub nsw i32 %76, %total_iters.0537
  %cmp165 = icmp sgt i32 %sub164, %inc168
  br i1 %cmp165, label %land.rhs, label %if.end172, !llvm.loop !80

while.end169:                                     ; preds = %for.body.i483, %while.cond161.preheader
  %iters.1523 = phi i32 [ %iters.0538, %while.cond161.preheader ], [ %iters.1533, %for.body.i483 ]
  %cmp170 = icmp eq i32 %iters.1523, 0
  br i1 %cmp170, label %while.end179, label %if.end172

if.end172:                                        ; preds = %while.body167, %while.end169
  %iters.1523566 = phi i32 [ %iters.1523, %while.end169 ], [ %inc168, %while.body167 ]
  %78 = load i8*, i8** %user_context, align 8, !tbaa !40
  %79 = load i32 (i8*, i32, i32, i8*, i8*)*, i32 (i8*, i32, i32, i8*, i8*)** %fn, align 8, !tbaa !28
  %80 = load i32, i32* %min, align 4, !tbaa !31
  %add175 = add nsw i32 %80, %total_iters.0537
  %81 = load i8*, i8** %closure, align 8, !tbaa !36
  %call177 = tail call i32 @halide_do_loop_task(i8* %78, i32 (i8*, i32, i32, i8*, i8*)* %79, i32 %add175, i32 %iters.1523566, i8* %81, i8* nonnull %65) #15
  %add178 = add nuw nsw i32 %iters.1523566, %total_iters.0537
  %cmp159 = icmp eq i32 %call177, 0
  br i1 %cmp159, label %while.cond161.preheader, label %while.end179, !llvm.loop !81

while.end179:                                     ; preds = %if.end172, %while.end169
  %cmp170568 = phi i1 [ true, %while.end169 ], [ false, %if.end172 ]
  %result.0.lcssa = phi i32 [ 0, %while.end169 ], [ %call177, %if.end172 ]
  %total_iters.0.lcssa = phi i32 [ %total_iters.0537, %while.end169 ], [ %add178, %if.end172 ]
  tail call void @halide_mutex_lock(%struct.halide_mutex* getelementptr inbounds (%"struct.Halide::Runtime::Internal::work_queue_t", %"struct.Halide::Runtime::Internal::work_queue_t"* @_ZN6Halide7Runtime8Internal10work_queueE, i64 0, i32 0)) #15
  %82 = load i32, i32* %min, align 4, !tbaa !31
  %add182 = add nsw i32 %82, %total_iters.0.lcssa
  store i32 %add182, i32* %min, align 4, !tbaa !31
  %83 = load i32, i32* %extent163, align 8, !tbaa !32
  %sub185 = sub nsw i32 %83, %total_iters.0.lcssa
  store i32 %sub185, i32* %extent163, align 8, !tbaa !32
  br i1 %cmp170568, label %if.else190, label %if.end230.thread505

if.end230.thread505:                              ; preds = %while.end179
  store i32 0, i32* %extent163, align 8, !tbaa !32
  br label %if.then238

if.else190:                                       ; preds = %while.end179
  %cmp193 = icmp sgt i32 %sub185, 0
  br i1 %cmp193, label %if.then194, label %if.end271

if.then194:                                       ; preds = %if.else190
  %84 = load %"struct.Halide::Runtime::Internal::work"*, %"struct.Halide::Runtime::Internal::work"** getelementptr inbounds (%"struct.Halide::Runtime::Internal::work_queue_t", %"struct.Halide::Runtime::Internal::work_queue_t"* @_ZN6Halide7Runtime8Internal10work_queueE, i64 0, i32 3), align 8, !tbaa !66
  store %"struct.Halide::Runtime::Internal::work"* %84, %"struct.Halide::Runtime::Internal::work"** %next_job157, align 8, !tbaa !67
  store %"struct.Halide::Runtime::Internal::work"* %job.1515, %"struct.Halide::Runtime::Internal::work"** getelementptr inbounds (%"struct.Halide::Runtime::Internal::work_queue_t", %"struct.Halide::Runtime::Internal::work_queue_t"* @_ZN6Halide7Runtime8Internal10work_queueE, i64 0, i32 3), align 8, !tbaa !66
  br label %if.end271

if.else198:                                       ; preds = %if.end152
  %myjob.sroa.0.0..sroa_idx = getelementptr inbounds %"struct.Halide::Runtime::Internal::work", %"struct.Halide::Runtime::Internal::work"* %job.1515, i64 0, i32 0, i32 0
  %myjob.sroa.0.0.copyload = load i32 (i8*, i32, i32, i8*, i8*)*, i32 (i8*, i32, i32, i8*, i8*)** %myjob.sroa.0.0..sroa_idx, align 8, !tbaa.struct !82
  %myjob.sroa.4.0..sroa_idx327 = getelementptr inbounds %"struct.Halide::Runtime::Internal::work", %"struct.Halide::Runtime::Internal::work"* %job.1515, i64 0, i32 0, i32 1
  %myjob.sroa.4.0.copyload = load i8*, i8** %myjob.sroa.4.0..sroa_idx327, align 8, !tbaa.struct !83
  %myjob.sroa.6333.0..sroa_idx334 = getelementptr inbounds %"struct.Halide::Runtime::Internal::work", %"struct.Halide::Runtime::Internal::work"* %job.1515, i64 0, i32 0, i32 5
  %myjob.sroa.6333.0.copyload = load i32, i32* %myjob.sroa.6333.0..sroa_idx334, align 4
  %myjob.sroa.8340.0..sroa_idx341 = getelementptr inbounds %"struct.Halide::Runtime::Internal::work", %"struct.Halide::Runtime::Internal::work"* %job.1515, i64 0, i32 1
  %myjob.sroa.8340.0.copyload = load i32 (i8*, i32, i8*)*, i32 (i8*, i32, i8*)** %myjob.sroa.8340.0..sroa_idx341, align 8, !tbaa.struct !84
  %myjob.sroa.10347.0..sroa_idx348 = getelementptr inbounds %"struct.Halide::Runtime::Internal::work", %"struct.Halide::Runtime::Internal::work"* %job.1515, i64 0, i32 7
  %myjob.sroa.10347.0.copyload = load i8*, i8** %myjob.sroa.10347.0..sroa_idx348, align 8, !tbaa.struct !85
  %inc201 = add nsw i32 %myjob.sroa.6333.0.copyload, 1
  store i32 %inc201, i32* %myjob.sroa.6333.0..sroa_idx334, align 4, !tbaa !31
  %extent203 = getelementptr inbounds %"struct.Halide::Runtime::Internal::work", %"struct.Halide::Runtime::Internal::work"* %job.1515, i64 0, i32 0, i32 6
  %85 = load i32, i32* %extent203, align 8, !tbaa !32
  %dec204 = add nsw i32 %85, -1
  store i32 %dec204, i32* %extent203, align 8, !tbaa !32
  %cmp207 = icmp eq i32 %dec204, 0
  br i1 %cmp207, label %if.then208, label %if.end210

if.then208:                                       ; preds = %if.else198
  %next_job209 = getelementptr inbounds %"struct.Halide::Runtime::Internal::work", %"struct.Halide::Runtime::Internal::work"* %job.1515, i64 0, i32 2
  %86 = load %"struct.Halide::Runtime::Internal::work"*, %"struct.Halide::Runtime::Internal::work"** %next_job209, align 8, !tbaa !67
  store %"struct.Halide::Runtime::Internal::work"* %86, %"struct.Halide::Runtime::Internal::work"** %prev_ptr.1519, align 8, !tbaa !14
  br label %if.end210

if.end210:                                        ; preds = %if.then208, %if.else198
  tail call void @halide_mutex_unlock(%struct.halide_mutex* getelementptr inbounds (%"struct.Halide::Runtime::Internal::work_queue_t", %"struct.Halide::Runtime::Internal::work_queue_t"* @_ZN6Halide7Runtime8Internal10work_queueE, i64 0, i32 0)) #15
  %tobool211.not = icmp eq i32 (i8*, i32, i8*)* %myjob.sroa.8340.0.copyload, null
  br i1 %tobool211.not, label %if.else220, label %if.then212

if.then212:                                       ; preds = %if.end210
  %call219 = tail call i32 @halide_do_task(i8* %myjob.sroa.10347.0.copyload, i32 (i8*, i32, i8*)* nonnull %myjob.sroa.8340.0.copyload, i32 %myjob.sroa.6333.0.copyload, i8* %myjob.sroa.4.0.copyload) #15
  br label %if.end230

if.else220:                                       ; preds = %if.end210
  %87 = bitcast %"struct.Halide::Runtime::Internal::work"* %job.1515 to i8*
  %call228 = tail call i32 @halide_do_loop_task(i8* %myjob.sroa.10347.0.copyload, i32 (i8*, i32, i32, i8*, i8*)* %myjob.sroa.0.0.copyload, i32 %myjob.sroa.6333.0.copyload, i32 1, i8* %myjob.sroa.4.0.copyload, i8* %87) #15
  br label %if.end230

if.end230:                                        ; preds = %if.else220, %if.then212
  %result.1 = phi i32 [ %call219, %if.then212 ], [ %call228, %if.else220 ]
  tail call void @halide_mutex_lock(%struct.halide_mutex* getelementptr inbounds (%"struct.Halide::Runtime::Internal::work_queue_t", %"struct.Halide::Runtime::Internal::work_queue_t"* @_ZN6Halide7Runtime8Internal10work_queueE, i64 0, i32 0)) #15
  %cmp237.not = icmp eq i32 %result.1, 0
  br i1 %cmp237.not, label %if.end271, label %if.then238

if.then238:                                       ; preds = %if.end230, %if.end230.thread505
  %result.2510 = phi i32 [ %result.0.lcssa, %if.end230.thread505 ], [ %result.1, %if.end230 ]
  %exit_status239 = getelementptr inbounds %"struct.Halide::Runtime::Internal::work", %"struct.Halide::Runtime::Internal::work"* %job.1515, i64 0, i32 9
  store i32 %result.2510, i32* %exit_status239, align 4, !tbaa !47
  %sibling_count = getelementptr inbounds %"struct.Halide::Runtime::Internal::work", %"struct.Halide::Runtime::Internal::work"* %job.1515, i64 0, i32 4
  %88 = load i32, i32* %sibling_count, align 8, !tbaa !45
  %cmp240540 = icmp sgt i32 %88, 0
  br i1 %cmp240540, label %do.end243.lr.ph, label %if.end271

do.end243.lr.ph:                                  ; preds = %if.then238
  %siblings244 = getelementptr inbounds %"struct.Halide::Runtime::Internal::work", %"struct.Halide::Runtime::Internal::work"* %job.1515, i64 0, i32 3
  %89 = load %"struct.Halide::Runtime::Internal::work"*, %"struct.Halide::Runtime::Internal::work"** %siblings244, align 8, !tbaa !44
  %wide.trip.count = zext i32 %88 to i64
  br label %do.end243

do.end243:                                        ; preds = %for.inc, %do.end243.lr.ph
  %indvars.iv = phi i64 [ 0, %do.end243.lr.ph ], [ %indvars.iv.next, %for.inc ]
  %wake_owners.0541 = phi i8 [ 0, %do.end243.lr.ph ], [ %wake_owners.1, %for.inc ]
  %exit_status245 = getelementptr inbounds %"struct.Halide::Runtime::Internal::work", %"struct.Halide::Runtime::Internal::work"* %89, i64 %indvars.iv, i32 9
  %90 = load i32, i32* %exit_status245, align 4, !tbaa !47
  %cmp246 = icmp eq i32 %90, 0
  br i1 %cmp246, label %if.then247, label %for.inc

if.then247:                                       ; preds = %do.end243
  store i32 %result.2510, i32* %exit_status245, align 4, !tbaa !47
  %91 = load i32, i32* %active_workers132, align 8, !tbaa !64
  %cmp253 = icmp eq i32 %91, 0
  br i1 %cmp253, label %land.rhs254, label %land.end260

land.rhs254:                                      ; preds = %if.then247
  %owner_is_sleeping258 = getelementptr inbounds %"struct.Halide::Runtime::Internal::work", %"struct.Halide::Runtime::Internal::work"* %89, i64 %indvars.iv, i32 11
  %92 = load i8, i8* %owner_is_sleeping258, align 4, !tbaa !43, !range !21
  br label %land.end260

land.end260:                                      ; preds = %land.rhs254, %if.then247
  %93 = phi i8 [ 0, %if.then247 ], [ %92, %land.rhs254 ]
  %94 = and i8 %wake_owners.0541, 1
  %or = or i8 %93, %94
  br label %for.inc

for.inc:                                          ; preds = %land.end260, %do.end243
  %wake_owners.1 = phi i8 [ %or, %land.end260 ], [ %wake_owners.0541, %do.end243 ]
  %indvars.iv.next = add nuw nsw i64 %indvars.iv, 1
  %exitcond.not = icmp eq i64 %indvars.iv.next, %wide.trip.count
  br i1 %exitcond.not, label %if.end271, label %do.end243, !llvm.loop !86

if.end271:                                        ; preds = %for.inc, %if.then238, %if.end230, %if.then194, %if.else190
  %wake_owners.2 = phi i8 [ 0, %if.end230 ], [ 0, %if.else190 ], [ 0, %if.then194 ], [ 0, %if.then238 ], [ %wake_owners.1, %for.inc ]
  %95 = load %"struct.Halide::Runtime::Internal::work"*, %"struct.Halide::Runtime::Internal::work"** %parent_job134, align 8, !tbaa !46
  %cmp273 = icmp eq %"struct.Halide::Runtime::Internal::work"* %95, null
  %96 = load i32, i32* %min_threads138, align 4, !tbaa !37
  br i1 %cmp273, label %if.then274, label %if.else281

if.then274:                                       ; preds = %if.end271
  %97 = load i32, i32* getelementptr inbounds (%"struct.Halide::Runtime::Internal::work_queue_t", %"struct.Halide::Runtime::Internal::work_queue_t"* @_ZN6Halide7Runtime8Internal10work_queueE, i64 0, i32 16), align 4, !tbaa !61
  %sub277 = sub nsw i32 %97, %96
  store i32 %sub277, i32* getelementptr inbounds (%"struct.Halide::Runtime::Internal::work_queue_t", %"struct.Halide::Runtime::Internal::work_queue_t"* @_ZN6Halide7Runtime8Internal10work_queueE, i64 0, i32 16), align 4, !tbaa !61
  br label %if.end290

if.else281:                                       ; preds = %if.end271
  %threads_reserved285 = getelementptr inbounds %"struct.Halide::Runtime::Internal::work", %"struct.Halide::Runtime::Internal::work"* %95, i64 0, i32 6
  %98 = load i32, i32* %threads_reserved285, align 8, !tbaa !65
  %sub286 = sub nsw i32 %98, %96
  store i32 %sub286, i32* %threads_reserved285, align 8, !tbaa !65
  br label %if.end290

if.end290:                                        ; preds = %if.else281, %if.then274
  %99 = load i32, i32* %active_workers132, align 8, !tbaa !64
  %dec292 = add nsw i32 %99, -1
  store i32 %dec292, i32* %active_workers132, align 8, !tbaa !64
  %100 = and i8 %wake_owners.2, 1
  %tobool296.not = icmp eq i8 %100, 0
  br i1 %tobool296.not, label %lor.lhs.false297, label %if.then310

lor.lhs.false297:                                 ; preds = %if.end290
  %cmp299 = icmp eq i32 %dec292, 0
  br i1 %cmp299, label %land.lhs.true300, label %while.cond.backedge

land.lhs.true300:                                 ; preds = %lor.lhs.false297
  %extent302 = getelementptr inbounds %"struct.Halide::Runtime::Internal::work", %"struct.Halide::Runtime::Internal::work"* %job.1515, i64 0, i32 0, i32 6
  %101 = load i32, i32* %extent302, align 8, !tbaa !32
  %cmp303 = icmp eq i32 %101, 0
  br i1 %cmp303, label %land.lhs.true307, label %lor.lhs.false304

lor.lhs.false304:                                 ; preds = %land.lhs.true300
  %exit_status305 = getelementptr inbounds %"struct.Halide::Runtime::Internal::work", %"struct.Halide::Runtime::Internal::work"* %job.1515, i64 0, i32 9
  %102 = load i32, i32* %exit_status305, align 4, !tbaa !47
  %cmp306.not = icmp eq i32 %102, 0
  br i1 %cmp306.not, label %while.cond.backedge, label %land.lhs.true307

land.lhs.true307:                                 ; preds = %lor.lhs.false304, %land.lhs.true300
  %owner_is_sleeping308 = getelementptr inbounds %"struct.Halide::Runtime::Internal::work", %"struct.Halide::Runtime::Internal::work"* %job.1515, i64 0, i32 11
  %103 = load i8, i8* %owner_is_sleeping308, align 4, !tbaa !43, !range !21
  %tobool309.not = icmp eq i8 %103, 0
  br i1 %tobool309.not, label %while.cond.backedge, label %if.then310

if.then310:                                       ; preds = %land.lhs.true307, %if.end290
  tail call void @halide_cond_broadcast(%struct.halide_mutex* getelementptr inbounds (%"struct.Halide::Runtime::Internal::work_queue_t", %"struct.Halide::Runtime::Internal::work_queue_t"* @_ZN6Halide7Runtime8Internal10work_queueE, i64 0, i32 10)) #15
  br label %while.cond.backedge

while.cond.backedge:                              ; preds = %if.then310, %land.lhs.true307, %lor.lhs.false304, %lor.lhs.false297, %if.end124, %if.else108, %if.then107, %if.then15, %while.end
  %spin_count.0.be = phi i32 [ %spin_count.0, %while.end ], [ %spin_count.0, %if.then15 ], [ %inc, %if.then107 ], [ %inc, %if.else108 ], [ %spin_count.1, %if.end124 ], [ 0, %if.then310 ], [ 0, %land.lhs.true307 ], [ 0, %lor.lhs.false304 ], [ 0, %lor.lhs.false297 ]
  br label %while.cond, !llvm.loop !87

while.end316:                                     ; preds = %cond.end, %cond.false
  ret void
}

; Function Attrs: nounwind
define weak void @halide_mutex_unlock(%struct.halide_mutex* %mutex) local_unnamed_addr #4 {
entry:
  %control.i.i = alloca %"struct.Halide::Runtime::Internal::Synchronization::mutex_parking_control", align 8
  %state.i = getelementptr %struct.halide_mutex, %struct.halide_mutex* %mutex, i64 0, i32 0, i64 0
  %0 = cmpxchg weak i64* %state.i, i64 1, i64 0 release monotonic
  %1 = extractvalue { i64, i1 } %0, 1
  br i1 %1, label %_ZN6Halide7Runtime8Internal15Synchronization10fast_mutex6unlockEv.exit, label %if.then.i

if.then.i:                                        ; preds = %entry
  %2 = cmpxchg i64* %state.i, i64 1, i64 0 release monotonic
  %3 = extractvalue { i64, i1 } %2, 1
  br i1 %3, label %_ZN6Halide7Runtime8Internal15Synchronization10fast_mutex6unlockEv.exit, label %if.end.i.i

if.end.i.i:                                       ; preds = %if.then.i
  %4 = bitcast %"struct.Halide::Runtime::Internal::Synchronization::mutex_parking_control"* %control.i.i to i8*
  call void @llvm.lifetime.start.p0i8(i64 16, i8* nonnull %4) #11
  %5 = getelementptr inbounds %"struct.Halide::Runtime::Internal::Synchronization::mutex_parking_control", %"struct.Halide::Runtime::Internal::Synchronization::mutex_parking_control"* %control.i.i, i64 0, i32 0, i32 0
  store i32 (...)** bitcast (i8** getelementptr inbounds ({ [6 x i8*] }, { [6 x i8*] }* @_ZTVN6Halide7Runtime8Internal15Synchronization21mutex_parking_controlE, i64 0, inrange i32 0, i64 2) to i32 (...)**), i32 (...)*** %5, align 8, !tbaa !48
  %lock_state2.i.i.i = getelementptr inbounds %"struct.Halide::Runtime::Internal::Synchronization::mutex_parking_control", %"struct.Halide::Runtime::Internal::Synchronization::mutex_parking_control"* %control.i.i, i64 0, i32 1
  store i64* %state.i, i64** %lock_state2.i.i.i, align 8, !tbaa !50
  %6 = getelementptr inbounds %"struct.Halide::Runtime::Internal::Synchronization::mutex_parking_control", %"struct.Halide::Runtime::Internal::Synchronization::mutex_parking_control"* %control.i.i, i64 0, i32 0
  %7 = ptrtoint %struct.halide_mutex* %mutex to i64
  %call3.i.i = call i64 @_ZN6Halide7Runtime8Internal15Synchronization15parking_control10unpark_oneEy(%"struct.Halide::Runtime::Internal::Synchronization::parking_control"* nonnull dereferenceable(8) %6, i64 %7) #14
  call void @llvm.lifetime.end.p0i8(i64 16, i8* nonnull %4) #11
  br label %_ZN6Halide7Runtime8Internal15Synchronization10fast_mutex6unlockEv.exit

_ZN6Halide7Runtime8Internal15Synchronization10fast_mutex6unlockEv.exit: ; preds = %if.end.i.i, %if.then.i, %entry
  ret void
}

; Function Attrs: nounwind mustprogress
define linkonce i64 @_ZN6Halide7Runtime8Internal15Synchronization15parking_control10unpark_oneEy(%"struct.Halide::Runtime::Internal::Synchronization::parking_control"* nonnull dereferenceable(8) %this, i64 %addr) local_unnamed_addr #0 align 2 {
entry:
  %call = tail call nonnull align 8 dereferenceable(24) %"struct.Halide::Runtime::Internal::Synchronization::hash_bucket"* @_ZN6Halide7Runtime8Internal15Synchronization11lock_bucketEy(i64 %addr) #15
  %head = getelementptr inbounds %"struct.Halide::Runtime::Internal::Synchronization::hash_bucket", %"struct.Halide::Runtime::Internal::Synchronization::hash_bucket"* %call, i64 0, i32 1
  %0 = load %"struct.Halide::Runtime::Internal::Synchronization::queue_data"*, %"struct.Halide::Runtime::Internal::Synchronization::queue_data"** %head, align 8, !tbaa !14
  %tail = getelementptr inbounds %"struct.Halide::Runtime::Internal::Synchronization::hash_bucket", %"struct.Halide::Runtime::Internal::Synchronization::hash_bucket"* %call, i64 0, i32 2
  %1 = bitcast %"struct.Halide::Runtime::Internal::Synchronization::parking_control"* %this to i64 (%"struct.Halide::Runtime::Internal::Synchronization::parking_control"*, i32, i1)***
  %state.i60 = getelementptr inbounds %"struct.Halide::Runtime::Internal::Synchronization::hash_bucket", %"struct.Halide::Runtime::Internal::Synchronization::hash_bucket"* %call, i64 0, i32 0, i32 0
  %mutex = getelementptr inbounds %"struct.Halide::Runtime::Internal::Synchronization::hash_bucket", %"struct.Halide::Runtime::Internal::Synchronization::hash_bucket"* %call, i64 0, i32 0
  br label %while.cond

while.cond:                                       ; preds = %cleanup, %entry
  %data_location.0 = phi %"struct.Halide::Runtime::Internal::Synchronization::queue_data"** [ %head, %entry ], [ %data_location.1, %cleanup ]
  %prev.0 = phi %"struct.Halide::Runtime::Internal::Synchronization::queue_data"* [ null, %entry ], [ %prev.1, %cleanup ]
  %data.0 = phi %"struct.Halide::Runtime::Internal::Synchronization::queue_data"* [ %0, %entry ], [ %data.1, %cleanup ]
  %retval.0 = phi i64 [ undef, %entry ], [ %retval.1, %cleanup ]
  %cmp.not = icmp eq %"struct.Halide::Runtime::Internal::Synchronization::queue_data"* %data.0, null
  br i1 %cmp.not, label %while.end22, label %while.body

while.body:                                       ; preds = %while.cond
  %sleep_address = getelementptr inbounds %"struct.Halide::Runtime::Internal::Synchronization::queue_data", %"struct.Halide::Runtime::Internal::Synchronization::queue_data"* %data.0, i64 0, i32 1
  %2 = load atomic i64, i64* %sleep_address monotonic, align 8
  %cmp2 = icmp eq i64 %2, %addr
  %next3 = getelementptr inbounds %"struct.Halide::Runtime::Internal::Synchronization::queue_data", %"struct.Halide::Runtime::Internal::Synchronization::queue_data"* %data.0, i64 0, i32 2
  %3 = load %"struct.Halide::Runtime::Internal::Synchronization::queue_data"*, %"struct.Halide::Runtime::Internal::Synchronization::queue_data"** %next3, align 8, !tbaa !88
  br i1 %cmp2, label %if.then, label %cleanup

if.then:                                          ; preds = %while.body
  store %"struct.Halide::Runtime::Internal::Synchronization::queue_data"* %3, %"struct.Halide::Runtime::Internal::Synchronization::queue_data"** %data_location.0, align 8, !tbaa !14
  %4 = load %"struct.Halide::Runtime::Internal::Synchronization::queue_data"*, %"struct.Halide::Runtime::Internal::Synchronization::queue_data"** %tail, align 8, !tbaa !93
  %cmp4 = icmp eq %"struct.Halide::Runtime::Internal::Synchronization::queue_data"* %4, %data.0
  br i1 %cmp4, label %if.then5, label %while.cond7.preheader

while.cond7.preheader:                            ; preds = %if.then
  %cmp872.not = icmp eq %"struct.Halide::Runtime::Internal::Synchronization::queue_data"* %3, null
  br i1 %cmp872.not, label %if.end, label %while.body9

if.then5:                                         ; preds = %if.then
  store %"struct.Halide::Runtime::Internal::Synchronization::queue_data"* %prev.0, %"struct.Halide::Runtime::Internal::Synchronization::queue_data"** %tail, align 8, !tbaa !93
  br label %if.end

while.body9:                                      ; preds = %while.cond7.preheader, %while.body9
  %data2.073 = phi %"struct.Halide::Runtime::Internal::Synchronization::queue_data"* [ %6, %while.body9 ], [ %3, %while.cond7.preheader ]
  %sleep_address10 = getelementptr inbounds %"struct.Halide::Runtime::Internal::Synchronization::queue_data", %"struct.Halide::Runtime::Internal::Synchronization::queue_data"* %data2.073, i64 0, i32 1
  %5 = load atomic i64, i64* %sleep_address10 monotonic, align 8
  %cmp11 = icmp eq i64 %5, %addr
  %next12 = getelementptr inbounds %"struct.Halide::Runtime::Internal::Synchronization::queue_data", %"struct.Halide::Runtime::Internal::Synchronization::queue_data"* %data2.073, i64 0, i32 2
  %6 = load %"struct.Halide::Runtime::Internal::Synchronization::queue_data"*, %"struct.Halide::Runtime::Internal::Synchronization::queue_data"** %next12, align 8, !tbaa !88
  %cmp8 = icmp eq %"struct.Halide::Runtime::Internal::Synchronization::queue_data"* %6, null
  %7 = or i1 %cmp11, %cmp8
  br i1 %7, label %if.end.loopexit, label %while.body9, !llvm.loop !96

if.end.loopexit:                                  ; preds = %while.body9
  %frombool = zext i1 %cmp11 to i8
  br label %if.end

if.end:                                           ; preds = %if.end.loopexit, %if.then5, %while.cond7.preheader
  %more_waiters.1 = phi i8 [ 0, %if.then5 ], [ 0, %while.cond7.preheader ], [ %frombool, %if.end.loopexit ]
  %tobool13 = icmp ne i8 %more_waiters.1, 0
  %vtable = load i64 (%"struct.Halide::Runtime::Internal::Synchronization::parking_control"*, i32, i1)**, i64 (%"struct.Halide::Runtime::Internal::Synchronization::parking_control"*, i32, i1)*** %1, align 8, !tbaa !48
  %vfn = getelementptr inbounds i64 (%"struct.Halide::Runtime::Internal::Synchronization::parking_control"*, i32, i1)*, i64 (%"struct.Halide::Runtime::Internal::Synchronization::parking_control"*, i32, i1)** %vtable, i64 2
  %8 = load i64 (%"struct.Halide::Runtime::Internal::Synchronization::parking_control"*, i32, i1)*, i64 (%"struct.Halide::Runtime::Internal::Synchronization::parking_control"*, i32, i1)** %vfn, align 8
  %call14 = tail call i64 %8(%"struct.Halide::Runtime::Internal::Synchronization::parking_control"* nonnull dereferenceable(8) %this, i32 1, i1 zeroext %tobool13) #14
  %unpark_info = getelementptr inbounds %"struct.Halide::Runtime::Internal::Synchronization::queue_data", %"struct.Halide::Runtime::Internal::Synchronization::queue_data"* %data.0, i64 0, i32 3
  store i64 %call14, i64* %unpark_info, align 8, !tbaa !97
  %mutex.i = getelementptr inbounds %"struct.Halide::Runtime::Internal::Synchronization::queue_data", %"struct.Halide::Runtime::Internal::Synchronization::queue_data"* %data.0, i64 0, i32 0, i32 0
  %call.i = tail call i32 @pthread_mutex_lock(%struct.pthread_mutex_t* nonnull %mutex.i) #14
  %9 = atomicrmw and i64* %state.i60, i64 -2 release
  %and.i61 = and i64 %9, 2
  %cmp.i62 = icmp ne i64 %and.i61, 0
  %cmp3.not.i63 = icmp ult i64 %9, 4
  %or.cond.i64 = or i1 %cmp3.not.i63, %cmp.i62
  br i1 %or.cond.i64, label %_ZN6Halide7Runtime8Internal15Synchronization9word_lock6unlockEv.exit66, label %if.then.i65

if.then.i65:                                      ; preds = %if.end
  tail call void @_ZN6Halide7Runtime8Internal15Synchronization9word_lock11unlock_fullEv(%"class.Halide::Runtime::Internal::Synchronization::word_lock"* nonnull dereferenceable(8) %mutex) #14
  br label %_ZN6Halide7Runtime8Internal15Synchronization9word_lock6unlockEv.exit66

_ZN6Halide7Runtime8Internal15Synchronization9word_lock6unlockEv.exit66: ; preds = %if.then.i65, %if.end
  %should_park.i = getelementptr inbounds %"struct.Halide::Runtime::Internal::Synchronization::queue_data", %"struct.Halide::Runtime::Internal::Synchronization::queue_data"* %data.0, i64 0, i32 0, i32 2
  store i8 0, i8* %should_park.i, align 8, !tbaa !98
  %condvar.i = getelementptr inbounds %"struct.Halide::Runtime::Internal::Synchronization::queue_data", %"struct.Halide::Runtime::Internal::Synchronization::queue_data"* %data.0, i64 0, i32 0, i32 1
  %call.i67 = tail call i32 @pthread_cond_signal(%struct.pthread_mutex_t* nonnull %condvar.i) #14
  %call.i69 = tail call i32 @pthread_mutex_unlock(%struct.pthread_mutex_t* nonnull %mutex.i) #14
  %10 = zext i8 %more_waiters.1 to i64
  br label %cleanup

cleanup:                                          ; preds = %_ZN6Halide7Runtime8Internal15Synchronization9word_lock6unlockEv.exit66, %while.body
  %data_location.1 = phi %"struct.Halide::Runtime::Internal::Synchronization::queue_data"** [ %data_location.0, %_ZN6Halide7Runtime8Internal15Synchronization9word_lock6unlockEv.exit66 ], [ %next3, %while.body ]
  %prev.1 = phi %"struct.Halide::Runtime::Internal::Synchronization::queue_data"* [ %prev.0, %_ZN6Halide7Runtime8Internal15Synchronization9word_lock6unlockEv.exit66 ], [ %data.0, %while.body ]
  %data.1 = phi %"struct.Halide::Runtime::Internal::Synchronization::queue_data"* [ %data.0, %_ZN6Halide7Runtime8Internal15Synchronization9word_lock6unlockEv.exit66 ], [ %3, %while.body ]
  %retval.1 = phi i64 [ %10, %_ZN6Halide7Runtime8Internal15Synchronization9word_lock6unlockEv.exit66 ], [ %retval.0, %while.body ]
  br i1 %cmp2, label %cleanup27, label %while.cond, !llvm.loop !99

while.end22:                                      ; preds = %while.cond
  %vtable23 = load i64 (%"struct.Halide::Runtime::Internal::Synchronization::parking_control"*, i32, i1)**, i64 (%"struct.Halide::Runtime::Internal::Synchronization::parking_control"*, i32, i1)*** %1, align 8, !tbaa !48
  %vfn24 = getelementptr inbounds i64 (%"struct.Halide::Runtime::Internal::Synchronization::parking_control"*, i32, i1)*, i64 (%"struct.Halide::Runtime::Internal::Synchronization::parking_control"*, i32, i1)** %vtable23, i64 2
  %11 = load i64 (%"struct.Halide::Runtime::Internal::Synchronization::parking_control"*, i32, i1)*, i64 (%"struct.Halide::Runtime::Internal::Synchronization::parking_control"*, i32, i1)** %vfn24, align 8
  %call25 = tail call i64 %11(%"struct.Halide::Runtime::Internal::Synchronization::parking_control"* nonnull dereferenceable(8) %this, i32 0, i1 zeroext false) #14
  %12 = atomicrmw and i64* %state.i60, i64 -2 release
  %and.i = and i64 %12, 2
  %cmp.i = icmp ne i64 %and.i, 0
  %cmp3.not.i = icmp ult i64 %12, 4
  %or.cond.i = or i1 %cmp3.not.i, %cmp.i
  br i1 %or.cond.i, label %cleanup27, label %if.then.i

if.then.i:                                        ; preds = %while.end22
  tail call void @_ZN6Halide7Runtime8Internal15Synchronization9word_lock11unlock_fullEv(%"class.Halide::Runtime::Internal::Synchronization::word_lock"* nonnull dereferenceable(8) %mutex) #14
  br label %cleanup27

cleanup27:                                        ; preds = %cleanup, %if.then.i, %while.end22
  %retval.2 = phi i64 [ 0, %while.end22 ], [ 0, %if.then.i ], [ %retval.1, %cleanup ]
  ret i64 %retval.2
}

; Function Attrs: nounwind mustprogress
define linkonce nonnull align 8 dereferenceable(24) %"struct.Halide::Runtime::Internal::Synchronization::hash_bucket"* @_ZN6Halide7Runtime8Internal15Synchronization11lock_bucketEy(i64 %addr) local_unnamed_addr #0 {
entry:
  %mul.i = mul i64 %addr, -7046029254386353131
  %shr.i = lshr i64 %mul.i, 54
  %arrayidx = getelementptr inbounds %"struct.Halide::Runtime::Internal::Synchronization::hash_table", %"struct.Halide::Runtime::Internal::Synchronization::hash_table"* @_ZN6Halide7Runtime8Internal15Synchronization5tableE, i64 0, i32 0, i64 %shr.i
  %state.i = getelementptr inbounds %"struct.Halide::Runtime::Internal::Synchronization::hash_bucket", %"struct.Halide::Runtime::Internal::Synchronization::hash_bucket"* %arrayidx, i64 0, i32 0, i32 0
  %0 = cmpxchg weak i64* %state.i, i64 0, i64 1 acquire monotonic
  %1 = extractvalue { i64, i1 } %0, 1
  br i1 %1, label %_ZN6Halide7Runtime8Internal15Synchronization9word_lock4lockEv.exit, label %if.then.i

if.then.i:                                        ; preds = %entry
  %mutex = getelementptr inbounds %"struct.Halide::Runtime::Internal::Synchronization::hash_bucket", %"struct.Halide::Runtime::Internal::Synchronization::hash_bucket"* %arrayidx, i64 0, i32 0
  tail call void @_ZN6Halide7Runtime8Internal15Synchronization9word_lock9lock_fullEv(%"class.Halide::Runtime::Internal::Synchronization::word_lock"* nonnull dereferenceable(8) %mutex) #14
  br label %_ZN6Halide7Runtime8Internal15Synchronization9word_lock4lockEv.exit

_ZN6Halide7Runtime8Internal15Synchronization9word_lock4lockEv.exit: ; preds = %if.then.i, %entry
  ret %"struct.Halide::Runtime::Internal::Synchronization::hash_bucket"* %arrayidx
}

declare i32 @pthread_mutex_lock(%struct.pthread_mutex_t*) local_unnamed_addr #1

; Function Attrs: nounwind
define linkonce void @_ZN6Halide7Runtime8Internal15Synchronization9word_lock11unlock_fullEv(%"class.Halide::Runtime::Internal::Synchronization::word_lock"* nonnull dereferenceable(8) %this) local_unnamed_addr #4 align 2 {
entry:
  %state = getelementptr inbounds %"class.Halide::Runtime::Internal::Synchronization::word_lock", %"class.Halide::Runtime::Internal::Synchronization::word_lock"* %this, i64 0, i32 0
  %0 = load atomic i64, i64* %state monotonic, align 8
  br label %while.cond

while.cond:                                       ; preds = %if.end, %entry
  %expected.0 = phi i64 [ %0, %entry ], [ %3, %if.end ]
  %and = and i64 %expected.0, 2
  %tobool.not = icmp ne i64 %and, 0
  %cmp = icmp ult i64 %expected.0, 4
  %or.cond = or i1 %cmp, %tobool.not
  br i1 %or.cond, label %cleanup75, label %if.end

if.end:                                           ; preds = %while.cond
  %or = or i64 %expected.0, 2
  %1 = cmpxchg weak i64* %state, i64 %expected.0, i64 %or acquire monotonic
  %2 = extractvalue { i64, i1 } %1, 1
  %3 = extractvalue { i64, i1 } %1, 0
  br i1 %2, label %while.cond11, label %while.cond

while.cond11:                                     ; preds = %if.end, %cleanup70
  %.pn.pn = phi { i64, i1 } [ %.pn, %cleanup70 ], [ %1, %if.end ]
  %expected.3 = extractvalue { i64, i1 } %.pn.pn, 0
  %and13 = and i64 %expected.3, -4
  %4 = inttoptr i64 %and13 to %"struct.Halide::Runtime::Internal::Synchronization::word_lock_queue_data"*
  %tail14 = getelementptr inbounds %"struct.Halide::Runtime::Internal::Synchronization::word_lock_queue_data", %"struct.Halide::Runtime::Internal::Synchronization::word_lock_queue_data"* %4, i64 0, i32 3
  %tail.0143 = load %"struct.Halide::Runtime::Internal::Synchronization::word_lock_queue_data"*, %"struct.Halide::Runtime::Internal::Synchronization::word_lock_queue_data"** %tail14, align 8, !tbaa !100
  %cmp16144 = icmp eq %"struct.Halide::Runtime::Internal::Synchronization::word_lock_queue_data"* %tail.0143, null
  br i1 %cmp16144, label %while.body17, label %while.end23

while.body17:                                     ; preds = %while.cond11, %do.end
  %current.0145 = phi %"struct.Halide::Runtime::Internal::Synchronization::word_lock_queue_data"* [ %5, %do.end ], [ %4, %while.cond11 ]
  %next18 = getelementptr inbounds %"struct.Halide::Runtime::Internal::Synchronization::word_lock_queue_data", %"struct.Halide::Runtime::Internal::Synchronization::word_lock_queue_data"* %current.0145, i64 0, i32 1
  %5 = load %"struct.Halide::Runtime::Internal::Synchronization::word_lock_queue_data"*, %"struct.Halide::Runtime::Internal::Synchronization::word_lock_queue_data"** %next18, align 8, !tbaa !102
  %cmp19.not = icmp eq %"struct.Halide::Runtime::Internal::Synchronization::word_lock_queue_data"* %5, null
  br i1 %cmp19.not, label %if.then20, label %do.end

if.then20:                                        ; preds = %while.body17
  tail call void @halide_print(i8* null, i8* getelementptr inbounds ([130 x i8], [130 x i8]* @.str.5, i64 0, i64 0)) #14
  tail call void @abort() #14
  br label %do.end

do.end:                                           ; preds = %if.then20, %while.body17
  %prev = getelementptr inbounds %"struct.Halide::Runtime::Internal::Synchronization::word_lock_queue_data", %"struct.Halide::Runtime::Internal::Synchronization::word_lock_queue_data"* %5, i64 0, i32 2
  store %"struct.Halide::Runtime::Internal::Synchronization::word_lock_queue_data"* %current.0145, %"struct.Halide::Runtime::Internal::Synchronization::word_lock_queue_data"** %prev, align 8, !tbaa !103
  %tail22 = getelementptr inbounds %"struct.Halide::Runtime::Internal::Synchronization::word_lock_queue_data", %"struct.Halide::Runtime::Internal::Synchronization::word_lock_queue_data"* %5, i64 0, i32 3
  %tail.0 = load %"struct.Halide::Runtime::Internal::Synchronization::word_lock_queue_data"*, %"struct.Halide::Runtime::Internal::Synchronization::word_lock_queue_data"** %tail22, align 8, !tbaa !100
  %cmp16 = icmp eq %"struct.Halide::Runtime::Internal::Synchronization::word_lock_queue_data"* %tail.0, null
  br i1 %cmp16, label %while.body17, label %while.end23, !llvm.loop !104

while.end23:                                      ; preds = %do.end, %while.cond11
  %tail.0.lcssa = phi %"struct.Halide::Runtime::Internal::Synchronization::word_lock_queue_data"* [ %tail.0143, %while.cond11 ], [ %tail.0, %do.end ]
  store %"struct.Halide::Runtime::Internal::Synchronization::word_lock_queue_data"* %tail.0.lcssa, %"struct.Halide::Runtime::Internal::Synchronization::word_lock_queue_data"** %tail14, align 8, !tbaa !100
  %and25 = and i64 %expected.3, 1
  %tobool26.not = icmp eq i64 %and25, 0
  br i1 %tobool26.not, label %if.end35, label %if.then27

if.then27:                                        ; preds = %while.end23
  %and29 = and i64 %expected.3, -3
  %6 = cmpxchg weak i64* %state, i64 %expected.3, i64 %and29 acq_rel monotonic
  %7 = extractvalue { i64, i1 } %6, 1
  br i1 %7, label %cleanup75, label %cleanup70

if.end35:                                         ; preds = %while.end23
  %prev36 = getelementptr inbounds %"struct.Halide::Runtime::Internal::Synchronization::word_lock_queue_data", %"struct.Halide::Runtime::Internal::Synchronization::word_lock_queue_data"* %tail.0.lcssa, i64 0, i32 2
  %8 = load %"struct.Halide::Runtime::Internal::Synchronization::word_lock_queue_data"*, %"struct.Halide::Runtime::Internal::Synchronization::word_lock_queue_data"** %prev36, align 8, !tbaa !103
  %cmp37 = icmp eq %"struct.Halide::Runtime::Internal::Synchronization::word_lock_queue_data"* %8, null
  br i1 %cmp37, label %while.body41, label %if.else62

while.body41:                                     ; preds = %if.end35, %if.end47
  %expected.5146 = phi i64 [ %11, %if.end47 ], [ %expected.3, %if.end35 ]
  %and43 = and i64 %expected.5146, 1
  %9 = cmpxchg weak i64* %state, i64 %expected.5146, i64 %and43 acq_rel monotonic
  %10 = extractvalue { i64, i1 } %9, 1
  br i1 %10, label %if.end66, label %if.end47

if.end47:                                         ; preds = %while.body41
  %11 = extractvalue { i64, i1 } %9, 0
  %cmp49 = icmp ult i64 %11, 4
  br i1 %cmp49, label %while.body41, label %cleanup70, !llvm.loop !105

if.else62:                                        ; preds = %if.end35
  store %"struct.Halide::Runtime::Internal::Synchronization::word_lock_queue_data"* %8, %"struct.Halide::Runtime::Internal::Synchronization::word_lock_queue_data"** %tail14, align 8, !tbaa !100
  %12 = atomicrmw and i64* %state, i64 -3 release
  br label %if.end66

if.end66:                                         ; preds = %while.body41, %if.else62
  %mutex.i103 = getelementptr inbounds %"struct.Halide::Runtime::Internal::Synchronization::word_lock_queue_data", %"struct.Halide::Runtime::Internal::Synchronization::word_lock_queue_data"* %tail.0.lcssa, i64 0, i32 0, i32 0
  %call.i104 = tail call i32 @pthread_mutex_lock(%struct.pthread_mutex_t* nonnull %mutex.i103) #14
  %should_park.i = getelementptr inbounds %"struct.Halide::Runtime::Internal::Synchronization::word_lock_queue_data", %"struct.Halide::Runtime::Internal::Synchronization::word_lock_queue_data"* %tail.0.lcssa, i64 0, i32 0, i32 2
  store i8 0, i8* %should_park.i, align 8, !tbaa !98
  %condvar.i = getelementptr inbounds %"struct.Halide::Runtime::Internal::Synchronization::word_lock_queue_data", %"struct.Halide::Runtime::Internal::Synchronization::word_lock_queue_data"* %tail.0.lcssa, i64 0, i32 0, i32 1
  %call.i101 = tail call i32 @pthread_cond_signal(%struct.pthread_mutex_t* nonnull %condvar.i) #14
  %call.i = tail call i32 @pthread_mutex_unlock(%struct.pthread_mutex_t* nonnull %mutex.i103) #14
  br label %cleanup75

cleanup70:                                        ; preds = %if.end47, %if.then27
  %.pn = phi { i64, i1 } [ %6, %if.then27 ], [ %9, %if.end47 ]
  fence acquire
  br label %while.cond11

cleanup75:                                        ; preds = %while.cond, %if.then27, %if.end66
  ret void
}

declare i32 @pthread_cond_signal(%struct.pthread_mutex_t*) local_unnamed_addr #1

declare i32 @pthread_mutex_unlock(%struct.pthread_mutex_t*) local_unnamed_addr #1

; Function Attrs: nounwind
define linkonce void @_ZN6Halide7Runtime8Internal15Synchronization9word_lock9lock_fullEv(%"class.Halide::Runtime::Internal::Synchronization::word_lock"* nonnull dereferenceable(8) %this) local_unnamed_addr #4 align 2 {
entry:
  %node = alloca %"struct.Halide::Runtime::Internal::Synchronization::word_lock_queue_data", align 8
  %state = getelementptr inbounds %"class.Halide::Runtime::Internal::Synchronization::word_lock", %"class.Halide::Runtime::Internal::Synchronization::word_lock"* %this, i64 0, i32 0
  %0 = load atomic i64, i64* %state monotonic, align 8
  %1 = bitcast %"struct.Halide::Runtime::Internal::Synchronization::word_lock_queue_data"* %node to i8*
  %should_park.i.i = getelementptr inbounds %"struct.Halide::Runtime::Internal::Synchronization::word_lock_queue_data", %"struct.Halide::Runtime::Internal::Synchronization::word_lock_queue_data"* %node, i64 0, i32 0, i32 2
  %mutex2.i.i = getelementptr inbounds %"struct.Halide::Runtime::Internal::Synchronization::word_lock_queue_data", %"struct.Halide::Runtime::Internal::Synchronization::word_lock_queue_data"* %node, i64 0, i32 0, i32 0
  %condvar3.i.i = getelementptr inbounds %"struct.Halide::Runtime::Internal::Synchronization::word_lock_queue_data", %"struct.Halide::Runtime::Internal::Synchronization::word_lock_queue_data"* %node, i64 0, i32 0, i32 1
  %next.i = getelementptr inbounds %"struct.Halide::Runtime::Internal::Synchronization::word_lock_queue_data", %"struct.Halide::Runtime::Internal::Synchronization::word_lock_queue_data"* %node, i64 0, i32 1
  %tail.i = getelementptr inbounds %"struct.Halide::Runtime::Internal::Synchronization::word_lock_queue_data", %"struct.Halide::Runtime::Internal::Synchronization::word_lock_queue_data"* %node, i64 0, i32 3
  %2 = ptrtoint %"struct.Halide::Runtime::Internal::Synchronization::word_lock_queue_data"* %node to i64
  %3 = bitcast %"struct.Halide::Runtime::Internal::Synchronization::word_lock_queue_data"** %next.i to <2 x %"struct.Halide::Runtime::Internal::Synchronization::word_lock_queue_data"*>*
  br label %while.cond.outer

while.cond.outer:                                 ; preds = %while.cond.outer.backedge, %entry
  %expected.0.ph = phi i64 [ %0, %entry ], [ %expected.0.ph.be, %while.cond.outer.backedge ]
  %spinner.sroa.0.0.ph = phi i32 [ 40, %entry ], [ %spinner.sroa.0.0.ph.be, %while.cond.outer.backedge ]
  %and46 = and i64 %expected.0.ph, 1
  %tobool.not47 = icmp eq i64 %and46, 0
  br i1 %tobool.not47, label %if.then, label %if.end4

if.then:                                          ; preds = %while.cond.outer, %_ZN6Halide7Runtime8Internal15Synchronization12_GLOBAL__N_131atomic_cas_weak_acquire_relaxedEPyS4_S4_.exit
  %expected.048 = phi i64 [ %6, %_ZN6Halide7Runtime8Internal15Synchronization12_GLOBAL__N_131atomic_cas_weak_acquire_relaxedEPyS4_S4_.exit ], [ %expected.0.ph, %while.cond.outer ]
  %or = or i64 %expected.048, 1
  %4 = cmpxchg weak i64* %state, i64 %expected.048, i64 %or acquire monotonic
  %5 = extractvalue { i64, i1 } %4, 1
  br i1 %5, label %cleanup23, label %_ZN6Halide7Runtime8Internal15Synchronization12_GLOBAL__N_131atomic_cas_weak_acquire_relaxedEPyS4_S4_.exit

_ZN6Halide7Runtime8Internal15Synchronization12_GLOBAL__N_131atomic_cas_weak_acquire_relaxedEPyS4_S4_.exit: ; preds = %if.then
  %6 = extractvalue { i64, i1 } %4, 0
  %and = and i64 %6, 1
  %tobool.not = icmp eq i64 %and, 0
  br i1 %tobool.not, label %if.then, label %if.end4.loopexit

if.end4.loopexit:                                 ; preds = %_ZN6Halide7Runtime8Internal15Synchronization12_GLOBAL__N_131atomic_cas_weak_acquire_relaxedEPyS4_S4_.exit
  %7 = extractvalue { i64, i1 } %4, 0
  br label %if.end4

if.end4:                                          ; preds = %if.end4.loopexit, %while.cond.outer
  %expected.0.lcssa = phi i64 [ %expected.0.ph, %while.cond.outer ], [ %7, %if.end4.loopexit ]
  %cmp.not = icmp ugt i64 %expected.0.lcssa, 3
  %cmp.i = icmp sgt i32 %spinner.sroa.0.0.ph, 0
  %or.cond = and i1 %cmp.i, %cmp.not
  br i1 %or.cond, label %_ZN6Halide7Runtime8Internal15Synchronization12spin_control11should_spinEv.exit, label %if.end9

_ZN6Halide7Runtime8Internal15Synchronization12spin_control11should_spinEv.exit: ; preds = %if.end4
  %cmp4.i = icmp sgt i32 %spinner.sroa.0.0.ph, 1
  br i1 %cmp4.i, label %if.then7, label %if.end9

if.then7:                                         ; preds = %_ZN6Halide7Runtime8Internal15Synchronization12spin_control11should_spinEv.exit
  %dec.i = add nsw i32 %spinner.sroa.0.0.ph, -1
  call void @halide_thread_yield() #14
  %8 = load atomic i64, i64* %state monotonic, align 8
  br label %while.cond.outer.backedge

if.end9:                                          ; preds = %_ZN6Halide7Runtime8Internal15Synchronization12spin_control11should_spinEv.exit, %if.end4
  %spinner.sroa.0.2 = phi i32 [ %spinner.sroa.0.0.ph, %if.end4 ], [ 0, %_ZN6Halide7Runtime8Internal15Synchronization12spin_control11should_spinEv.exit ]
  call void @llvm.lifetime.start.p0i8(i64 160, i8* nonnull %1) #11
  store i8 0, i8* %should_park.i.i, align 8, !tbaa !98
  %call.i.i29 = call i32 @pthread_mutex_init(%struct.pthread_mutex_t* nonnull %mutex2.i.i, i8* null) #14
  %call4.i.i = call i32 @pthread_cond_init(%struct.pthread_mutex_t* nonnull %condvar3.i.i, i8* null) #14
  store <2 x %"struct.Halide::Runtime::Internal::Synchronization::word_lock_queue_data"*> zeroinitializer, <2 x %"struct.Halide::Runtime::Internal::Synchronization::word_lock_queue_data"*>* %3, align 8, !tbaa !14
  store %"struct.Halide::Runtime::Internal::Synchronization::word_lock_queue_data"* null, %"struct.Halide::Runtime::Internal::Synchronization::word_lock_queue_data"** %tail.i, align 8, !tbaa !100
  store i8 1, i8* %should_park.i.i, align 8, !tbaa !98
  %and10 = and i64 %expected.0.lcssa, -4
  %cmp11 = icmp eq i64 %and10, 0
  br i1 %cmp11, label %if.then12, label %if.else

if.then12:                                        ; preds = %if.end9
  store %"struct.Halide::Runtime::Internal::Synchronization::word_lock_queue_data"* %node, %"struct.Halide::Runtime::Internal::Synchronization::word_lock_queue_data"** %tail.i, align 8, !tbaa !100
  br label %if.end13

if.else:                                          ; preds = %if.end9
  %9 = inttoptr i64 %and10 to %"struct.Halide::Runtime::Internal::Synchronization::word_lock_queue_data"*
  store %"struct.Halide::Runtime::Internal::Synchronization::word_lock_queue_data"* %9, %"struct.Halide::Runtime::Internal::Synchronization::word_lock_queue_data"** %next.i, align 8, !tbaa !102
  br label %if.end13

if.end13:                                         ; preds = %if.else, %if.then12
  %and15 = and i64 %expected.0.lcssa, 3
  %or16 = or i64 %and15, %2
  %10 = cmpxchg weak i64* %state, i64 %expected.0.lcssa, i64 %or16 release monotonic
  %11 = extractvalue { i64, i1 } %10, 1
  br i1 %11, label %if.then19, label %_ZN6Halide7Runtime8Internal15Synchronization12_GLOBAL__N_131atomic_cas_weak_release_relaxedEPyS4_S4_.exit

_ZN6Halide7Runtime8Internal15Synchronization12_GLOBAL__N_131atomic_cas_weak_release_relaxedEPyS4_S4_.exit: ; preds = %if.end13
  %12 = extractvalue { i64, i1 } %10, 0
  br label %if.end22

if.then19:                                        ; preds = %if.end13
  %call.i = call i32 @pthread_mutex_lock(%struct.pthread_mutex_t* nonnull %mutex2.i.i) #14
  %13 = load i8, i8* %should_park.i.i, align 8, !tbaa !98, !range !21
  %tobool.not6.i = icmp eq i8 %13, 0
  br i1 %tobool.not6.i, label %_ZN6Halide7Runtime8Internal15Synchronization13thread_parker4parkEv.exit, label %while.body.i

while.body.i:                                     ; preds = %if.then19, %while.body.i
  %call3.i = call i32 @pthread_cond_wait(%struct.pthread_mutex_t* nonnull %condvar3.i.i, %struct.pthread_mutex_t* nonnull %mutex2.i.i) #14
  %14 = load i8, i8* %should_park.i.i, align 8, !tbaa !98, !range !21
  %tobool.not.i = icmp eq i8 %14, 0
  br i1 %tobool.not.i, label %_ZN6Halide7Runtime8Internal15Synchronization13thread_parker4parkEv.exit, label %while.body.i, !llvm.loop !106

_ZN6Halide7Runtime8Internal15Synchronization13thread_parker4parkEv.exit: ; preds = %while.body.i, %if.then19
  %call5.i = call i32 @pthread_mutex_unlock(%struct.pthread_mutex_t* nonnull %mutex2.i.i) #14
  %15 = load atomic i64, i64* %state monotonic, align 8
  br label %if.end22

if.end22:                                         ; preds = %_ZN6Halide7Runtime8Internal15Synchronization13thread_parker4parkEv.exit, %_ZN6Halide7Runtime8Internal15Synchronization12_GLOBAL__N_131atomic_cas_weak_release_relaxedEPyS4_S4_.exit
  %expected.3 = phi i64 [ %15, %_ZN6Halide7Runtime8Internal15Synchronization13thread_parker4parkEv.exit ], [ %12, %_ZN6Halide7Runtime8Internal15Synchronization12_GLOBAL__N_131atomic_cas_weak_release_relaxedEPyS4_S4_.exit ]
  %spinner.sroa.0.3 = phi i32 [ 40, %_ZN6Halide7Runtime8Internal15Synchronization13thread_parker4parkEv.exit ], [ %spinner.sroa.0.2, %_ZN6Halide7Runtime8Internal15Synchronization12_GLOBAL__N_131atomic_cas_weak_release_relaxedEPyS4_S4_.exit ]
  %call.i.i = call i32 @pthread_cond_destroy(%struct.pthread_mutex_t* nonnull %condvar3.i.i) #14
  %call2.i.i = call i32 @pthread_mutex_destroy(%struct.pthread_mutex_t* nonnull %mutex2.i.i) #14
  call void @llvm.lifetime.end.p0i8(i64 160, i8* nonnull %1) #11
  br label %while.cond.outer.backedge

while.cond.outer.backedge:                        ; preds = %if.end22, %if.then7
  %expected.0.ph.be = phi i64 [ %8, %if.then7 ], [ %expected.3, %if.end22 ]
  %spinner.sroa.0.0.ph.be = phi i32 [ %dec.i, %if.then7 ], [ %spinner.sroa.0.3, %if.end22 ]
  br label %while.cond.outer

cleanup23:                                        ; preds = %if.then
  ret void
}

declare i32 @pthread_mutex_init(%struct.pthread_mutex_t*, i8*) local_unnamed_addr #1

declare i32 @pthread_cond_init(%struct.pthread_mutex_t*, i8*) local_unnamed_addr #1

declare i32 @pthread_cond_wait(%struct.pthread_mutex_t*, %struct.pthread_mutex_t*) local_unnamed_addr #1

declare i32 @pthread_cond_destroy(%struct.pthread_mutex_t*) local_unnamed_addr #1

declare i32 @pthread_mutex_destroy(%struct.pthread_mutex_t*) local_unnamed_addr #1

; Function Attrs: nounwind willreturn mustprogress
define linkonce_odr zeroext i1 @_ZN6Halide7Runtime8Internal15Synchronization21mutex_parking_control8validateERNS2_15validate_actionE(%"struct.Halide::Runtime::Internal::Synchronization::mutex_parking_control"* nonnull dereferenceable(16) %this, %"struct.Halide::Runtime::Internal::Synchronization::validate_action"* nonnull align 8 dereferenceable(16) %action) unnamed_addr #2 align 2 {
entry:
  %lock_state = getelementptr inbounds %"struct.Halide::Runtime::Internal::Synchronization::mutex_parking_control", %"struct.Halide::Runtime::Internal::Synchronization::mutex_parking_control"* %this, i64 0, i32 1
  %0 = load i64*, i64** %lock_state, align 8, !tbaa !50
  %1 = load atomic i64, i64* %0 monotonic, align 8
  %cmp = icmp eq i64 %1, 3
  ret i1 %cmp
}

; Function Attrs: nounwind willreturn mustprogress
define linkonce_odr void @_ZN6Halide7Runtime8Internal15Synchronization15parking_control12before_sleepEv(%"struct.Halide::Runtime::Internal::Synchronization::parking_control"* nonnull dereferenceable(8) %this) unnamed_addr #2 align 2 {
entry:
  ret void
}

; Function Attrs: nounwind willreturn mustprogress
define linkonce_odr i64 @_ZN6Halide7Runtime8Internal15Synchronization21mutex_parking_control6unparkEib(%"struct.Halide::Runtime::Internal::Synchronization::mutex_parking_control"* nonnull dereferenceable(16) %this, i32 %unparked, i1 zeroext %more_waiters) unnamed_addr #2 align 2 {
entry:
  %0 = select i1 %more_waiters, i64 2, i64 0
  %lock_state = getelementptr inbounds %"struct.Halide::Runtime::Internal::Synchronization::mutex_parking_control", %"struct.Halide::Runtime::Internal::Synchronization::mutex_parking_control"* %this, i64 0, i32 1
  %1 = load i64*, i64** %lock_state, align 8, !tbaa !50
  store atomic i64 %0, i64* %1 release, align 8
  ret i64 0
}

; Function Attrs: nounwind willreturn mustprogress
define linkonce_odr void @_ZN6Halide7Runtime8Internal15Synchronization15parking_control16requeue_callbackERKNS2_15validate_actionEbb(%"struct.Halide::Runtime::Internal::Synchronization::parking_control"* nonnull dereferenceable(8) %this, %"struct.Halide::Runtime::Internal::Synchronization::validate_action"* nonnull align 8 dereferenceable(16) %action, i1 zeroext %one_to_wake, i1 zeroext %some_requeued) unnamed_addr #2 align 2 {
entry:
  ret void
}

; Function Attrs: nounwind
define weak void @halide_cond_broadcast(%struct.halide_mutex* %cond) local_unnamed_addr #4 {
entry:
  %control.i = alloca %"struct.Halide::Runtime::Internal::Synchronization::wait_parking_control", align 8
  %state.i = getelementptr %struct.halide_mutex, %struct.halide_mutex* %cond, i64 0, i32 0, i64 0
  %0 = load atomic i64, i64* %state.i monotonic, align 8
  %cmp.i = icmp eq i64 %0, 0
  br i1 %cmp.i, label %_ZN6Halide7Runtime8Internal15Synchronization9fast_cond9broadcastEv.exit, label %if.end.i

if.end.i:                                         ; preds = %entry
  %1 = bitcast %"struct.Halide::Runtime::Internal::Synchronization::wait_parking_control"* %control.i to i8*
  call void @llvm.lifetime.start.p0i8(i64 24, i8* nonnull %1) #11
  %2 = inttoptr i64 %0 to %"class.Halide::Runtime::Internal::Synchronization::word_lock"*
  %3 = getelementptr inbounds %"struct.Halide::Runtime::Internal::Synchronization::wait_parking_control", %"struct.Halide::Runtime::Internal::Synchronization::wait_parking_control"* %control.i, i64 0, i32 0, i32 0
  store i32 (...)** bitcast (i8** getelementptr inbounds ({ [6 x i8*] }, { [6 x i8*] }* @_ZTVN6Halide7Runtime8Internal15Synchronization25broadcast_parking_controlE, i64 0, inrange i32 0, i64 2) to i32 (...)**), i32 (...)*** %3, align 8, !tbaa !48
  %cond_state2.i.i = getelementptr inbounds %"struct.Halide::Runtime::Internal::Synchronization::wait_parking_control", %"struct.Halide::Runtime::Internal::Synchronization::wait_parking_control"* %control.i, i64 0, i32 1
  store i64* %state.i, i64** %cond_state2.i.i, align 8, !tbaa !107
  %mutex3.i.i = getelementptr inbounds %"struct.Halide::Runtime::Internal::Synchronization::wait_parking_control", %"struct.Halide::Runtime::Internal::Synchronization::wait_parking_control"* %control.i, i64 0, i32 2
  store %"class.Halide::Runtime::Internal::Synchronization::word_lock"* %2, %"class.Halide::Runtime::Internal::Synchronization::word_lock"** %mutex3.i.i, align 8, !tbaa !109
  %4 = getelementptr inbounds %"struct.Halide::Runtime::Internal::Synchronization::wait_parking_control", %"struct.Halide::Runtime::Internal::Synchronization::wait_parking_control"* %control.i, i64 0, i32 0
  %5 = ptrtoint %struct.halide_mutex* %cond to i64
  %call.i = call i32 @_ZN6Halide7Runtime8Internal15Synchronization15parking_control14unpark_requeueEyyy(%"struct.Halide::Runtime::Internal::Synchronization::parking_control"* nonnull dereferenceable(8) %4, i64 %5, i64 %0, i64 0) #14
  call void @llvm.lifetime.end.p0i8(i64 24, i8* nonnull %1) #11
  br label %_ZN6Halide7Runtime8Internal15Synchronization9fast_cond9broadcastEv.exit

_ZN6Halide7Runtime8Internal15Synchronization9fast_cond9broadcastEv.exit: ; preds = %if.end.i, %entry
  ret void
}

; Function Attrs: nounwind mustprogress
define weak zeroext i1 @halide_default_semaphore_try_acquire(%struct.halide_semaphore_t* %s, i32 %n) #0 {
entry:
  %cmp = icmp eq i32 %n, 0
  br i1 %cmp, label %return, label %if.end

if.end:                                           ; preds = %entry
  %value = bitcast %struct.halide_semaphore_t* %s to i32*
  %0 = load atomic i32, i32* %value acquire, align 4
  %sub12 = sub nsw i32 %0, %n
  %cmp113 = icmp sgt i32 %sub12, -1
  br i1 %cmp113, label %land.rhs, label %return

land.rhs:                                         ; preds = %if.end, %_ZN6Halide7Runtime8Internal15Synchronization12_GLOBAL__N_130atomic_cas_weak_relacq_relaxedIiEEbPT_S6_S6_.exit
  %sub15 = phi i32 [ %sub, %_ZN6Halide7Runtime8Internal15Synchronization12_GLOBAL__N_130atomic_cas_weak_relacq_relaxedIiEEbPT_S6_S6_.exit ], [ %sub12, %if.end ]
  %expected.014 = phi i32 [ %3, %_ZN6Halide7Runtime8Internal15Synchronization12_GLOBAL__N_130atomic_cas_weak_relacq_relaxedIiEEbPT_S6_S6_.exit ], [ %0, %if.end ]
  %1 = cmpxchg weak i32* %value, i32 %expected.014, i32 %sub15 acq_rel monotonic
  %2 = extractvalue { i32, i1 } %1, 1
  br i1 %2, label %return.loopexit, label %_ZN6Halide7Runtime8Internal15Synchronization12_GLOBAL__N_130atomic_cas_weak_relacq_relaxedIiEEbPT_S6_S6_.exit

_ZN6Halide7Runtime8Internal15Synchronization12_GLOBAL__N_130atomic_cas_weak_relacq_relaxedIiEEbPT_S6_S6_.exit: ; preds = %land.rhs
  %3 = extractvalue { i32, i1 } %1, 0
  %sub = sub nsw i32 %3, %n
  %cmp1 = icmp sgt i32 %sub, -1
  br i1 %cmp1, label %land.rhs, label %return.loopexit

return.loopexit:                                  ; preds = %_ZN6Halide7Runtime8Internal15Synchronization12_GLOBAL__N_130atomic_cas_weak_relacq_relaxedIiEEbPT_S6_S6_.exit, %land.rhs
  %4 = extractvalue { i32, i1 } %1, 1
  br label %return

return:                                           ; preds = %return.loopexit, %if.end, %entry
  %retval.0 = phi i1 [ true, %entry ], [ false, %if.end ], [ %4, %return.loopexit ]
  ret i1 %retval.0
}

; Function Attrs: nounwind
define weak void @halide_cond_wait(%struct.halide_mutex* %cond, %struct.halide_mutex* %mutex) local_unnamed_addr #4 {
entry:
  %control.i.i.i = alloca %"struct.Halide::Runtime::Internal::Synchronization::mutex_parking_control", align 8
  %control.i = alloca %"struct.Halide::Runtime::Internal::Synchronization::wait_parking_control", align 8
  %0 = bitcast %"struct.Halide::Runtime::Internal::Synchronization::wait_parking_control"* %control.i to i8*
  call void @llvm.lifetime.start.p0i8(i64 24, i8* nonnull %0) #11
  %state.i = getelementptr %struct.halide_mutex, %struct.halide_mutex* %cond, i64 0, i32 0, i64 0
  %1 = getelementptr inbounds %"struct.Halide::Runtime::Internal::Synchronization::wait_parking_control", %"struct.Halide::Runtime::Internal::Synchronization::wait_parking_control"* %control.i, i64 0, i32 0, i32 0
  store i32 (...)** bitcast (i8** getelementptr inbounds ({ [6 x i8*] }, { [6 x i8*] }* @_ZTVN6Halide7Runtime8Internal15Synchronization20wait_parking_controlE, i64 0, inrange i32 0, i64 2) to i32 (...)**), i32 (...)*** %1, align 8, !tbaa !48
  %cond_state2.i.i = getelementptr inbounds %"struct.Halide::Runtime::Internal::Synchronization::wait_parking_control", %"struct.Halide::Runtime::Internal::Synchronization::wait_parking_control"* %control.i, i64 0, i32 1
  store i64* %state.i, i64** %cond_state2.i.i, align 8, !tbaa !110
  %mutex3.i.i = getelementptr inbounds %"struct.Halide::Runtime::Internal::Synchronization::wait_parking_control", %"struct.Halide::Runtime::Internal::Synchronization::wait_parking_control"* %control.i, i64 0, i32 2
  %2 = bitcast %"class.Halide::Runtime::Internal::Synchronization::word_lock"** %mutex3.i.i to %struct.halide_mutex**
  store %struct.halide_mutex* %mutex, %struct.halide_mutex** %2, align 8, !tbaa !112
  %3 = getelementptr inbounds %"struct.Halide::Runtime::Internal::Synchronization::wait_parking_control", %"struct.Halide::Runtime::Internal::Synchronization::wait_parking_control"* %control.i, i64 0, i32 0
  %4 = ptrtoint %struct.halide_mutex* %cond to i64
  %call.i = call i64 @_ZN6Halide7Runtime8Internal15Synchronization15parking_control4parkEy(%"struct.Halide::Runtime::Internal::Synchronization::parking_control"* nonnull dereferenceable(8) %3, i64 %4) #14
  %5 = ptrtoint %struct.halide_mutex* %mutex to i64
  %cmp.not.i = icmp eq i64 %call.i, %5
  %6 = getelementptr %struct.halide_mutex, %struct.halide_mutex* %mutex, i64 0, i32 0, i64 0
  br i1 %cmp.not.i, label %if.else.i, label %if.then.i

if.then.i:                                        ; preds = %entry
  %7 = cmpxchg weak i64* %6, i64 0, i64 1 acquire monotonic
  %8 = extractvalue { i64, i1 } %7, 1
  br i1 %8, label %_ZN6Halide7Runtime8Internal15Synchronization9fast_cond4waitEPNS2_10fast_mutexE.exit, label %if.then.i.i

if.then.i.i:                                      ; preds = %if.then.i
  %9 = load atomic i64, i64* %6 monotonic, align 8
  %10 = bitcast %"struct.Halide::Runtime::Internal::Synchronization::mutex_parking_control"* %control.i.i.i to i8*
  %11 = getelementptr inbounds %"struct.Halide::Runtime::Internal::Synchronization::mutex_parking_control", %"struct.Halide::Runtime::Internal::Synchronization::mutex_parking_control"* %control.i.i.i, i64 0, i32 0, i32 0
  %lock_state2.i.i.i.i = getelementptr inbounds %"struct.Halide::Runtime::Internal::Synchronization::mutex_parking_control", %"struct.Halide::Runtime::Internal::Synchronization::mutex_parking_control"* %control.i.i.i, i64 0, i32 1
  %12 = getelementptr inbounds %"struct.Halide::Runtime::Internal::Synchronization::mutex_parking_control", %"struct.Halide::Runtime::Internal::Synchronization::mutex_parking_control"* %control.i.i.i, i64 0, i32 0
  br label %while.cond.outer.i.i.i

while.cond.outer.i.i.i:                           ; preds = %while.cond.outer.i.i.i.backedge, %if.then.i.i
  %expected.0.ph.i.i.i = phi i64 [ %9, %if.then.i.i ], [ %expected.0.ph.i.i.i.be, %while.cond.outer.i.i.i.backedge ]
  %spinner.sroa.0.0.ph.i.i.i = phi i32 [ 40, %if.then.i.i ], [ %spinner.sroa.0.0.ph.i.i.i.be, %while.cond.outer.i.i.i.backedge ]
  %and55.i.i.i = and i64 %expected.0.ph.i.i.i, 1
  %tobool.not56.i.i.i = icmp eq i64 %and55.i.i.i, 0
  br i1 %tobool.not56.i.i.i, label %if.then.i.i.i, label %if.end4.i.i.i

if.then.i.i.i:                                    ; preds = %while.cond.outer.i.i.i, %_ZN6Halide7Runtime8Internal15Synchronization12_GLOBAL__N_131atomic_cas_weak_acquire_relaxedEPyS4_S4_.exit.i.i.i
  %expected.057.i.i.i = phi i64 [ %15, %_ZN6Halide7Runtime8Internal15Synchronization12_GLOBAL__N_131atomic_cas_weak_acquire_relaxedEPyS4_S4_.exit.i.i.i ], [ %expected.0.ph.i.i.i, %while.cond.outer.i.i.i ]
  %or.i.i.i = or i64 %expected.057.i.i.i, 1
  %13 = cmpxchg weak i64* %6, i64 %expected.057.i.i.i, i64 %or.i.i.i acquire monotonic
  %14 = extractvalue { i64, i1 } %13, 1
  br i1 %14, label %_ZN6Halide7Runtime8Internal15Synchronization9fast_cond4waitEPNS2_10fast_mutexE.exit, label %_ZN6Halide7Runtime8Internal15Synchronization12_GLOBAL__N_131atomic_cas_weak_acquire_relaxedEPyS4_S4_.exit.i.i.i

_ZN6Halide7Runtime8Internal15Synchronization12_GLOBAL__N_131atomic_cas_weak_acquire_relaxedEPyS4_S4_.exit.i.i.i: ; preds = %if.then.i.i.i
  %15 = extractvalue { i64, i1 } %13, 0
  %and.i.i.i = and i64 %15, 1
  %tobool.not.i.i.i = icmp eq i64 %and.i.i.i, 0
  br i1 %tobool.not.i.i.i, label %if.then.i.i.i, label %if.end4.i.i.i.loopexit

if.end4.i.i.i.loopexit:                           ; preds = %_ZN6Halide7Runtime8Internal15Synchronization12_GLOBAL__N_131atomic_cas_weak_acquire_relaxedEPyS4_S4_.exit.i.i.i
  %16 = extractvalue { i64, i1 } %13, 0
  br label %if.end4.i.i.i

if.end4.i.i.i:                                    ; preds = %if.end4.i.i.i.loopexit, %while.cond.outer.i.i.i
  %expected.0.lcssa.i.i.i = phi i64 [ %expected.0.ph.i.i.i, %while.cond.outer.i.i.i ], [ %16, %if.end4.i.i.i.loopexit ]
  %cmp.i.i.i.i = icmp sgt i32 %spinner.sroa.0.0.ph.i.i.i, 0
  br i1 %cmp.i.i.i.i, label %_ZN6Halide7Runtime8Internal15Synchronization12spin_control11should_spinEv.exit.i.i.i, label %if.end8.i.i.i

_ZN6Halide7Runtime8Internal15Synchronization12spin_control11should_spinEv.exit.i.i.i: ; preds = %if.end4.i.i.i
  %cmp4.i.not.i.i.i = icmp eq i32 %spinner.sroa.0.0.ph.i.i.i, 1
  br i1 %cmp4.i.not.i.i.i, label %if.end8.i.i.i, label %if.then6.i.i.i

if.then6.i.i.i:                                   ; preds = %_ZN6Halide7Runtime8Internal15Synchronization12spin_control11should_spinEv.exit.i.i.i
  %dec.i.i.i.i = add nsw i32 %spinner.sroa.0.0.ph.i.i.i, -1
  call void @halide_thread_yield() #14
  %17 = load atomic i64, i64* %6 monotonic, align 8
  br label %while.cond.outer.i.i.i.backedge

if.end8.i.i.i:                                    ; preds = %_ZN6Halide7Runtime8Internal15Synchronization12spin_control11should_spinEv.exit.i.i.i, %if.end4.i.i.i
  %spinner.sroa.0.152.i.i.i = phi i32 [ 0, %_ZN6Halide7Runtime8Internal15Synchronization12spin_control11should_spinEv.exit.i.i.i ], [ %spinner.sroa.0.0.ph.i.i.i, %if.end4.i.i.i ]
  %and9.i.i.i = and i64 %expected.0.lcssa.i.i.i, 2
  %cmp.i.i.i = icmp eq i64 %and9.i.i.i, 0
  br i1 %cmp.i.i.i, label %if.then10.i.i.i, label %if.end19.i.i.i

if.then10.i.i.i:                                  ; preds = %if.end8.i.i.i
  %or12.i.i.i = or i64 %expected.0.lcssa.i.i.i, 2
  %18 = cmpxchg weak i64* %6, i64 %expected.0.lcssa.i.i.i, i64 %or12.i.i.i monotonic monotonic
  %19 = extractvalue { i64, i1 } %18, 1
  br i1 %19, label %if.end19.i.i.i, label %_ZN6Halide7Runtime8Internal15Synchronization12_GLOBAL__N_131atomic_cas_weak_relaxed_relaxedEPyS4_S4_.exit.i.i.i

_ZN6Halide7Runtime8Internal15Synchronization12_GLOBAL__N_131atomic_cas_weak_relaxed_relaxedEPyS4_S4_.exit.i.i.i: ; preds = %if.then10.i.i.i
  %20 = extractvalue { i64, i1 } %18, 0
  br label %while.cond.outer.i.i.i.backedge

if.end19.i.i.i:                                   ; preds = %if.then10.i.i.i, %if.end8.i.i.i
  call void @llvm.lifetime.start.p0i8(i64 16, i8* nonnull %10) #11
  store i32 (...)** bitcast (i8** getelementptr inbounds ({ [6 x i8*] }, { [6 x i8*] }* @_ZTVN6Halide7Runtime8Internal15Synchronization21mutex_parking_controlE, i64 0, inrange i32 0, i64 2) to i32 (...)**), i32 (...)*** %11, align 8, !tbaa !48
  store i64* %6, i64** %lock_state2.i.i.i.i, align 8, !tbaa !50
  %call21.i.i.i = call i64 @_ZN6Halide7Runtime8Internal15Synchronization15parking_control4parkEy(%"struct.Halide::Runtime::Internal::Synchronization::parking_control"* nonnull dereferenceable(8) %12, i64 %5) #14
  %cmp22.i.i.i = icmp eq i64 %call21.i.i.i, %5
  br i1 %cmp22.i.i.i, label %cleanup30.critedge.i.i.i, label %if.end24.i.i.i

if.end24.i.i.i:                                   ; preds = %if.end19.i.i.i
  %21 = load atomic i64, i64* %6 monotonic, align 8
  call void @llvm.lifetime.end.p0i8(i64 16, i8* nonnull %10) #11
  br label %while.cond.outer.i.i.i.backedge

while.cond.outer.i.i.i.backedge:                  ; preds = %if.end24.i.i.i, %_ZN6Halide7Runtime8Internal15Synchronization12_GLOBAL__N_131atomic_cas_weak_relaxed_relaxedEPyS4_S4_.exit.i.i.i, %if.then6.i.i.i
  %expected.0.ph.i.i.i.be = phi i64 [ %20, %_ZN6Halide7Runtime8Internal15Synchronization12_GLOBAL__N_131atomic_cas_weak_relaxed_relaxedEPyS4_S4_.exit.i.i.i ], [ %21, %if.end24.i.i.i ], [ %17, %if.then6.i.i.i ]
  %spinner.sroa.0.0.ph.i.i.i.be = phi i32 [ %spinner.sroa.0.152.i.i.i, %_ZN6Halide7Runtime8Internal15Synchronization12_GLOBAL__N_131atomic_cas_weak_relaxed_relaxedEPyS4_S4_.exit.i.i.i ], [ 40, %if.end24.i.i.i ], [ %dec.i.i.i.i, %if.then6.i.i.i ]
  br label %while.cond.outer.i.i.i

cleanup30.critedge.i.i.i:                         ; preds = %if.end19.i.i.i
  call void @llvm.lifetime.end.p0i8(i64 16, i8* nonnull %10) #11
  br label %_ZN6Halide7Runtime8Internal15Synchronization9fast_cond4waitEPNS2_10fast_mutexE.exit

if.else.i:                                        ; preds = %entry
  %22 = load atomic i64, i64* %6 monotonic, align 8
  %and.i = and i64 %22, 1
  %tobool.not.i = icmp eq i64 %and.i, 0
  br i1 %tobool.not.i, label %if.then2.i, label %_ZN6Halide7Runtime8Internal15Synchronization9fast_cond4waitEPNS2_10fast_mutexE.exit

if.then2.i:                                       ; preds = %if.else.i
  call void @halide_print(i8* null, i8* getelementptr inbounds ([124 x i8], [124 x i8]* @.str.5.6, i64 0, i64 0)) #14
  call void @abort() #14
  br label %_ZN6Halide7Runtime8Internal15Synchronization9fast_cond4waitEPNS2_10fast_mutexE.exit

_ZN6Halide7Runtime8Internal15Synchronization9fast_cond4waitEPNS2_10fast_mutexE.exit: ; preds = %if.then.i.i.i, %if.then2.i, %if.else.i, %cleanup30.critedge.i.i.i, %if.then.i
  call void @llvm.lifetime.end.p0i8(i64 24, i8* nonnull %0) #11
  ret void
}

; Function Attrs: nounwind mustprogress
define weak i32 @halide_do_loop_task(i8* %user_context, i32 (i8*, i32, i32, i8*, i8*)* %f, i32 %min, i32 %size, i8* %closure, i8* %task_parent) local_unnamed_addr #0 {
entry:
  %0 = load i32 (i8*, i32 (i8*, i32, i32, i8*, i8*)*, i32, i32, i8*, i8*)*, i32 (i8*, i32 (i8*, i32, i32, i8*, i8*)*, i32, i32, i8*, i8*)** @_ZN6Halide7Runtime8Internal19custom_do_loop_taskE, align 8, !tbaa !14
  %call = tail call i32 %0(i8* %user_context, i32 (i8*, i32, i32, i8*, i8*)* %f, i32 %min, i32 %size, i8* %closure, i8* %task_parent) #14
  ret i32 %call
}

; Function Attrs: nounwind mustprogress
define weak i32 @halide_do_task(i8* %user_context, i32 (i8*, i32, i8*)* %f, i32 %idx, i8* %closure) local_unnamed_addr #0 {
entry:
  %0 = load i32 (i8*, i32 (i8*, i32, i8*)*, i32, i8*)*, i32 (i8*, i32 (i8*, i32, i8*)*, i32, i8*)** @_ZN6Halide7Runtime8Internal14custom_do_taskE, align 8, !tbaa !14
  %call = tail call i32 %0(i8* %user_context, i32 (i8*, i32, i8*)* %f, i32 %idx, i8* %closure) #14
  ret i32 %call
}

; Function Attrs: nounwind
define linkonce i64 @_ZN6Halide7Runtime8Internal15Synchronization15parking_control4parkEy(%"struct.Halide::Runtime::Internal::Synchronization::parking_control"* nonnull dereferenceable(8) %this, i64 %addr) local_unnamed_addr #4 align 2 {
entry:
  %queue_data = alloca %"struct.Halide::Runtime::Internal::Synchronization::queue_data", align 8
  %action = alloca %"struct.Halide::Runtime::Internal::Synchronization::validate_action", align 8
  %0 = bitcast %"struct.Halide::Runtime::Internal::Synchronization::queue_data"* %queue_data to i8*
  call void @llvm.lifetime.start.p0i8(i64 160, i8* nonnull %0) #11
  %should_park.i.i = getelementptr inbounds %"struct.Halide::Runtime::Internal::Synchronization::queue_data", %"struct.Halide::Runtime::Internal::Synchronization::queue_data"* %queue_data, i64 0, i32 0, i32 2
  store i8 0, i8* %should_park.i.i, align 8, !tbaa !98
  %mutex2.i.i = getelementptr inbounds %"struct.Halide::Runtime::Internal::Synchronization::queue_data", %"struct.Halide::Runtime::Internal::Synchronization::queue_data"* %queue_data, i64 0, i32 0, i32 0
  %call.i.i = call i32 @pthread_mutex_init(%struct.pthread_mutex_t* nonnull %mutex2.i.i, i8* null) #14
  %condvar3.i.i = getelementptr inbounds %"struct.Halide::Runtime::Internal::Synchronization::queue_data", %"struct.Halide::Runtime::Internal::Synchronization::queue_data"* %queue_data, i64 0, i32 0, i32 1
  %call4.i.i = call i32 @pthread_cond_init(%struct.pthread_mutex_t* nonnull %condvar3.i.i, i8* null) #14
  %sleep_address.i = getelementptr inbounds %"struct.Halide::Runtime::Internal::Synchronization::queue_data", %"struct.Halide::Runtime::Internal::Synchronization::queue_data"* %queue_data, i64 0, i32 1
  store i64 0, i64* %sleep_address.i, align 8, !tbaa !113
  %next.i = getelementptr inbounds %"struct.Halide::Runtime::Internal::Synchronization::queue_data", %"struct.Halide::Runtime::Internal::Synchronization::queue_data"* %queue_data, i64 0, i32 2
  store %"struct.Halide::Runtime::Internal::Synchronization::queue_data"* null, %"struct.Halide::Runtime::Internal::Synchronization::queue_data"** %next.i, align 8, !tbaa !88
  %unpark_info.i = getelementptr inbounds %"struct.Halide::Runtime::Internal::Synchronization::queue_data", %"struct.Halide::Runtime::Internal::Synchronization::queue_data"* %queue_data, i64 0, i32 3
  store i64 0, i64* %unpark_info.i, align 8, !tbaa !97
  %call = call nonnull align 8 dereferenceable(24) %"struct.Halide::Runtime::Internal::Synchronization::hash_bucket"* @_ZN6Halide7Runtime8Internal15Synchronization11lock_bucketEy(i64 %addr) #15
  %1 = getelementptr inbounds %"struct.Halide::Runtime::Internal::Synchronization::validate_action", %"struct.Halide::Runtime::Internal::Synchronization::validate_action"* %action, i64 0, i32 0
  call void @llvm.lifetime.start.p0i8(i64 16, i8* nonnull %1) #11
  store i8 0, i8* %1, align 8, !tbaa !114
  %invalid_unpark_info.i = getelementptr inbounds %"struct.Halide::Runtime::Internal::Synchronization::validate_action", %"struct.Halide::Runtime::Internal::Synchronization::validate_action"* %action, i64 0, i32 2
  store i64 0, i64* %invalid_unpark_info.i, align 8, !tbaa !116
  %2 = bitcast %"struct.Halide::Runtime::Internal::Synchronization::parking_control"* %this to i1 (%"struct.Halide::Runtime::Internal::Synchronization::parking_control"*, %"struct.Halide::Runtime::Internal::Synchronization::validate_action"*)***
  %vtable = load i1 (%"struct.Halide::Runtime::Internal::Synchronization::parking_control"*, %"struct.Halide::Runtime::Internal::Synchronization::validate_action"*)**, i1 (%"struct.Halide::Runtime::Internal::Synchronization::parking_control"*, %"struct.Halide::Runtime::Internal::Synchronization::validate_action"*)*** %2, align 8, !tbaa !48
  %3 = load i1 (%"struct.Halide::Runtime::Internal::Synchronization::parking_control"*, %"struct.Halide::Runtime::Internal::Synchronization::validate_action"*)*, i1 (%"struct.Halide::Runtime::Internal::Synchronization::parking_control"*, %"struct.Halide::Runtime::Internal::Synchronization::validate_action"*)** %vtable, align 8
  %call2 = call zeroext i1 %3(%"struct.Halide::Runtime::Internal::Synchronization::parking_control"* nonnull dereferenceable(8) %this, %"struct.Halide::Runtime::Internal::Synchronization::validate_action"* nonnull align 8 dereferenceable(16) %action) #14
  br i1 %call2, label %if.end, label %if.then

if.then:                                          ; preds = %entry
  %state.i = getelementptr inbounds %"struct.Halide::Runtime::Internal::Synchronization::hash_bucket", %"struct.Halide::Runtime::Internal::Synchronization::hash_bucket"* %call, i64 0, i32 0, i32 0
  %4 = atomicrmw and i64* %state.i, i64 -2 release
  %and.i = and i64 %4, 2
  %cmp.i = icmp ne i64 %and.i, 0
  %cmp3.not.i = icmp ult i64 %4, 4
  %or.cond.i = or i1 %cmp3.not.i, %cmp.i
  br i1 %or.cond.i, label %cleanup, label %if.then.i

if.then.i:                                        ; preds = %if.then
  %mutex = getelementptr inbounds %"struct.Halide::Runtime::Internal::Synchronization::hash_bucket", %"struct.Halide::Runtime::Internal::Synchronization::hash_bucket"* %call, i64 0, i32 0
  call void @_ZN6Halide7Runtime8Internal15Synchronization9word_lock11unlock_fullEv(%"class.Halide::Runtime::Internal::Synchronization::word_lock"* nonnull dereferenceable(8) %mutex) #14
  br label %cleanup

if.end:                                           ; preds = %entry
  store %"struct.Halide::Runtime::Internal::Synchronization::queue_data"* null, %"struct.Halide::Runtime::Internal::Synchronization::queue_data"** %next.i, align 8, !tbaa !88
  store i64 %addr, i64* %sleep_address.i, align 8, !tbaa !113
  store i8 1, i8* %should_park.i.i, align 8, !tbaa !98
  %head = getelementptr inbounds %"struct.Halide::Runtime::Internal::Synchronization::hash_bucket", %"struct.Halide::Runtime::Internal::Synchronization::hash_bucket"* %call, i64 0, i32 1
  %5 = load %"struct.Halide::Runtime::Internal::Synchronization::queue_data"*, %"struct.Halide::Runtime::Internal::Synchronization::queue_data"** %head, align 8, !tbaa !117
  %cmp.not = icmp eq %"struct.Halide::Runtime::Internal::Synchronization::queue_data"* %5, null
  %tail = getelementptr inbounds %"struct.Halide::Runtime::Internal::Synchronization::hash_bucket", %"struct.Halide::Runtime::Internal::Synchronization::hash_bucket"* %call, i64 0, i32 2
  %6 = load %"struct.Halide::Runtime::Internal::Synchronization::queue_data"*, %"struct.Halide::Runtime::Internal::Synchronization::queue_data"** %tail, align 8
  %next4 = getelementptr inbounds %"struct.Halide::Runtime::Internal::Synchronization::queue_data", %"struct.Halide::Runtime::Internal::Synchronization::queue_data"* %6, i64 0, i32 2
  %head.sink = select i1 %cmp.not, %"struct.Halide::Runtime::Internal::Synchronization::queue_data"** %head, %"struct.Halide::Runtime::Internal::Synchronization::queue_data"** %next4
  store %"struct.Halide::Runtime::Internal::Synchronization::queue_data"* %queue_data, %"struct.Halide::Runtime::Internal::Synchronization::queue_data"** %head.sink, align 8, !tbaa !14
  store %"struct.Halide::Runtime::Internal::Synchronization::queue_data"* %queue_data, %"struct.Halide::Runtime::Internal::Synchronization::queue_data"** %tail, align 8, !tbaa !93
  %state.i23 = getelementptr inbounds %"struct.Halide::Runtime::Internal::Synchronization::hash_bucket", %"struct.Halide::Runtime::Internal::Synchronization::hash_bucket"* %call, i64 0, i32 0, i32 0
  %7 = atomicrmw and i64* %state.i23, i64 -2 release
  %and.i24 = and i64 %7, 2
  %cmp.i25 = icmp ne i64 %and.i24, 0
  %cmp3.not.i26 = icmp ult i64 %7, 4
  %or.cond.i27 = or i1 %cmp3.not.i26, %cmp.i25
  br i1 %or.cond.i27, label %_ZN6Halide7Runtime8Internal15Synchronization9word_lock6unlockEv.exit29, label %if.then.i28

if.then.i28:                                      ; preds = %if.end
  %mutex8 = getelementptr inbounds %"struct.Halide::Runtime::Internal::Synchronization::hash_bucket", %"struct.Halide::Runtime::Internal::Synchronization::hash_bucket"* %call, i64 0, i32 0
  call void @_ZN6Halide7Runtime8Internal15Synchronization9word_lock11unlock_fullEv(%"class.Halide::Runtime::Internal::Synchronization::word_lock"* nonnull dereferenceable(8) %mutex8) #14
  br label %_ZN6Halide7Runtime8Internal15Synchronization9word_lock6unlockEv.exit29

_ZN6Halide7Runtime8Internal15Synchronization9word_lock6unlockEv.exit29: ; preds = %if.then.i28, %if.end
  %8 = bitcast %"struct.Halide::Runtime::Internal::Synchronization::parking_control"* %this to void (%"struct.Halide::Runtime::Internal::Synchronization::parking_control"*)***
  %vtable9 = load void (%"struct.Halide::Runtime::Internal::Synchronization::parking_control"*)**, void (%"struct.Halide::Runtime::Internal::Synchronization::parking_control"*)*** %8, align 8, !tbaa !48
  %vfn10 = getelementptr inbounds void (%"struct.Halide::Runtime::Internal::Synchronization::parking_control"*)*, void (%"struct.Halide::Runtime::Internal::Synchronization::parking_control"*)** %vtable9, i64 1
  %9 = load void (%"struct.Halide::Runtime::Internal::Synchronization::parking_control"*)*, void (%"struct.Halide::Runtime::Internal::Synchronization::parking_control"*)** %vfn10, align 8
  call void %9(%"struct.Halide::Runtime::Internal::Synchronization::parking_control"* nonnull dereferenceable(8) %this) #14
  %call.i = call i32 @pthread_mutex_lock(%struct.pthread_mutex_t* nonnull %mutex2.i.i) #14
  %10 = load i8, i8* %should_park.i.i, align 8, !tbaa !98, !range !21
  %tobool.not6.i = icmp eq i8 %10, 0
  br i1 %tobool.not6.i, label %_ZN6Halide7Runtime8Internal15Synchronization13thread_parker4parkEv.exit, label %while.body.i

while.body.i:                                     ; preds = %_ZN6Halide7Runtime8Internal15Synchronization9word_lock6unlockEv.exit29, %while.body.i
  %call3.i = call i32 @pthread_cond_wait(%struct.pthread_mutex_t* nonnull %condvar3.i.i, %struct.pthread_mutex_t* nonnull %mutex2.i.i) #14
  %11 = load i8, i8* %should_park.i.i, align 8, !tbaa !98, !range !21
  %tobool.not.i = icmp eq i8 %11, 0
  br i1 %tobool.not.i, label %_ZN6Halide7Runtime8Internal15Synchronization13thread_parker4parkEv.exit, label %while.body.i, !llvm.loop !106

_ZN6Halide7Runtime8Internal15Synchronization13thread_parker4parkEv.exit: ; preds = %while.body.i, %_ZN6Halide7Runtime8Internal15Synchronization9word_lock6unlockEv.exit29
  %call5.i = call i32 @pthread_mutex_unlock(%struct.pthread_mutex_t* nonnull %mutex2.i.i) #14
  br label %cleanup

cleanup:                                          ; preds = %_ZN6Halide7Runtime8Internal15Synchronization13thread_parker4parkEv.exit, %if.then.i, %if.then
  %unpark_info.i.sink = phi i64* [ %unpark_info.i, %_ZN6Halide7Runtime8Internal15Synchronization13thread_parker4parkEv.exit ], [ %invalid_unpark_info.i, %if.then ], [ %invalid_unpark_info.i, %if.then.i ]
  %12 = load i64, i64* %unpark_info.i.sink, align 8, !tbaa !22
  call void @llvm.lifetime.end.p0i8(i64 16, i8* nonnull %1) #11
  %call.i.i22 = call i32 @pthread_cond_destroy(%struct.pthread_mutex_t* nonnull %condvar3.i.i) #14
  %call2.i.i = call i32 @pthread_mutex_destroy(%struct.pthread_mutex_t* nonnull %mutex2.i.i) #14
  call void @llvm.lifetime.end.p0i8(i64 160, i8* nonnull %0) #11
  ret i64 %12
}

; Function Attrs: nounwind willreturn mustprogress
define linkonce_odr zeroext i1 @_ZN6Halide7Runtime8Internal15Synchronization20wait_parking_control8validateERNS2_15validate_actionE(%"struct.Halide::Runtime::Internal::Synchronization::wait_parking_control"* nonnull dereferenceable(24) %this, %"struct.Halide::Runtime::Internal::Synchronization::validate_action"* nonnull align 8 dereferenceable(16) %action) unnamed_addr #2 align 2 {
entry:
  %cond_state = getelementptr inbounds %"struct.Halide::Runtime::Internal::Synchronization::wait_parking_control", %"struct.Halide::Runtime::Internal::Synchronization::wait_parking_control"* %this, i64 0, i32 1
  %0 = load i64*, i64** %cond_state, align 8, !tbaa !110
  %1 = load atomic i64, i64* %0 monotonic, align 8
  %cmp = icmp eq i64 %1, 0
  %mutex = getelementptr inbounds %"struct.Halide::Runtime::Internal::Synchronization::wait_parking_control", %"struct.Halide::Runtime::Internal::Synchronization::wait_parking_control"* %this, i64 0, i32 2
  %2 = load %"class.Halide::Runtime::Internal::Synchronization::word_lock"*, %"class.Halide::Runtime::Internal::Synchronization::word_lock"** %mutex, align 8, !tbaa !112
  %3 = ptrtoint %"class.Halide::Runtime::Internal::Synchronization::word_lock"* %2 to i64
  br i1 %cmp, label %if.then, label %if.else

if.then:                                          ; preds = %entry
  store atomic i64 %3, i64* %0 monotonic, align 8
  br label %cleanup

if.else:                                          ; preds = %entry
  %cmp4.not = icmp eq i64 %1, %3
  br i1 %cmp4.not, label %cleanup, label %if.then5

if.then5:                                         ; preds = %if.else
  %invalid_unpark_info = getelementptr inbounds %"struct.Halide::Runtime::Internal::Synchronization::validate_action", %"struct.Halide::Runtime::Internal::Synchronization::validate_action"* %action, i64 0, i32 2
  store i64 %3, i64* %invalid_unpark_info, align 8, !tbaa !116
  br label %cleanup

cleanup:                                          ; preds = %if.then5, %if.else, %if.then
  %retval.0 = phi i1 [ false, %if.then5 ], [ true, %if.else ], [ true, %if.then ]
  ret i1 %retval.0
}

; Function Attrs: nounwind
define linkonce_odr void @_ZN6Halide7Runtime8Internal15Synchronization20wait_parking_control12before_sleepEv(%"struct.Halide::Runtime::Internal::Synchronization::wait_parking_control"* nonnull dereferenceable(24) %this) unnamed_addr #4 align 2 {
entry:
  %control.i.i = alloca %"struct.Halide::Runtime::Internal::Synchronization::mutex_parking_control", align 8
  %mutex = getelementptr inbounds %"struct.Halide::Runtime::Internal::Synchronization::wait_parking_control", %"struct.Halide::Runtime::Internal::Synchronization::wait_parking_control"* %this, i64 0, i32 2
  %0 = load %"class.Halide::Runtime::Internal::Synchronization::word_lock"*, %"class.Halide::Runtime::Internal::Synchronization::word_lock"** %mutex, align 8, !tbaa !112
  %state.i = getelementptr inbounds %"class.Halide::Runtime::Internal::Synchronization::word_lock", %"class.Halide::Runtime::Internal::Synchronization::word_lock"* %0, i64 0, i32 0
  %1 = cmpxchg weak i64* %state.i, i64 1, i64 0 release monotonic
  %2 = extractvalue { i64, i1 } %1, 1
  br i1 %2, label %_ZN6Halide7Runtime8Internal15Synchronization10fast_mutex6unlockEv.exit, label %if.then.i

if.then.i:                                        ; preds = %entry
  %3 = cmpxchg i64* %state.i, i64 1, i64 0 release monotonic
  %4 = extractvalue { i64, i1 } %3, 1
  br i1 %4, label %_ZN6Halide7Runtime8Internal15Synchronization10fast_mutex6unlockEv.exit, label %if.end.i.i

if.end.i.i:                                       ; preds = %if.then.i
  %5 = bitcast %"struct.Halide::Runtime::Internal::Synchronization::mutex_parking_control"* %control.i.i to i8*
  call void @llvm.lifetime.start.p0i8(i64 16, i8* nonnull %5) #11
  %6 = getelementptr inbounds %"struct.Halide::Runtime::Internal::Synchronization::mutex_parking_control", %"struct.Halide::Runtime::Internal::Synchronization::mutex_parking_control"* %control.i.i, i64 0, i32 0, i32 0
  store i32 (...)** bitcast (i8** getelementptr inbounds ({ [6 x i8*] }, { [6 x i8*] }* @_ZTVN6Halide7Runtime8Internal15Synchronization21mutex_parking_controlE, i64 0, inrange i32 0, i64 2) to i32 (...)**), i32 (...)*** %6, align 8, !tbaa !48
  %lock_state2.i.i.i = getelementptr inbounds %"struct.Halide::Runtime::Internal::Synchronization::mutex_parking_control", %"struct.Halide::Runtime::Internal::Synchronization::mutex_parking_control"* %control.i.i, i64 0, i32 1
  store i64* %state.i, i64** %lock_state2.i.i.i, align 8, !tbaa !50
  %7 = getelementptr inbounds %"struct.Halide::Runtime::Internal::Synchronization::mutex_parking_control", %"struct.Halide::Runtime::Internal::Synchronization::mutex_parking_control"* %control.i.i, i64 0, i32 0
  %8 = ptrtoint %"class.Halide::Runtime::Internal::Synchronization::word_lock"* %0 to i64
  %call3.i.i = call i64 @_ZN6Halide7Runtime8Internal15Synchronization15parking_control10unpark_oneEy(%"struct.Halide::Runtime::Internal::Synchronization::parking_control"* nonnull dereferenceable(8) %7, i64 %8) #14
  call void @llvm.lifetime.end.p0i8(i64 16, i8* nonnull %5) #11
  br label %_ZN6Halide7Runtime8Internal15Synchronization10fast_mutex6unlockEv.exit

_ZN6Halide7Runtime8Internal15Synchronization10fast_mutex6unlockEv.exit: ; preds = %if.end.i.i, %if.then.i, %entry
  ret void
}

; Function Attrs: nounwind willreturn mustprogress
define linkonce_odr i64 @_ZN6Halide7Runtime8Internal15Synchronization20wait_parking_control6unparkEib(%"struct.Halide::Runtime::Internal::Synchronization::wait_parking_control"* nonnull dereferenceable(24) %this, i32 %unparked, i1 zeroext %more_waiters) unnamed_addr #2 align 2 {
entry:
  br i1 %more_waiters, label %if.end, label %if.then

if.then:                                          ; preds = %entry
  %cond_state = getelementptr inbounds %"struct.Halide::Runtime::Internal::Synchronization::wait_parking_control", %"struct.Halide::Runtime::Internal::Synchronization::wait_parking_control"* %this, i64 0, i32 1
  %0 = load i64*, i64** %cond_state, align 8, !tbaa !110
  store atomic i64 0, i64* %0 monotonic, align 8
  br label %if.end

if.end:                                           ; preds = %if.then, %entry
  ret i64 0
}

; Function Attrs: nounwind
define linkonce i32 @_ZN6Halide7Runtime8Internal15Synchronization15parking_control14unpark_requeueEyyy(%"struct.Halide::Runtime::Internal::Synchronization::parking_control"* nonnull dereferenceable(8) %this, i64 %addr_from, i64 %addr_to, i64 %unpark_info) local_unnamed_addr #4 align 2 {
entry:
  %buckets = alloca %"struct.Halide::Runtime::Internal::Synchronization::bucket_pair", align 8
  %action = alloca %"struct.Halide::Runtime::Internal::Synchronization::validate_action", align 8
  %0 = bitcast %"struct.Halide::Runtime::Internal::Synchronization::bucket_pair"* %buckets to i8*
  call void @llvm.lifetime.start.p0i8(i64 16, i8* nonnull %0) #11
  call void @_ZN6Halide7Runtime8Internal15Synchronization16lock_bucket_pairEyy(%"struct.Halide::Runtime::Internal::Synchronization::bucket_pair"* nonnull sret(%"struct.Halide::Runtime::Internal::Synchronization::bucket_pair") align 8 %buckets, i64 %addr_from, i64 %addr_to) #15
  %1 = getelementptr inbounds %"struct.Halide::Runtime::Internal::Synchronization::validate_action", %"struct.Halide::Runtime::Internal::Synchronization::validate_action"* %action, i64 0, i32 0
  call void @llvm.lifetime.start.p0i8(i64 16, i8* nonnull %1) #11
  store i8 0, i8* %1, align 8, !tbaa !114
  %invalid_unpark_info.i = getelementptr inbounds %"struct.Halide::Runtime::Internal::Synchronization::validate_action", %"struct.Halide::Runtime::Internal::Synchronization::validate_action"* %action, i64 0, i32 2
  store i64 0, i64* %invalid_unpark_info.i, align 8, !tbaa !116
  %2 = bitcast %"struct.Halide::Runtime::Internal::Synchronization::parking_control"* %this to i1 (%"struct.Halide::Runtime::Internal::Synchronization::parking_control"*, %"struct.Halide::Runtime::Internal::Synchronization::validate_action"*)***
  %vtable = load i1 (%"struct.Halide::Runtime::Internal::Synchronization::parking_control"*, %"struct.Halide::Runtime::Internal::Synchronization::validate_action"*)**, i1 (%"struct.Halide::Runtime::Internal::Synchronization::parking_control"*, %"struct.Halide::Runtime::Internal::Synchronization::validate_action"*)*** %2, align 8, !tbaa !48
  %3 = load i1 (%"struct.Halide::Runtime::Internal::Synchronization::parking_control"*, %"struct.Halide::Runtime::Internal::Synchronization::validate_action"*)*, i1 (%"struct.Halide::Runtime::Internal::Synchronization::parking_control"*, %"struct.Halide::Runtime::Internal::Synchronization::validate_action"*)** %vtable, align 8
  %call = call zeroext i1 %3(%"struct.Halide::Runtime::Internal::Synchronization::parking_control"* nonnull dereferenceable(8) %this, %"struct.Halide::Runtime::Internal::Synchronization::validate_action"* nonnull align 8 dereferenceable(16) %action) #14
  br i1 %call, label %if.end, label %if.then

if.then:                                          ; preds = %entry
  call void @_ZN6Halide7Runtime8Internal15Synchronization18unlock_bucket_pairERNS2_11bucket_pairE(%"struct.Halide::Runtime::Internal::Synchronization::bucket_pair"* nonnull align 8 dereferenceable(16) %buckets) #15
  br label %cleanup

if.end:                                           ; preds = %entry
  %from = getelementptr inbounds %"struct.Halide::Runtime::Internal::Synchronization::bucket_pair", %"struct.Halide::Runtime::Internal::Synchronization::bucket_pair"* %buckets, i64 0, i32 0
  %4 = load %"struct.Halide::Runtime::Internal::Synchronization::hash_bucket"*, %"struct.Halide::Runtime::Internal::Synchronization::hash_bucket"** %from, align 8, !tbaa !118
  %head = getelementptr inbounds %"struct.Halide::Runtime::Internal::Synchronization::hash_bucket", %"struct.Halide::Runtime::Internal::Synchronization::hash_bucket"* %4, i64 0, i32 1
  %5 = load %"struct.Halide::Runtime::Internal::Synchronization::queue_data"*, %"struct.Halide::Runtime::Internal::Synchronization::queue_data"** %head, align 8, !tbaa !14
  %cmp.not92 = icmp eq %"struct.Halide::Runtime::Internal::Synchronization::queue_data"* %5, null
  br i1 %cmp.not92, label %if.end38, label %while.body

while.body:                                       ; preds = %if.end, %if.end22
  %wakeup.098 = phi %"struct.Halide::Runtime::Internal::Synchronization::queue_data"* [ %wakeup.2, %if.end22 ], [ null, %if.end ]
  %requeue_tail.097 = phi %"struct.Halide::Runtime::Internal::Synchronization::queue_data"* [ %requeue_tail.2, %if.end22 ], [ null, %if.end ]
  %requeue.096 = phi %"struct.Halide::Runtime::Internal::Synchronization::queue_data"* [ %requeue.3, %if.end22 ], [ null, %if.end ]
  %data.095 = phi %"struct.Halide::Runtime::Internal::Synchronization::queue_data"* [ %7, %if.end22 ], [ %5, %if.end ]
  %prev.094 = phi %"struct.Halide::Runtime::Internal::Synchronization::queue_data"* [ %prev.1, %if.end22 ], [ null, %if.end ]
  %data_location.093 = phi %"struct.Halide::Runtime::Internal::Synchronization::queue_data"** [ %data_location.1, %if.end22 ], [ %head, %if.end ]
  %sleep_address = getelementptr inbounds %"struct.Halide::Runtime::Internal::Synchronization::queue_data", %"struct.Halide::Runtime::Internal::Synchronization::queue_data"* %data.095, i64 0, i32 1
  %6 = load atomic i64, i64* %sleep_address monotonic, align 8
  %next2 = getelementptr inbounds %"struct.Halide::Runtime::Internal::Synchronization::queue_data", %"struct.Halide::Runtime::Internal::Synchronization::queue_data"* %data.095, i64 0, i32 2
  %7 = load %"struct.Halide::Runtime::Internal::Synchronization::queue_data"*, %"struct.Halide::Runtime::Internal::Synchronization::queue_data"** %next2, align 8, !tbaa !88
  %cmp3 = icmp eq i64 %6, %addr_from
  br i1 %cmp3, label %if.then4, label %if.end22

if.then4:                                         ; preds = %while.body
  store %"struct.Halide::Runtime::Internal::Synchronization::queue_data"* %7, %"struct.Halide::Runtime::Internal::Synchronization::queue_data"** %data_location.093, align 8, !tbaa !14
  %8 = load %"struct.Halide::Runtime::Internal::Synchronization::hash_bucket"*, %"struct.Halide::Runtime::Internal::Synchronization::hash_bucket"** %from, align 8, !tbaa !118
  %tail = getelementptr inbounds %"struct.Halide::Runtime::Internal::Synchronization::hash_bucket", %"struct.Halide::Runtime::Internal::Synchronization::hash_bucket"* %8, i64 0, i32 2
  %9 = load %"struct.Halide::Runtime::Internal::Synchronization::queue_data"*, %"struct.Halide::Runtime::Internal::Synchronization::queue_data"** %tail, align 8, !tbaa !93
  %cmp6 = icmp eq %"struct.Halide::Runtime::Internal::Synchronization::queue_data"* %9, %data.095
  br i1 %cmp6, label %if.then7, label %if.end10

if.then7:                                         ; preds = %if.then4
  store %"struct.Halide::Runtime::Internal::Synchronization::queue_data"* %prev.094, %"struct.Halide::Runtime::Internal::Synchronization::queue_data"** %tail, align 8, !tbaa !93
  br label %if.end10

if.end10:                                         ; preds = %if.then7, %if.then4
  %10 = load i8, i8* %1, align 8, !tbaa !114, !range !21
  %tobool = icmp ne i8 %10, 0
  %cmp11 = icmp eq %"struct.Halide::Runtime::Internal::Synchronization::queue_data"* %wakeup.098, null
  %or.cond = and i1 %cmp11, %tobool
  br i1 %or.cond, label %if.end22, label %if.else

if.else:                                          ; preds = %if.end10
  %cmp13 = icmp eq %"struct.Halide::Runtime::Internal::Synchronization::queue_data"* %requeue.096, null
  br i1 %cmp13, label %if.end17, label %if.else15

if.else15:                                        ; preds = %if.else
  %next16 = getelementptr inbounds %"struct.Halide::Runtime::Internal::Synchronization::queue_data", %"struct.Halide::Runtime::Internal::Synchronization::queue_data"* %requeue_tail.097, i64 0, i32 2
  store %"struct.Halide::Runtime::Internal::Synchronization::queue_data"* %data.095, %"struct.Halide::Runtime::Internal::Synchronization::queue_data"** %next16, align 8, !tbaa !88
  br label %if.end17

if.end17:                                         ; preds = %if.else15, %if.else
  %requeue.1 = phi %"struct.Halide::Runtime::Internal::Synchronization::queue_data"* [ %requeue.096, %if.else15 ], [ %data.095, %if.else ]
  store atomic i64 %addr_to, i64* %sleep_address monotonic, align 8
  br label %if.end22

if.end22:                                         ; preds = %if.end17, %if.end10, %while.body
  %data_location.1 = phi %"struct.Halide::Runtime::Internal::Synchronization::queue_data"** [ %data_location.093, %if.end10 ], [ %data_location.093, %if.end17 ], [ %next2, %while.body ]
  %prev.1 = phi %"struct.Halide::Runtime::Internal::Synchronization::queue_data"* [ %prev.094, %if.end10 ], [ %prev.094, %if.end17 ], [ %data.095, %while.body ]
  %requeue.3 = phi %"struct.Halide::Runtime::Internal::Synchronization::queue_data"* [ %requeue.096, %if.end10 ], [ %requeue.1, %if.end17 ], [ %requeue.096, %while.body ]
  %requeue_tail.2 = phi %"struct.Halide::Runtime::Internal::Synchronization::queue_data"* [ %requeue_tail.097, %if.end10 ], [ %data.095, %if.end17 ], [ %requeue_tail.097, %while.body ]
  %wakeup.2 = phi %"struct.Halide::Runtime::Internal::Synchronization::queue_data"* [ %data.095, %if.end10 ], [ %wakeup.098, %if.end17 ], [ %wakeup.098, %while.body ]
  %cmp.not = icmp eq %"struct.Halide::Runtime::Internal::Synchronization::queue_data"* %7, null
  br i1 %cmp.not, label %while.end, label %while.body, !llvm.loop !120

while.end:                                        ; preds = %if.end22
  %cmp23.not = icmp eq %"struct.Halide::Runtime::Internal::Synchronization::queue_data"* %requeue.3, null
  br i1 %cmp23.not, label %if.end38, label %if.then24

if.then24:                                        ; preds = %while.end
  %next25 = getelementptr inbounds %"struct.Halide::Runtime::Internal::Synchronization::queue_data", %"struct.Halide::Runtime::Internal::Synchronization::queue_data"* %requeue_tail.2, i64 0, i32 2
  store %"struct.Halide::Runtime::Internal::Synchronization::queue_data"* null, %"struct.Halide::Runtime::Internal::Synchronization::queue_data"** %next25, align 8, !tbaa !88
  %to = getelementptr inbounds %"struct.Halide::Runtime::Internal::Synchronization::bucket_pair", %"struct.Halide::Runtime::Internal::Synchronization::bucket_pair"* %buckets, i64 0, i32 1
  %11 = load %"struct.Halide::Runtime::Internal::Synchronization::hash_bucket"*, %"struct.Halide::Runtime::Internal::Synchronization::hash_bucket"** %to, align 8, !tbaa !121
  %head26 = getelementptr inbounds %"struct.Halide::Runtime::Internal::Synchronization::hash_bucket", %"struct.Halide::Runtime::Internal::Synchronization::hash_bucket"* %11, i64 0, i32 1
  %12 = load %"struct.Halide::Runtime::Internal::Synchronization::queue_data"*, %"struct.Halide::Runtime::Internal::Synchronization::queue_data"** %head26, align 8, !tbaa !117
  %cmp27 = icmp eq %"struct.Halide::Runtime::Internal::Synchronization::queue_data"* %12, null
  br i1 %cmp27, label %if.end35, label %if.else31

if.else31:                                        ; preds = %if.then24
  %tail33 = getelementptr inbounds %"struct.Halide::Runtime::Internal::Synchronization::hash_bucket", %"struct.Halide::Runtime::Internal::Synchronization::hash_bucket"* %11, i64 0, i32 2
  %13 = load %"struct.Halide::Runtime::Internal::Synchronization::queue_data"*, %"struct.Halide::Runtime::Internal::Synchronization::queue_data"** %tail33, align 8, !tbaa !93
  %next34 = getelementptr inbounds %"struct.Halide::Runtime::Internal::Synchronization::queue_data", %"struct.Halide::Runtime::Internal::Synchronization::queue_data"* %13, i64 0, i32 2
  br label %if.end35

if.end35:                                         ; preds = %if.else31, %if.then24
  %next34.sink = phi %"struct.Halide::Runtime::Internal::Synchronization::queue_data"** [ %next34, %if.else31 ], [ %head26, %if.then24 ]
  store %"struct.Halide::Runtime::Internal::Synchronization::queue_data"* %requeue.3, %"struct.Halide::Runtime::Internal::Synchronization::queue_data"** %next34.sink, align 8, !tbaa !14
  %tail37 = getelementptr inbounds %"struct.Halide::Runtime::Internal::Synchronization::hash_bucket", %"struct.Halide::Runtime::Internal::Synchronization::hash_bucket"* %11, i64 0, i32 2
  store %"struct.Halide::Runtime::Internal::Synchronization::queue_data"* %requeue_tail.2, %"struct.Halide::Runtime::Internal::Synchronization::queue_data"** %tail37, align 8, !tbaa !93
  br label %if.end38

if.end38:                                         ; preds = %if.end35, %while.end, %if.end
  %cmp23106 = phi i1 [ true, %if.end35 ], [ false, %while.end ], [ false, %if.end ]
  %wakeup.0.lcssa105 = phi %"struct.Halide::Runtime::Internal::Synchronization::queue_data"* [ %wakeup.2, %if.end35 ], [ %wakeup.2, %while.end ], [ null, %if.end ]
  %cmp39 = icmp ne %"struct.Halide::Runtime::Internal::Synchronization::queue_data"* %wakeup.0.lcssa105, null
  %14 = bitcast %"struct.Halide::Runtime::Internal::Synchronization::parking_control"* %this to void (%"struct.Halide::Runtime::Internal::Synchronization::parking_control"*, %"struct.Halide::Runtime::Internal::Synchronization::validate_action"*, i1, i1)***
  %vtable41 = load void (%"struct.Halide::Runtime::Internal::Synchronization::parking_control"*, %"struct.Halide::Runtime::Internal::Synchronization::validate_action"*, i1, i1)**, void (%"struct.Halide::Runtime::Internal::Synchronization::parking_control"*, %"struct.Halide::Runtime::Internal::Synchronization::validate_action"*, i1, i1)*** %14, align 8, !tbaa !48
  %vfn42 = getelementptr inbounds void (%"struct.Halide::Runtime::Internal::Synchronization::parking_control"*, %"struct.Halide::Runtime::Internal::Synchronization::validate_action"*, i1, i1)*, void (%"struct.Halide::Runtime::Internal::Synchronization::parking_control"*, %"struct.Halide::Runtime::Internal::Synchronization::validate_action"*, i1, i1)** %vtable41, i64 3
  %15 = load void (%"struct.Halide::Runtime::Internal::Synchronization::parking_control"*, %"struct.Halide::Runtime::Internal::Synchronization::validate_action"*, i1, i1)*, void (%"struct.Halide::Runtime::Internal::Synchronization::parking_control"*, %"struct.Halide::Runtime::Internal::Synchronization::validate_action"*, i1, i1)** %vfn42, align 8
  call void %15(%"struct.Halide::Runtime::Internal::Synchronization::parking_control"* nonnull dereferenceable(8) %this, %"struct.Halide::Runtime::Internal::Synchronization::validate_action"* nonnull align 8 dereferenceable(16) %action, i1 zeroext %cmp39, i1 zeroext %cmp23106) #14
  br i1 %cmp39, label %if.then44, label %if.else48

if.then44:                                        ; preds = %if.end38
  %unpark_info45 = getelementptr inbounds %"struct.Halide::Runtime::Internal::Synchronization::queue_data", %"struct.Halide::Runtime::Internal::Synchronization::queue_data"* %wakeup.0.lcssa105, i64 0, i32 3
  store i64 %unpark_info, i64* %unpark_info45, align 8, !tbaa !97
  %mutex.i89 = getelementptr inbounds %"struct.Halide::Runtime::Internal::Synchronization::queue_data", %"struct.Halide::Runtime::Internal::Synchronization::queue_data"* %wakeup.0.lcssa105, i64 0, i32 0, i32 0
  %call.i90 = call i32 @pthread_mutex_lock(%struct.pthread_mutex_t* nonnull %mutex.i89) #14
  call void @_ZN6Halide7Runtime8Internal15Synchronization18unlock_bucket_pairERNS2_11bucket_pairE(%"struct.Halide::Runtime::Internal::Synchronization::bucket_pair"* nonnull align 8 dereferenceable(16) %buckets) #15
  %should_park.i = getelementptr inbounds %"struct.Halide::Runtime::Internal::Synchronization::queue_data", %"struct.Halide::Runtime::Internal::Synchronization::queue_data"* %wakeup.0.lcssa105, i64 0, i32 0, i32 2
  store i8 0, i8* %should_park.i, align 8, !tbaa !98
  %condvar.i = getelementptr inbounds %"struct.Halide::Runtime::Internal::Synchronization::queue_data", %"struct.Halide::Runtime::Internal::Synchronization::queue_data"* %wakeup.0.lcssa105, i64 0, i32 0, i32 1
  %call.i88 = call i32 @pthread_cond_signal(%struct.pthread_mutex_t* nonnull %condvar.i) #14
  %call.i = call i32 @pthread_mutex_unlock(%struct.pthread_mutex_t* nonnull %mutex.i89) #14
  br label %if.end49

if.else48:                                        ; preds = %if.end38
  call void @_ZN6Halide7Runtime8Internal15Synchronization18unlock_bucket_pairERNS2_11bucket_pairE(%"struct.Halide::Runtime::Internal::Synchronization::bucket_pair"* nonnull align 8 dereferenceable(16) %buckets) #15
  br label %if.end49

if.end49:                                         ; preds = %if.else48, %if.then44
  %16 = load i8, i8* %1, align 8
  %17 = and i8 %16, 1
  %tobool52 = icmp ne i8 %17, 0
  %18 = and i1 %cmp39, %tobool52
  %conv = zext i1 %18 to i32
  br label %cleanup

cleanup:                                          ; preds = %if.end49, %if.then
  %retval.0 = phi i32 [ %conv, %if.end49 ], [ 0, %if.then ]
  call void @llvm.lifetime.end.p0i8(i64 16, i8* nonnull %1) #11
  call void @llvm.lifetime.end.p0i8(i64 16, i8* nonnull %0) #11
  ret i32 %retval.0
}

; Function Attrs: nounwind
define linkonce void @_ZN6Halide7Runtime8Internal15Synchronization16lock_bucket_pairEyy(%"struct.Halide::Runtime::Internal::Synchronization::bucket_pair"* noalias sret(%"struct.Halide::Runtime::Internal::Synchronization::bucket_pair") align 8 %agg.result, i64 %addr_from, i64 %addr_to) local_unnamed_addr #4 {
entry:
  %mul.i = mul i64 %addr_from, -7046029254386353131
  %shr.i = lshr i64 %mul.i, 54
  %mul.i37 = mul i64 %addr_to, -7046029254386353131
  %shr.i38 = lshr i64 %mul.i37, 54
  %cmp = icmp eq i64 %shr.i, %shr.i38
  br i1 %cmp, label %if.then, label %if.else

if.then:                                          ; preds = %entry
  %arrayidx = getelementptr inbounds %"struct.Halide::Runtime::Internal::Synchronization::hash_table", %"struct.Halide::Runtime::Internal::Synchronization::hash_table"* @_ZN6Halide7Runtime8Internal15Synchronization5tableE, i64 0, i32 0, i64 %shr.i
  %state.i42 = getelementptr inbounds %"struct.Halide::Runtime::Internal::Synchronization::hash_bucket", %"struct.Halide::Runtime::Internal::Synchronization::hash_bucket"* %arrayidx, i64 0, i32 0, i32 0
  %0 = cmpxchg weak i64* %state.i42, i64 0, i64 1 acquire monotonic
  %1 = extractvalue { i64, i1 } %0, 1
  br i1 %1, label %cleanup, label %if.then.i43

if.then.i43:                                      ; preds = %if.then
  %mutex = getelementptr inbounds %"struct.Halide::Runtime::Internal::Synchronization::hash_bucket", %"struct.Halide::Runtime::Internal::Synchronization::hash_bucket"* %arrayidx, i64 0, i32 0
  tail call void @_ZN6Halide7Runtime8Internal15Synchronization9word_lock9lock_fullEv(%"class.Halide::Runtime::Internal::Synchronization::word_lock"* nonnull dereferenceable(8) %mutex) #14
  br label %cleanup

if.else:                                          ; preds = %entry
  %cmp2 = icmp ult i64 %shr.i, %shr.i38
  br i1 %cmp2, label %if.then3, label %if.else9

if.then3:                                         ; preds = %if.else
  %arrayidx5 = getelementptr inbounds %"struct.Halide::Runtime::Internal::Synchronization::hash_table", %"struct.Halide::Runtime::Internal::Synchronization::hash_table"* @_ZN6Halide7Runtime8Internal15Synchronization5tableE, i64 0, i32 0, i64 %shr.i
  %arrayidx6 = getelementptr inbounds %"struct.Halide::Runtime::Internal::Synchronization::hash_table", %"struct.Halide::Runtime::Internal::Synchronization::hash_table"* @_ZN6Halide7Runtime8Internal15Synchronization5tableE, i64 0, i32 0, i64 %shr.i38
  %state.i52 = getelementptr inbounds %"struct.Halide::Runtime::Internal::Synchronization::hash_bucket", %"struct.Halide::Runtime::Internal::Synchronization::hash_bucket"* %arrayidx5, i64 0, i32 0, i32 0
  %2 = cmpxchg weak i64* %state.i52, i64 0, i64 1 acquire monotonic
  %3 = extractvalue { i64, i1 } %2, 1
  br i1 %3, label %_ZN6Halide7Runtime8Internal15Synchronization9word_lock4lockEv.exit54, label %if.then.i53

if.then.i53:                                      ; preds = %if.then3
  %mutex7 = getelementptr inbounds %"struct.Halide::Runtime::Internal::Synchronization::hash_bucket", %"struct.Halide::Runtime::Internal::Synchronization::hash_bucket"* %arrayidx5, i64 0, i32 0
  tail call void @_ZN6Halide7Runtime8Internal15Synchronization9word_lock9lock_fullEv(%"class.Halide::Runtime::Internal::Synchronization::word_lock"* nonnull dereferenceable(8) %mutex7) #14
  br label %_ZN6Halide7Runtime8Internal15Synchronization9word_lock4lockEv.exit54

_ZN6Halide7Runtime8Internal15Synchronization9word_lock4lockEv.exit54: ; preds = %if.then.i53, %if.then3
  %state.i49 = getelementptr inbounds %"struct.Halide::Runtime::Internal::Synchronization::hash_bucket", %"struct.Halide::Runtime::Internal::Synchronization::hash_bucket"* %arrayidx6, i64 0, i32 0, i32 0
  %4 = cmpxchg weak i64* %state.i49, i64 0, i64 1 acquire monotonic
  %5 = extractvalue { i64, i1 } %4, 1
  br i1 %5, label %cleanup, label %if.then.i50

if.then.i50:                                      ; preds = %_ZN6Halide7Runtime8Internal15Synchronization9word_lock4lockEv.exit54
  %mutex8 = getelementptr inbounds %"struct.Halide::Runtime::Internal::Synchronization::hash_bucket", %"struct.Halide::Runtime::Internal::Synchronization::hash_bucket"* %arrayidx6, i64 0, i32 0
  tail call void @_ZN6Halide7Runtime8Internal15Synchronization9word_lock9lock_fullEv(%"class.Halide::Runtime::Internal::Synchronization::word_lock"* nonnull dereferenceable(8) %mutex8) #14
  br label %cleanup

if.else9:                                         ; preds = %if.else
  %arrayidx11 = getelementptr inbounds %"struct.Halide::Runtime::Internal::Synchronization::hash_table", %"struct.Halide::Runtime::Internal::Synchronization::hash_table"* @_ZN6Halide7Runtime8Internal15Synchronization5tableE, i64 0, i32 0, i64 %shr.i38
  %arrayidx13 = getelementptr inbounds %"struct.Halide::Runtime::Internal::Synchronization::hash_table", %"struct.Halide::Runtime::Internal::Synchronization::hash_table"* @_ZN6Halide7Runtime8Internal15Synchronization5tableE, i64 0, i32 0, i64 %shr.i
  %state.i39 = getelementptr inbounds %"struct.Halide::Runtime::Internal::Synchronization::hash_bucket", %"struct.Halide::Runtime::Internal::Synchronization::hash_bucket"* %arrayidx11, i64 0, i32 0, i32 0
  %6 = cmpxchg weak i64* %state.i39, i64 0, i64 1 acquire monotonic
  %7 = extractvalue { i64, i1 } %6, 1
  br i1 %7, label %_ZN6Halide7Runtime8Internal15Synchronization9word_lock4lockEv.exit41, label %if.then.i40

if.then.i40:                                      ; preds = %if.else9
  %mutex14 = getelementptr inbounds %"struct.Halide::Runtime::Internal::Synchronization::hash_bucket", %"struct.Halide::Runtime::Internal::Synchronization::hash_bucket"* %arrayidx11, i64 0, i32 0
  tail call void @_ZN6Halide7Runtime8Internal15Synchronization9word_lock9lock_fullEv(%"class.Halide::Runtime::Internal::Synchronization::word_lock"* nonnull dereferenceable(8) %mutex14) #14
  br label %_ZN6Halide7Runtime8Internal15Synchronization9word_lock4lockEv.exit41

_ZN6Halide7Runtime8Internal15Synchronization9word_lock4lockEv.exit41: ; preds = %if.then.i40, %if.else9
  %state.i = getelementptr inbounds %"struct.Halide::Runtime::Internal::Synchronization::hash_bucket", %"struct.Halide::Runtime::Internal::Synchronization::hash_bucket"* %arrayidx13, i64 0, i32 0, i32 0
  %8 = cmpxchg weak i64* %state.i, i64 0, i64 1 acquire monotonic
  %9 = extractvalue { i64, i1 } %8, 1
  br i1 %9, label %cleanup, label %if.then.i

if.then.i:                                        ; preds = %_ZN6Halide7Runtime8Internal15Synchronization9word_lock4lockEv.exit41
  %mutex15 = getelementptr inbounds %"struct.Halide::Runtime::Internal::Synchronization::hash_bucket", %"struct.Halide::Runtime::Internal::Synchronization::hash_bucket"* %arrayidx13, i64 0, i32 0
  tail call void @_ZN6Halide7Runtime8Internal15Synchronization9word_lock9lock_fullEv(%"class.Halide::Runtime::Internal::Synchronization::word_lock"* nonnull dereferenceable(8) %mutex15) #14
  br label %cleanup

cleanup:                                          ; preds = %if.then.i, %_ZN6Halide7Runtime8Internal15Synchronization9word_lock4lockEv.exit41, %if.then.i50, %_ZN6Halide7Runtime8Internal15Synchronization9word_lock4lockEv.exit54, %if.then.i43, %if.then
  %arrayidx13.sink = phi %"struct.Halide::Runtime::Internal::Synchronization::hash_bucket"* [ %arrayidx, %if.then ], [ %arrayidx, %if.then.i43 ], [ %arrayidx5, %_ZN6Halide7Runtime8Internal15Synchronization9word_lock4lockEv.exit54 ], [ %arrayidx5, %if.then.i50 ], [ %arrayidx13, %_ZN6Halide7Runtime8Internal15Synchronization9word_lock4lockEv.exit41 ], [ %arrayidx13, %if.then.i ]
  %arrayidx11.sink = phi %"struct.Halide::Runtime::Internal::Synchronization::hash_bucket"* [ %arrayidx, %if.then ], [ %arrayidx, %if.then.i43 ], [ %arrayidx6, %_ZN6Halide7Runtime8Internal15Synchronization9word_lock4lockEv.exit54 ], [ %arrayidx6, %if.then.i50 ], [ %arrayidx11, %_ZN6Halide7Runtime8Internal15Synchronization9word_lock4lockEv.exit41 ], [ %arrayidx11, %if.then.i ]
  %from2.i = getelementptr inbounds %"struct.Halide::Runtime::Internal::Synchronization::bucket_pair", %"struct.Halide::Runtime::Internal::Synchronization::bucket_pair"* %agg.result, i64 0, i32 0
  store %"struct.Halide::Runtime::Internal::Synchronization::hash_bucket"* %arrayidx13.sink, %"struct.Halide::Runtime::Internal::Synchronization::hash_bucket"** %from2.i, align 8, !tbaa !14
  %to3.i = getelementptr inbounds %"struct.Halide::Runtime::Internal::Synchronization::bucket_pair", %"struct.Halide::Runtime::Internal::Synchronization::bucket_pair"* %agg.result, i64 0, i32 1
  store %"struct.Halide::Runtime::Internal::Synchronization::hash_bucket"* %arrayidx11.sink, %"struct.Halide::Runtime::Internal::Synchronization::hash_bucket"** %to3.i, align 8, !tbaa !14
  ret void
}

; Function Attrs: nounwind mustprogress
define linkonce void @_ZN6Halide7Runtime8Internal15Synchronization18unlock_bucket_pairERNS2_11bucket_pairE(%"struct.Halide::Runtime::Internal::Synchronization::bucket_pair"* nonnull align 8 dereferenceable(16) %buckets) local_unnamed_addr #0 {
entry:
  %from = getelementptr inbounds %"struct.Halide::Runtime::Internal::Synchronization::bucket_pair", %"struct.Halide::Runtime::Internal::Synchronization::bucket_pair"* %buckets, i64 0, i32 0
  %0 = load %"struct.Halide::Runtime::Internal::Synchronization::hash_bucket"*, %"struct.Halide::Runtime::Internal::Synchronization::hash_bucket"** %from, align 8, !tbaa !118
  %to = getelementptr inbounds %"struct.Halide::Runtime::Internal::Synchronization::bucket_pair", %"struct.Halide::Runtime::Internal::Synchronization::bucket_pair"* %buckets, i64 0, i32 1
  %1 = load %"struct.Halide::Runtime::Internal::Synchronization::hash_bucket"*, %"struct.Halide::Runtime::Internal::Synchronization::hash_bucket"** %to, align 8, !tbaa !121
  %cmp = icmp eq %"struct.Halide::Runtime::Internal::Synchronization::hash_bucket"* %0, %1
  br i1 %cmp, label %if.then, label %if.else

if.then:                                          ; preds = %entry
  %state.i = getelementptr inbounds %"struct.Halide::Runtime::Internal::Synchronization::hash_bucket", %"struct.Halide::Runtime::Internal::Synchronization::hash_bucket"* %0, i64 0, i32 0, i32 0
  %2 = atomicrmw and i64* %state.i, i64 -2 release
  %and.i = and i64 %2, 2
  %cmp.i = icmp ne i64 %and.i, 0
  %cmp3.not.i = icmp ult i64 %2, 4
  %or.cond.i = or i1 %cmp3.not.i, %cmp.i
  br i1 %or.cond.i, label %if.end15, label %if.then.i

if.then.i:                                        ; preds = %if.then
  %mutex = getelementptr inbounds %"struct.Halide::Runtime::Internal::Synchronization::hash_bucket", %"struct.Halide::Runtime::Internal::Synchronization::hash_bucket"* %0, i64 0, i32 0
  tail call void @_ZN6Halide7Runtime8Internal15Synchronization9word_lock11unlock_fullEv(%"class.Halide::Runtime::Internal::Synchronization::word_lock"* nonnull dereferenceable(8) %mutex) #14
  br label %if.end15

if.else:                                          ; preds = %entry
  %cmp4 = icmp ugt %"struct.Halide::Runtime::Internal::Synchronization::hash_bucket"* %0, %1
  br i1 %cmp4, label %if.then5, label %if.else10

if.then5:                                         ; preds = %if.else
  %state.i25 = getelementptr inbounds %"struct.Halide::Runtime::Internal::Synchronization::hash_bucket", %"struct.Halide::Runtime::Internal::Synchronization::hash_bucket"* %0, i64 0, i32 0, i32 0
  %3 = atomicrmw and i64* %state.i25, i64 -2 release
  %and.i26 = and i64 %3, 2
  %cmp.i27 = icmp ne i64 %and.i26, 0
  %cmp3.not.i28 = icmp ult i64 %3, 4
  %or.cond.i29 = or i1 %cmp3.not.i28, %cmp.i27
  br i1 %or.cond.i29, label %_ZN6Halide7Runtime8Internal15Synchronization9word_lock6unlockEv.exit31, label %if.then.i30

if.then.i30:                                      ; preds = %if.then5
  %mutex7 = getelementptr inbounds %"struct.Halide::Runtime::Internal::Synchronization::hash_bucket", %"struct.Halide::Runtime::Internal::Synchronization::hash_bucket"* %0, i64 0, i32 0
  tail call void @_ZN6Halide7Runtime8Internal15Synchronization9word_lock11unlock_fullEv(%"class.Halide::Runtime::Internal::Synchronization::word_lock"* nonnull dereferenceable(8) %mutex7) #14
  br label %_ZN6Halide7Runtime8Internal15Synchronization9word_lock6unlockEv.exit31

_ZN6Halide7Runtime8Internal15Synchronization9word_lock6unlockEv.exit31: ; preds = %if.then.i30, %if.then5
  %4 = load %"struct.Halide::Runtime::Internal::Synchronization::hash_bucket"*, %"struct.Halide::Runtime::Internal::Synchronization::hash_bucket"** %to, align 8, !tbaa !121
  %state.i32 = getelementptr inbounds %"struct.Halide::Runtime::Internal::Synchronization::hash_bucket", %"struct.Halide::Runtime::Internal::Synchronization::hash_bucket"* %4, i64 0, i32 0, i32 0
  %5 = atomicrmw and i64* %state.i32, i64 -2 release
  %and.i33 = and i64 %5, 2
  %cmp.i34 = icmp ne i64 %and.i33, 0
  %cmp3.not.i35 = icmp ult i64 %5, 4
  %or.cond.i36 = or i1 %cmp3.not.i35, %cmp.i34
  br i1 %or.cond.i36, label %if.end15, label %if.then.i37

if.then.i37:                                      ; preds = %_ZN6Halide7Runtime8Internal15Synchronization9word_lock6unlockEv.exit31
  %mutex9 = getelementptr inbounds %"struct.Halide::Runtime::Internal::Synchronization::hash_bucket", %"struct.Halide::Runtime::Internal::Synchronization::hash_bucket"* %4, i64 0, i32 0
  tail call void @_ZN6Halide7Runtime8Internal15Synchronization9word_lock11unlock_fullEv(%"class.Halide::Runtime::Internal::Synchronization::word_lock"* nonnull dereferenceable(8) %mutex9) #14
  br label %if.end15

if.else10:                                        ; preds = %if.else
  %state.i39 = getelementptr inbounds %"struct.Halide::Runtime::Internal::Synchronization::hash_bucket", %"struct.Halide::Runtime::Internal::Synchronization::hash_bucket"* %1, i64 0, i32 0, i32 0
  %6 = atomicrmw and i64* %state.i39, i64 -2 release
  %and.i40 = and i64 %6, 2
  %cmp.i41 = icmp ne i64 %and.i40, 0
  %cmp3.not.i42 = icmp ult i64 %6, 4
  %or.cond.i43 = or i1 %cmp3.not.i42, %cmp.i41
  br i1 %or.cond.i43, label %_ZN6Halide7Runtime8Internal15Synchronization9word_lock6unlockEv.exit45, label %if.then.i44

if.then.i44:                                      ; preds = %if.else10
  %mutex12 = getelementptr inbounds %"struct.Halide::Runtime::Internal::Synchronization::hash_bucket", %"struct.Halide::Runtime::Internal::Synchronization::hash_bucket"* %1, i64 0, i32 0
  tail call void @_ZN6Halide7Runtime8Internal15Synchronization9word_lock11unlock_fullEv(%"class.Halide::Runtime::Internal::Synchronization::word_lock"* nonnull dereferenceable(8) %mutex12) #14
  br label %_ZN6Halide7Runtime8Internal15Synchronization9word_lock6unlockEv.exit45

_ZN6Halide7Runtime8Internal15Synchronization9word_lock6unlockEv.exit45: ; preds = %if.then.i44, %if.else10
  %7 = load %"struct.Halide::Runtime::Internal::Synchronization::hash_bucket"*, %"struct.Halide::Runtime::Internal::Synchronization::hash_bucket"** %from, align 8, !tbaa !118
  %state.i46 = getelementptr inbounds %"struct.Halide::Runtime::Internal::Synchronization::hash_bucket", %"struct.Halide::Runtime::Internal::Synchronization::hash_bucket"* %7, i64 0, i32 0, i32 0
  %8 = atomicrmw and i64* %state.i46, i64 -2 release
  %and.i47 = and i64 %8, 2
  %cmp.i48 = icmp ne i64 %and.i47, 0
  %cmp3.not.i49 = icmp ult i64 %8, 4
  %or.cond.i50 = or i1 %cmp3.not.i49, %cmp.i48
  br i1 %or.cond.i50, label %if.end15, label %if.then.i51

if.then.i51:                                      ; preds = %_ZN6Halide7Runtime8Internal15Synchronization9word_lock6unlockEv.exit45
  %mutex14 = getelementptr inbounds %"struct.Halide::Runtime::Internal::Synchronization::hash_bucket", %"struct.Halide::Runtime::Internal::Synchronization::hash_bucket"* %7, i64 0, i32 0
  tail call void @_ZN6Halide7Runtime8Internal15Synchronization9word_lock11unlock_fullEv(%"class.Halide::Runtime::Internal::Synchronization::word_lock"* nonnull dereferenceable(8) %mutex14) #14
  br label %if.end15

if.end15:                                         ; preds = %if.then.i51, %_ZN6Halide7Runtime8Internal15Synchronization9word_lock6unlockEv.exit45, %if.then.i37, %_ZN6Halide7Runtime8Internal15Synchronization9word_lock6unlockEv.exit31, %if.then.i, %if.then
  ret void
}

; Function Attrs: nounwind
define linkonce_odr zeroext i1 @_ZN6Halide7Runtime8Internal15Synchronization25broadcast_parking_control8validateERNS2_15validate_actionE(%"struct.Halide::Runtime::Internal::Synchronization::wait_parking_control"* nonnull dereferenceable(24) %this, %"struct.Halide::Runtime::Internal::Synchronization::validate_action"* nonnull align 8 dereferenceable(16) %action) unnamed_addr #4 align 2 {
entry:
  %cond_state = getelementptr inbounds %"struct.Halide::Runtime::Internal::Synchronization::wait_parking_control", %"struct.Halide::Runtime::Internal::Synchronization::wait_parking_control"* %this, i64 0, i32 1
  %0 = load i64*, i64** %cond_state, align 8, !tbaa !107
  %1 = load atomic i64, i64* %0 monotonic, align 8
  %mutex = getelementptr inbounds %"struct.Halide::Runtime::Internal::Synchronization::wait_parking_control", %"struct.Halide::Runtime::Internal::Synchronization::wait_parking_control"* %this, i64 0, i32 2
  %2 = load %"class.Halide::Runtime::Internal::Synchronization::word_lock"*, %"class.Halide::Runtime::Internal::Synchronization::word_lock"** %mutex, align 8, !tbaa !109
  %3 = ptrtoint %"class.Halide::Runtime::Internal::Synchronization::word_lock"* %2 to i64
  %cmp.not = icmp eq i64 %1, %3
  br i1 %cmp.not, label %if.end, label %cleanup

if.end:                                           ; preds = %entry
  store atomic i64 0, i64* %0 monotonic, align 8
  %4 = load %"class.Halide::Runtime::Internal::Synchronization::word_lock"*, %"class.Halide::Runtime::Internal::Synchronization::word_lock"** %mutex, align 8, !tbaa !109
  %state.i = getelementptr inbounds %"class.Halide::Runtime::Internal::Synchronization::word_lock", %"class.Halide::Runtime::Internal::Synchronization::word_lock"* %4, i64 0, i32 0
  %5 = load atomic i64, i64* %state.i monotonic, align 8
  %and11.i = and i64 %5, 1
  %tobool.not12.i = icmp eq i64 %and11.i, 0
  br i1 %tobool.not12.i, label %_ZN6Halide7Runtime8Internal15Synchronization10fast_mutex21make_parked_if_lockedEv.exit, label %if.end.i

if.end.i:                                         ; preds = %if.end, %_ZN6Halide7Runtime8Internal15Synchronization12_GLOBAL__N_131atomic_cas_weak_relaxed_relaxedEPyS4_S4_.exit.i
