; ModuleID = '/home/sb54/Hydride/hexagon-benchmarks/rake/benchmarks/hexagon/halide/sobel5x5/samples/batch_54_0/8/sobel5x5_batch_0054_sample_0008.bc'
source_filename = "/home/sb54/halide-12/src/runtime/posix_allocator.cpp"
target datalayout = "e-m:e-p270:32:32-p271:32:32-p272:64:64-i64:64-f80:128-n8:16:32:64-S128"
target triple = "x86_64--linux-gnu"

%struct.timespec = type { i64, i64 }
%"struct.Halide::Runtime::Internal::work_queue_t" = type { %struct.halide_mutex, i32, i32, %"struct.Halide::Runtime::Internal::work"*, i32, i32, i32, [4 x i8], %struct.halide_mutex, %struct.halide_mutex, %struct.halide_mutex, i32, i32, [256 x %struct.halide_thread*], i8, i8, i32 }
%"struct.Halide::Runtime::Internal::work" = type { %struct.halide_parallel_task_t, i32 (i8*, i32, i8*)*, %"struct.Halide::Runtime::Internal::work"*, %"struct.Halide::Runtime::Internal::work"*, i32, %"struct.Halide::Runtime::Internal::work"*, i32, i8*, i32, i32, i32, i8 }
%struct.halide_parallel_task_t = type { i32 (i8*, i32, i32, i8*, i8*)*, i8*, i8*, %struct.halide_semaphore_acquire_t*, i32, i32, i32, i32, i8, [7 x i8] }
%struct.halide_semaphore_acquire_t = type { %struct.halide_semaphore_t*, i32, [4 x i8] }
%struct.halide_semaphore_t = type { [2 x i64] }
%struct.halide_mutex = type { [1 x i64] }
%struct.halide_thread = type opaque
%"class.Halide::Runtime::Internal::TraceBuffer" = type { %"class.Halide::Runtime::Internal::SharedExclusiveSpinLock", i32, i32, [1048576 x i8] }
%"class.Halide::Runtime::Internal::SharedExclusiveSpinLock" = type { i32 }
%struct.halide_trace_event_t = type <{ i8*, i8*, i32*, i8*, %struct.halide_type_t, i32, i32, i32, i32, [4 x i8] }>
%struct.halide_type_t = type { i8, i8, i16 }
%"struct.Halide::Runtime::Internal::CacheEntry" = type { %"struct.Halide::Runtime::Internal::CacheEntry"*, %"struct.Halide::Runtime::Internal::CacheEntry"*, %"struct.Halide::Runtime::Internal::CacheEntry"*, i8*, i64, i8*, i32, i32, i32, i32, %struct.halide_dimension_t*, %struct.halide_buffer_t*, i64, i8, [7 x i8] }
%struct.halide_dimension_t = type { i32, i32, i32, i32 }
%struct.halide_buffer_t = type { i64, %struct.halide_device_interface_t*, i8*, i64, %struct.halide_type_t, i32, %struct.halide_dimension_t*, i8* }
%struct.halide_device_interface_t = type { i32 (i8*, %struct.halide_buffer_t*, %struct.halide_device_interface_t*)*, i32 (i8*, %struct.halide_buffer_t*)*, i32 (i8*, %struct.halide_buffer_t*)*, void (i8*, %struct.halide_device_interface_t*)*, i32 (i8*, %struct.halide_buffer_t*)*, i32 (i8*, %struct.halide_buffer_t*, %struct.halide_device_interface_t*)*, i32 (i8*, %struct.halide_buffer_t*, %struct.halide_device_interface_t*)*, i32 (i8*, %struct.halide_buffer_t*)*, i32 (i8*, %struct.halide_buffer_t*, %struct.halide_device_interface_t*, %struct.halide_buffer_t*)*, i32 (i8*, %struct.halide_buffer_t*, %struct.halide_buffer_t*)*, i32 (i8*, %struct.halide_buffer_t*, i32, i32, %struct.halide_buffer_t*)*, i32 (i8*, %struct.halide_buffer_t*)*, i32 (i8*, %struct.halide_buffer_t*, i64, %struct.halide_device_interface_t*)*, i32 (i8*, %struct.halide_buffer_t*)*, i32 (i8*, i32*, i32*)*, %struct.halide_device_interface_impl_t* }
%struct.halide_device_interface_impl_t = type { void ()*, void ()*, i32 (i8*, %struct.halide_buffer_t*)*, i32 (i8*, %struct.halide_buffer_t*)*, i32 (i8*, %struct.halide_buffer_t*)*, i32 (i8*)*, i32 (i8*, %struct.halide_buffer_t*)*, i32 (i8*, %struct.halide_buffer_t*)*, i32 (i8*, %struct.halide_buffer_t*)*, i32 (i8*, %struct.halide_buffer_t*)*, i32 (i8*, %struct.halide_buffer_t*, %struct.halide_device_interface_t*, %struct.halide_buffer_t*)*, i32 (i8*, %struct.halide_buffer_t*, %struct.halide_buffer_t*)*, i32 (i8*, %struct.halide_buffer_t*, i32, i32, %struct.halide_buffer_t*)*, i32 (i8*, %struct.halide_buffer_t*)*, i32 (i8*, %struct.halide_buffer_t*, i64)*, i32 (i8*, %struct.halide_buffer_t*)* }
%struct.halide_device_allocation_pool = type { i32 (i8*)*, %struct.halide_device_allocation_pool* }
%struct.halide_profiler_state = type { %struct.halide_mutex, i32, i32, i32, i32, %struct.halide_profiler_pipeline_stats*, void (i32*, i32*)*, %struct.halide_thread* }
%struct.halide_profiler_pipeline_stats = type { i64, i64, i64, i64, i64, i64, i8*, %struct.halide_profiler_func_stats*, i8*, i32, i32, i32, i32, i32, [4 x i8] }
%struct.halide_profiler_func_stats = type { i64, i64, i64, i64, i64, i64, i64, i8*, i32, [4 x i8] }
%struct.halide_filter_argument_t = type { i8*, i32, i32, %struct.halide_type_t, %struct.halide_scalar_value_t*, %struct.halide_scalar_value_t*, %struct.halide_scalar_value_t*, %struct.halide_scalar_value_t*, i64** }
%struct.halide_scalar_value_t = type { %union.anon.28 }
%union.anon.28 = type { double }
%struct.halide_filter_metadata_t = type { i32, i32, %struct.halide_filter_argument_t*, i8*, i8* }
%"struct.Halide::Runtime::Internal::Synchronization::mutex_parking_control" = type { %"struct.Halide::Runtime::Internal::Synchronization::parking_control", i64* }
%"struct.Halide::Runtime::Internal::Synchronization::parking_control" = type { i1 (i8*, %"struct.Halide::Runtime::Internal::Synchronization::validate_action"*)*, void (i8*)*, i64 (i8*, i32, i1)*, void (i8*, %"struct.Halide::Runtime::Internal::Synchronization::validate_action"*, i1, i1)* }
%"struct.Halide::Runtime::Internal::Synchronization::validate_action" = type { i8, [7 x i8], i64 }
%"struct.Halide::Runtime::Internal::Synchronization::hash_bucket" = type { %"class.Halide::Runtime::Internal::Synchronization::word_lock", %"struct.Halide::Runtime::Internal::Synchronization::queue_data"*, %"struct.Halide::Runtime::Internal::Synchronization::queue_data"* }
%"class.Halide::Runtime::Internal::Synchronization::word_lock" = type { i64 }
%"struct.Halide::Runtime::Internal::Synchronization::queue_data" = type { %"struct.Halide::Runtime::Internal::Synchronization::thread_parker", i64, %"struct.Halide::Runtime::Internal::Synchronization::queue_data"*, i64 }
%"struct.Halide::Runtime::Internal::Synchronization::thread_parker" = type <{ %struct.pthread_mutex_t, %struct.pthread_mutex_t, i8, [7 x i8] }>
%struct.pthread_mutex_t = type { [8 x i64] }
%"struct.Halide::Runtime::Internal::Synchronization::word_lock_queue_data" = type { %"struct.Halide::Runtime::Internal::Synchronization::thread_parker", %"struct.Halide::Runtime::Internal::Synchronization::word_lock_queue_data"*, %"struct.Halide::Runtime::Internal::Synchronization::word_lock_queue_data"*, %"struct.Halide::Runtime::Internal::Synchronization::word_lock_queue_data"* }
%"struct.Halide::Runtime::Internal::Synchronization::wait_parking_control" = type { %"struct.Halide::Runtime::Internal::Synchronization::parking_control", i64*, %"class.Halide::Runtime::Internal::Synchronization::word_lock"* }
%"struct.Halide::Runtime::Internal::Synchronization::bucket_pair" = type { %"struct.Halide::Runtime::Internal::Synchronization::hash_bucket"*, %"struct.Halide::Runtime::Internal::Synchronization::hash_bucket"* }
%"struct.Halide::Runtime::Internal::spawned_thread" = type { void (i8*)*, i8*, i64 }
%struct.halide_mutex_array = type { %struct.halide_mutex* }
%"class.Halide::Runtime::Internal::(anonymous namespace)::Printer.0" = type <{ i8*, i8*, i8*, i8*, i8, [1 x i8], [6 x i8] }>
%"struct.Halide::Runtime::Internal::halide_tiff_header" = type <{ i16, i16, i32, i16, [15 x %"struct.Halide::Runtime::Internal::tiff_tag"], i32, [2 x i32], [2 x i32] }>
%"struct.Halide::Runtime::Internal::tiff_tag" = type { i16, i16, i32, %"class.Halide::Runtime::Internal::SharedExclusiveSpinLock" }
%"struct.Halide::Runtime::Internal::CacheBlockHeader" = type { %"struct.Halide::Runtime::Internal::CacheEntry"*, i32, [4 x i8] }
%"struct.Halide::Runtime::Internal::device_copy" = type { i64, i64, i64, [16 x i64], [16 x i64], [16 x i64], i64 }
%"struct.Halide::Runtime::Internal::CpuFeatures" = type { [2 x i64], [2 x i64] }
%closure_t = type { i32, i32, i32, i32, i32, i32, i32, i32, i32, i32, i32, i32, i32, i32, i32, i8*, %struct.halide_buffer_t*, i8*, %struct.halide_buffer_t* }

@_ZN6Halide7Runtime8Internal13custom_mallocE = linkonce local_unnamed_addr global i8* (i8*, i64)* @halide_default_malloc, align 8
@_ZN6Halide7Runtime8Internal11custom_freeE = linkonce local_unnamed_addr global void (i8*, i8*)* @halide_default_free, align 8
@_ZN6Halide7Runtime8Internal13error_handlerE = linkonce local_unnamed_addr global void (i8*, i8*)* @halide_default_error, align 8
@.str = private unnamed_addr constant [8 x i8] c"Error: \00", align 1
@_ZN6Halide7Runtime8Internal12custom_printE = linkonce local_unnamed_addr global void (i8*, i8*)* @halide_default_print, align 8
@halide_reference_clock_inited = linkonce local_unnamed_addr global i8 0, align 1
@halide_reference_clock = linkonce global %struct.timespec zeroinitializer, align 8
@_ZN6Halide7Runtime8Internal15Synchronization13table_storageE = linkonce global [24576 x i8] zeroinitializer, align 1
@_ZN6Halide7Runtime8Internal10work_queueE = linkonce global %"struct.Halide::Runtime::Internal::work_queue_t" { %struct.halide_mutex zeroinitializer, i32 0, i32 0, %"struct.Halide::Runtime::Internal::work"* null, i32 0, i32 0, i32 0, [4 x i8] undef, %struct.halide_mutex zeroinitializer, %struct.halide_mutex zeroinitializer, %struct.halide_mutex zeroinitializer, i32 0, i32 0, [256 x %struct.halide_thread*] zeroinitializer, i8 0, i8 0, i32 0 }, align 8
@_ZN6Halide7Runtime8Internal14custom_do_taskE = linkonce local_unnamed_addr global i32 (i8*, i32 (i8*, i32, i8*)*, i32, i8*)* @halide_default_do_task, align 8
@_ZN6Halide7Runtime8Internal19custom_do_loop_taskE = linkonce local_unnamed_addr global i32 (i8*, i32 (i8*, i32, i32, i8*, i8*)*, i32, i32, i8*, i8*)* @halide_default_do_loop_task, align 8
@_ZN6Halide7Runtime8Internal17custom_do_par_forE = linkonce local_unnamed_addr global i32 (i8*, i32 (i8*, i32, i8*)*, i32, i32, i8*)* @halide_default_do_par_for, align 8
@.str.5 = private unnamed_addr constant [94 x i8] c"/home/sb54/halide-12/src/runtime/synchronization_common.h:395 Assert failed: next != nullptr\0A\00", align 1
@.str.6 = private unnamed_addr constant [89 x i8] c"/home/sb54/halide-12/src/runtime/synchronization_common.h:1116 Assert failed: val & 0x1\0A\00", align 1
@.str.7 = private unnamed_addr constant [150 x i8] c"/home/sb54/halide-12/src/runtime/thread_pool_common.h:153 Assert failed: bytes == limit && \22Logic error in thread pool work queue initialization.\\n\22\0A\00", align 1
@.str.3 = private unnamed_addr constant [227 x i8] c"/home/sb54/halide-12/src/runtime/thread_pool_common.h:520 Assert failed: (min_threads <= ((task_parent->task.min_threads * task_parent->active_workers) - task_parent->threads_reserved)) && \22Logic error: thread over commit.\\n\22\0A\00", align 1
@.str.1 = private unnamed_addr constant [15 x i8] c"HL_NUM_THREADS\00", align 1
@.str.2 = private unnamed_addr constant [14 x i8] c"HL_NUMTHREADS\00", align 1
@_ZN6Halide7Runtime8Internal24custom_do_parallel_tasksE = linkonce local_unnamed_addr global i32 (i8*, i32, %struct.halide_parallel_task_t*, i8*)* @halide_default_do_parallel_tasks, align 8
@_ZN6Halide7Runtime8Internal21custom_semaphore_initE = linkonce local_unnamed_addr global i32 (%struct.halide_semaphore_t*, i32)* @halide_default_semaphore_init, align 8
@_ZN6Halide7Runtime8Internal28custom_semaphore_try_acquireE = linkonce local_unnamed_addr global i1 (%struct.halide_semaphore_t*, i32)* @halide_default_semaphore_try_acquire, align 8
@_ZN6Halide7Runtime8Internal24custom_semaphore_releaseE = linkonce local_unnamed_addr global i32 (%struct.halide_semaphore_t*, i32)* @halide_default_semaphore_release, align 8
@llvm.global_dtors = appending global [4 x { i32, void ()*, i8* }] [{ i32, void ()*, i8* } { i32 65535, void ()* @halide_thread_pool_cleanup, i8* null }, { i32, void ()*, i8* } { i32 65535, void ()* @halide_trace_cleanup, i8* null }, { i32, void ()*, i8* } { i32 65535, void ()* @halide_cache_cleanup, i8* null }, { i32, void ()*, i8* } { i32 65535, void ()* @halide_profiler_shutdown, i8* null }]
@.str.4 = private unnamed_addr constant [38 x i8] c"halide_set_num_threads: must be >= 0.\00", align 1
@_ZN6Halide7Runtime8Internal17custom_get_symbolE = linkonce local_unnamed_addr global i8* (i8*)* @halide_default_get_symbol, align 8
@_ZN6Halide7Runtime8Internal19custom_load_libraryE = linkonce local_unnamed_addr global i8* (i8*)* @halide_default_load_library, align 8
@_ZN6Halide7Runtime8Internal25custom_get_library_symbolE = linkonce local_unnamed_addr global i8* (i8*, i8*)* @halide_default_get_library_symbol, align 8
@_ZN6Halide7Runtime8Internal17halide_gpu_deviceE = linkonce local_unnamed_addr global i32 0, align 4
@_ZN6Halide7Runtime8Internal22halide_gpu_device_lockE = linkonce global i8 0, align 1
@_ZN6Halide7Runtime8Internal29halide_gpu_device_initializedE = linkonce local_unnamed_addr global i8 0, align 1
@.str.8 = private unnamed_addr constant [14 x i8] c"HL_GPU_DEVICE\00", align 1
@_ZN6Halide7Runtime8Internal19halide_trace_bufferE = linkonce local_unnamed_addr global %"class.Halide::Runtime::Internal::TraceBuffer"* null, align 8
@_ZN6Halide7Runtime8Internal17halide_trace_fileE = linkonce local_unnamed_addr global i32 -1, align 4
@_ZN6Halide7Runtime8Internal22halide_trace_file_lockE = linkonce global i8 0, align 1
@_ZN6Halide7Runtime8Internal29halide_trace_file_initializedE = linkonce local_unnamed_addr global i8 0, align 1
@_ZN6Halide7Runtime8Internal35halide_trace_file_internally_openedE = linkonce local_unnamed_addr global i8* null, align 8
@_ZN6Halide7Runtime8Internal19halide_custom_traceE = linkonce local_unnamed_addr global i32 (i8*, %struct.halide_trace_event_t*)* @halide_default_trace, align 8
@_ZZ20halide_default_traceE3ids = internal global i32 1, align 4
@.str.32 = private unnamed_addr constant [108 x i8] c"/home/sb54/halide-12/src/runtime/tracing.cpp:115 Assert failed: success && \22Could not write to trace file\22\0A\00", align 1
@.str.31 = private unnamed_addr constant [84 x i8] c"/home/sb54/halide-12/src/runtime/tracing.cpp:87 Assert failed: size <= buffer_size\0A\00", align 1
@.str.1.10 = private unnamed_addr constant [1 x i8] zeroinitializer, align 1
@.str.2.11 = private unnamed_addr constant [104 x i8] c"/home/sb54/halide-12/src/runtime/tracing.cpp:219 Assert failed: print_bits <= 64 && \22Tracing bad type\22\0A\00", align 1
@__const.halide_default_trace.event_types = private unnamed_addr constant [11 x i8*] [i8* getelementptr inbounds ([5 x i8], [5 x i8]* @.str.3.12, i32 0, i32 0), i8* getelementptr inbounds ([6 x i8], [6 x i8]* @.str.4.13, i32 0, i32 0), i8* getelementptr inbounds ([18 x i8], [18 x i8]* @.str.5.14, i32 0, i32 0), i8* getelementptr inbounds ([16 x i8], [16 x i8]* @.str.6.15, i32 0, i32 0), i8* getelementptr inbounds ([8 x i8], [8 x i8]* @.str.7.16, i32 0, i32 0), i8* getelementptr inbounds ([12 x i8], [12 x i8]* @.str.8.17, i32 0, i32 0), i8* getelementptr inbounds ([8 x i8], [8 x i8]* @.str.9.18, i32 0, i32 0), i8* getelementptr inbounds ([12 x i8], [12 x i8]* @.str.10, i32 0, i32 0), i8* getelementptr inbounds ([15 x i8], [15 x i8]* @.str.11, i32 0, i32 0), i8* getelementptr inbounds ([13 x i8], [13 x i8]* @.str.12, i32 0, i32 0), i8* getelementptr inbounds ([4 x i8], [4 x i8]* @.str.13, i32 0, i32 0)], align 8
@.str.17 = private unnamed_addr constant [2 x i8] c"<\00", align 1
@.str.20 = private unnamed_addr constant [3 x i8] c">)\00", align 1
@.str.18 = private unnamed_addr constant [5 x i8] c">, <\00", align 1
@.str.22 = private unnamed_addr constant [5 x i8] c" = <\00", align 1
@.str.23 = private unnamed_addr constant [4 x i8] c" = \00", align 1
@.str.24 = private unnamed_addr constant [106 x i8] c"/home/sb54/halide-12/src/runtime/tracing.cpp:288 Assert failed: print_bits >= 16 && \22Tracing a bad type\22\0A\00", align 1
@.str.25 = private unnamed_addr constant [2 x i8] c">\00", align 1
@.str.26 = private unnamed_addr constant [9 x i8] c" tag = \22\00", align 1
@.str.27 = private unnamed_addr constant [2 x i8] c"\22\00", align 1
@.str.3.12 = private unnamed_addr constant [5 x i8] c"Load\00", align 1
@.str.4.13 = private unnamed_addr constant [6 x i8] c"Store\00", align 1
@.str.5.14 = private unnamed_addr constant [18 x i8] c"Begin realization\00", align 1
@.str.6.15 = private unnamed_addr constant [16 x i8] c"End realization\00", align 1
@.str.7.16 = private unnamed_addr constant [8 x i8] c"Produce\00", align 1
@.str.8.17 = private unnamed_addr constant [12 x i8] c"End produce\00", align 1
@.str.9.18 = private unnamed_addr constant [8 x i8] c"Consume\00", align 1
@.str.10 = private unnamed_addr constant [12 x i8] c"End consume\00", align 1
@.str.11 = private unnamed_addr constant [15 x i8] c"Begin pipeline\00", align 1
@.str.12 = private unnamed_addr constant [13 x i8] c"End pipeline\00", align 1
@.str.13 = private unnamed_addr constant [4 x i8] c"Tag\00", align 1
@.str.28 = private unnamed_addr constant [14 x i8] c"HL_TRACE_FILE\00", align 1
@.str.29 = private unnamed_addr constant [3 x i8] c"ab\00", align 1
@.str.30 = private unnamed_addr constant [103 x i8] c"/home/sb54/halide-12/src/runtime/tracing.cpp:353 Assert failed: file && \22Failed to open trace file\\n\22\0A\00", align 1
@_ZN6Halide7Runtime8Internal30pixel_type_to_tiff_sample_typeE = linkonce local_unnamed_addr global [10 x i16] [i16 3, i16 3, i16 1, i16 2, i16 1, i16 2, i16 1, i16 2, i16 1, i16 2], align 2
@_ZN6Halide7Runtime8Internal31pixel_type_to_matlab_class_codeE = linkonce local_unnamed_addr global [10 x i8] c"\07\06\09\08\0B\0A\0D\0C\0F\0E", align 1
@_ZN6Halide7Runtime8Internal30pixel_type_to_matlab_type_codeE = linkonce local_unnamed_addr global [10 x i8] c"\07\09\02\01\04\03\06\05\0D\0C", align 1
@.str.35 = private unnamed_addr constant [51 x i8] c"Bounds query buffer passed to halide_debug_to_file\00", align 1
@.str.1.36 = private unnamed_addr constant [59 x i8] c"Can't debug_to_file a Func with more than four dimensions\0A\00", align 1
@.str.2.37 = private unnamed_addr constant [3 x i8] c"wb\00", align 1
@.str.3.38 = private unnamed_addr constant [6 x i8] c".tiff\00", align 1
@.str.4.39 = private unnamed_addr constant [5 x i8] c".tif\00", align 1
@.str.5.40 = private unnamed_addr constant [5 x i8] c".mat\00", align 1
@__const.halide_debug_to_file.header = private unnamed_addr constant [129 x i8] c"MATLAB 5.0 MAT-file, produced by Halide                                                                                     \00\01IM\00", align 1
@.str.6.41 = private unnamed_addr constant [53 x i8] c"Can't debug_to_file to a .mat file greater than 4GB\0A\00", align 1
@_ZN6Halide7Runtime8Internal16memoization_lockE = linkonce global %struct.halide_mutex zeroinitializer, align 8
@_ZN6Halide7Runtime8Internal13cache_entriesE = linkonce local_unnamed_addr global [256 x %"struct.Halide::Runtime::Internal::CacheEntry"*] zeroinitializer, align 8
@_ZN6Halide7Runtime8Internal18most_recently_usedE = linkonce local_unnamed_addr global %"struct.Halide::Runtime::Internal::CacheEntry"* null, align 8
@_ZN6Halide7Runtime8Internal19least_recently_usedE = linkonce local_unnamed_addr global %"struct.Halide::Runtime::Internal::CacheEntry"* null, align 8
@_ZN6Halide7Runtime8Internal14max_cache_sizeE = linkonce local_unnamed_addr global i64 1048576, align 8
@_ZN6Halide7Runtime8Internal18current_cache_sizeE = linkonce local_unnamed_addr global i64 0, align 8
@.str.1.43 = private unnamed_addr constant [90 x i8] c"/home/sb54/halide-12/src/runtime/cache.cpp:281 Assert failed: prev_hash_entry != nullptr\0A\00", align 1
@.str.2.44 = private unnamed_addr constant [93 x i8] c"/home/sb54/halide-12/src/runtime/cache.cpp:370 Assert failed: entry->more_recent != nullptr\0A\00", align 1
@.str.3.45 = private unnamed_addr constant [92 x i8] c"/home/sb54/halide-12/src/runtime/cache.cpp:374 Assert failed: least_recently_used == entry\0A\00", align 1
@.str.4.46 = private unnamed_addr constant [93 x i8] c"/home/sb54/halide-12/src/runtime/cache.cpp:377 Assert failed: entry->more_recent != nullptr\0A\00", align 1
@.str.8.47 = private unnamed_addr constant [86 x i8] c"/home/sb54/halide-12/src/runtime/cache.cpp:469 Assert failed: no_host_pointers_equal\0A\00", align 1
@.str.11.48 = private unnamed_addr constant [87 x i8] c"/home/sb54/halide-12/src/runtime/cache.cpp:547 Assert failed: entry->in_use_count > 0\0A\00", align 1
@.str.57 = private unnamed_addr constant [5 x i8] c"-nan\00", align 1
@.str.1.58 = private unnamed_addr constant [4 x i8] c"nan\00", align 1
@.str.2.59 = private unnamed_addr constant [5 x i8] c"-inf\00", align 1
@.str.3.60 = private unnamed_addr constant [4 x i8] c"inf\00", align 1
@.str.4.61 = private unnamed_addr constant [14 x i8] c"-0.000000e+00\00", align 1
@.str.5.62 = private unnamed_addr constant [13 x i8] c"0.000000e+00\00", align 1
@.str.6.63 = private unnamed_addr constant [10 x i8] c"-0.000000\00", align 1
@.str.7.64 = private unnamed_addr constant [9 x i8] c"0.000000\00", align 1
@.str.8.65 = private unnamed_addr constant [2 x i8] c"-\00", align 1
@.str.10.67 = private unnamed_addr constant [3 x i8] c"e+\00", align 1
@.str.11.68 = private unnamed_addr constant [3 x i8] c"e-\00", align 1
@.str.12.71 = private unnamed_addr constant [17 x i8] c"0123456789abcdef\00", align 1
@.str.17.72 = private unnamed_addr constant [14 x i8] c"bad_type_code\00", align 1
@.str.16.73 = private unnamed_addr constant [7 x i8] c"handle\00", align 1
@.str.15.74 = private unnamed_addr constant [6 x i8] c"float\00", align 1
@.str.14.75 = private unnamed_addr constant [5 x i8] c"uint\00", align 1
@.str.13.76 = private unnamed_addr constant [4 x i8] c"int\00", align 1
@.str.18.77 = private unnamed_addr constant [2 x i8] c"x\00", align 1
@.str.19.78 = private unnamed_addr constant [8 x i8] c"nullptr\00", align 1
@.str.20.79 = private unnamed_addr constant [8 x i8] c"buffer(\00", align 1
@.str.22.82 = private unnamed_addr constant [4 x i8] c", {\00", align 1
@.str.23.83 = private unnamed_addr constant [2 x i8] c"}\00", align 1
@_ZN6Halide7Runtime8Internal36halide_reuse_device_allocations_flagE = linkonce local_unnamed_addr global i8 1, align 1
@_ZN6Halide7Runtime8Internal21allocation_pools_lockE = linkonce global %struct.halide_mutex zeroinitializer, align 8
@_ZN6Halide7Runtime8Internal23device_allocation_poolsE = linkonce local_unnamed_addr global %struct.halide_device_allocation_pool* null, align 8
@_ZN6Halide7Runtime8Internal17device_copy_mutexE = linkonce global %struct.halide_mutex zeroinitializer, align 8
@.str.6.88 = private unnamed_addr constant [20 x i8] c"halide_copy_to_host\00", align 1
@.str.7.89 = private unnamed_addr constant [22 x i8] c"halide_copy_to_device\00", align 1
@.str.9.90 = private unnamed_addr constant [61 x i8] c"halide_copy_to_device does not support switching interfaces\0A\00", align 1
@.str.17.91 = private unnamed_addr constant [21 x i8] c"halide_device_malloc\00", align 1
@.str.20.92 = private unnamed_addr constant [59 x i8] c"halide_device_malloc doesn't support switching interfaces\0A\00", align 1
@.str.16.93 = private unnamed_addr constant [19 x i8] c"halide_device_sync\00", align 1
@.str.21.96 = private unnamed_addr constant [19 x i8] c"halide_device_free\00", align 1
@.str.22.97 = private unnamed_addr constant [91 x i8] c"/home/sb54/halide-12/src/runtime/device_interface.cpp:252 Assert failed: buf->device == 0\0A\00", align 1
@.str.23.98 = private unnamed_addr constant [30 x i8] c"halide_device_and_host_malloc\00", align 1
@.str.25.99 = private unnamed_addr constant [68 x i8] c"halide_device_and_host_malloc doesn't support switching interfaces\0A\00", align 1
@.str.26.100 = private unnamed_addr constant [42 x i8] c"allocating host and device memory failed\0A\00", align 1
@.str.27.101 = private unnamed_addr constant [28 x i8] c"halide_device_and_host_free\00", align 1
@.str.28.102 = private unnamed_addr constant [91 x i8] c"/home/sb54/halide-12/src/runtime/device_interface.cpp:317 Assert failed: buf->device == 0\0A\00", align 1
@.str.29.103 = private unnamed_addr constant [38 x i8] c"halide_default_device_and_host_malloc\00", align 1
@.str.30.104 = private unnamed_addr constant [36 x i8] c"halide_default_device_and_host_free\00", align 1
@.str.31.105 = private unnamed_addr constant [26 x i8] c"halide_device_wrap_native\00", align 1
@.str.32.106 = private unnamed_addr constant [64 x i8] c"halide_device_wrap_native doesn't support switching interfaces\0A\00", align 1
@.str.33.107 = private unnamed_addr constant [28 x i8] c"halide_device_detach_native\00", align 1
@.str.34.108 = private unnamed_addr constant [91 x i8] c"/home/sb54/halide-12/src/runtime/device_interface.cpp:403 Assert failed: buf->device == 0\0A\00", align 1
@.str.35.109 = private unnamed_addr constant [34 x i8] c"halide_default_device_wrap_native\00", align 1
@.str.36 = private unnamed_addr constant [36 x i8] c"halide_default_device_detach_native\00", align 1
@.str.42 = private unnamed_addr constant [64 x i8] c"halide_buffer_copy does not support switching device interfaces\00", align 1
@.str.58 = private unnamed_addr constant [44 x i8] c"device_interface does not support cropping\0A\00", align 1
@.str.59 = private unnamed_addr constant [43 x i8] c"device_interface does not support slicing\0A\00", align 1
@.str.60 = private unnamed_addr constant [52 x i8] c"destination buffer already has a device allocation\0A\00", align 1
@.str.61 = private unnamed_addr constant [48 x i8] c"src and dst must have identical dimensionality\0A\00", align 1
@.str.64 = private unnamed_addr constant [52 x i8] c"dst must have exactly one fewer dimension than src\0A\00", align 1
@.str.112 = private unnamed_addr constant [41 x i8] c"Bounds inference call to external stage \00", align 1
@.str.1.113 = private unnamed_addr constant [27 x i8] c" returned non-zero value: \00", align 1
@.str.2.114 = private unnamed_addr constant [24 x i8] c"Call to external stage \00", align 1
@.str.3.115 = private unnamed_addr constant [18 x i8] c"Bounds given for \00", align 1
@.str.4.116 = private unnamed_addr constant [5 x i8] c" in \00", align 1
@.str.5.117 = private unnamed_addr constant [8 x i8] c" (from \00", align 1
@.str.6.118 = private unnamed_addr constant [5 x i8] c" to \00", align 1
@.str.7.119 = private unnamed_addr constant [38 x i8] c") do not cover required region (from \00", align 1
@.str.8.120 = private unnamed_addr constant [2 x i8] c")\00", align 1
@.str.9.121 = private unnamed_addr constant [11 x i8] c" has type \00", align 1
@.str.10.122 = private unnamed_addr constant [38 x i8] c" but type of the buffer passed in is \00", align 1
@.str.11.123 = private unnamed_addr constant [31 x i8] c" requires a buffer of exactly \00", align 1
@.str.12.124 = private unnamed_addr constant [43 x i8] c" dimensions, but the buffer passed in has \00", align 1
@.str.13.125 = private unnamed_addr constant [12 x i8] c" dimensions\00", align 1
@.str.14.126 = private unnamed_addr constant [17 x i8] c" is accessed at \00", align 1
@.str.15.127 = private unnamed_addr constant [28 x i8] c", which is before the min (\00", align 1
@.str.16.128 = private unnamed_addr constant [16 x i8] c") in dimension \00", align 1
@.str.17.129 = private unnamed_addr constant [28 x i8] c", which is beyond the max (\00", align 1
@.str.18.130 = private unnamed_addr constant [29 x i8] c"Total allocation for buffer \00", align 1
@.str.19.131 = private unnamed_addr constant [5 x i8] c" is \00", align 1
@.str.20.132 = private unnamed_addr constant [37 x i8] c", which exceeds the maximum size of \00", align 1
@.str.21.133 = private unnamed_addr constant [24 x i8] c"The extents for buffer \00", align 1
@.str.22.134 = private unnamed_addr constant [12 x i8] c" dimension \00", align 1
@.str.23.135 = private unnamed_addr constant [15 x i8] c" is negative (\00", align 1
@.str.24.136 = private unnamed_addr constant [31 x i8] c"Product of extents for buffer \00", align 1
@.str.25.137 = private unnamed_addr constant [29 x i8] c"Applying the constraints on \00", align 1
@.str.26.138 = private unnamed_addr constant [54 x i8] c" to the required region made it smaller in dimension \00", align 1
@.str.27.139 = private unnamed_addr constant [3 x i8] c". \00", align 1
@.str.28.140 = private unnamed_addr constant [16 x i8] c"Required size: \00", align 1
@.str.29.141 = private unnamed_addr constant [19 x i8] c"Constrained size: \00", align 1
@.str.30.142 = private unnamed_addr constant [2 x i8] c".\00", align 1
@.str.31.143 = private unnamed_addr constant [22 x i8] c"Constraint violated: \00", align 1
@.str.32.144 = private unnamed_addr constant [3 x i8] c" (\00", align 1
@.str.33.145 = private unnamed_addr constant [6 x i8] c") == \00", align 1
@.str.34.146 = private unnamed_addr constant [11 x i8] c"Parameter \00", align 1
@.str.35.147 = private unnamed_addr constant [23 x i8] c" but must be at least \00", align 1
@.str.36.148 = private unnamed_addr constant [22 x i8] c" but must be at most \00", align 1
@.str.37 = private unnamed_addr constant [47 x i8] c"Out of memory (halide_malloc returned nullptr)\00", align 1
@.str.38 = private unnamed_addr constant [17 x i8] c"Buffer argument \00", align 1
@.str.39 = private unnamed_addr constant [12 x i8] c" is nullptr\00", align 1
@.str.40 = private unnamed_addr constant [25 x i8] c"Failed to dump function \00", align 1
@.str.41 = private unnamed_addr constant [10 x i8] c" to file \00", align 1
@.str.42.149 = private unnamed_addr constant [13 x i8] c" with error \00", align 1
@.str.43 = private unnamed_addr constant [21 x i8] c"The host pointer of \00", align 1
@.str.44 = private unnamed_addr constant [22 x i8] c" is not aligned to a \00", align 1
@.str.45 = private unnamed_addr constant [17 x i8] c" bytes boundary.\00", align 1
@.str.46 = private unnamed_addr constant [12 x i8] c"The buffer \00", align 1
@.str.47 = private unnamed_addr constant [53 x i8] c" is dirty on device, but this pipeline was compiled \00", align 1
@.str.48 = private unnamed_addr constant [43 x i8] c"with no support for device to host copies.\00", align 1
@.str.49 = private unnamed_addr constant [55 x i8] c" is null, but the pipeline will access it on the host.\00", align 1
@.str.50 = private unnamed_addr constant [30 x i8] c"The folded storage dimension \00", align 1
@.str.51 = private unnamed_addr constant [5 x i8] c" of \00", align 1
@.str.52 = private unnamed_addr constant [36 x i8] c" was accessed out of order by loop \00", align 1
@.str.53 = private unnamed_addr constant [23 x i8] c"Cannot fold dimension \00", align 1
@.str.54 = private unnamed_addr constant [36 x i8] c" because an extern stage accesses [\00", align 1
@.str.55 = private unnamed_addr constant [3 x i8] c", \00", align 1
@.str.56 = private unnamed_addr constant [3 x i8] c"],\00", align 1
@.str.57.150 = private unnamed_addr constant [47 x i8] c" which is outside the range currently valid: [\00", align 1
@.str.58.151 = private unnamed_addr constant [3 x i8] c"].\00", align 1
@.str.59.152 = private unnamed_addr constant [47 x i8] c" which wraps around the boundary of the fold, \00", align 1
@.str.60.153 = private unnamed_addr constant [30 x i8] c"which occurs at multiples of \00", align 1
@.str.61.154 = private unnamed_addr constant [18 x i8] c"The fold factor (\00", align 1
@.str.62 = private unnamed_addr constant [16 x i8] c") of dimension \00", align 1
@.str.63 = private unnamed_addr constant [61 x i8] c" is too small to store the required region accessed by loop \00", align 1
@.str.64.155 = private unnamed_addr constant [3 x i8] c").\00", align 1
@.str.65 = private unnamed_addr constant [22 x i8] c"Requirement Failed: (\00", align 1
@.str.66 = private unnamed_addr constant [3 x i8] c") \00", align 1
@.str.67 = private unnamed_addr constant [59 x i8] c"A schedule specialized with specialize_fail() was chosen: \00", align 1
@.str.68 = private unnamed_addr constant [55 x i8] c"Buffer has a non-zero device but no device interface.\0A\00", align 1
@.str.69 = private unnamed_addr constant [57 x i8] c"Buffer has a non-null device_interface but device is 0.\0A\00", align 1
@.str.70 = private unnamed_addr constant [49 x i8] c"Buffer has both host and device dirty bits set.\0A\00", align 1
@.str.71 = private unnamed_addr constant [26 x i8] c"Buffer pointer passed to \00", align 1
@.str.72 = private unnamed_addr constant [11 x i8] c" is null.\0A\00", align 1
@.str.29.165 = private unnamed_addr constant [35 x i8] c"Printer buffer allocation failed.\0A\00", align 1
@.str.30.166 = private unnamed_addr constant [10 x i8] c"<nullptr>\00", align 1
@.str.7.167 = private unnamed_addr constant [2 x i8] c"\0A\00", align 1
@.str.8.168 = private unnamed_addr constant [14 x i8] c" total time: \00", align 1
@.str.9.169 = private unnamed_addr constant [4 x i8] c" ms\00", align 1
@.str.10.170 = private unnamed_addr constant [12 x i8] c"  samples: \00", align 1
@.str.11.171 = private unnamed_addr constant [9 x i8] c"  runs: \00", align 1
@.str.12.172 = private unnamed_addr constant [13 x i8] c"  time/run: \00", align 1
@.str.13.173 = private unnamed_addr constant [5 x i8] c" ms\0A\00", align 1
@.str.14.174 = private unnamed_addr constant [24 x i8] c" average threads used: \00", align 1
@.str.15.175 = private unnamed_addr constant [20 x i8] c" heap allocations: \00", align 1
@.str.16.176 = private unnamed_addr constant [20 x i8] c"  peak heap usage: \00", align 1
@.str.17.177 = private unnamed_addr constant [8 x i8] c" bytes\0A\00", align 1
@.str.18.178 = private unnamed_addr constant [3 x i8] c"  \00", align 1
@.str.19.179 = private unnamed_addr constant [3 x i8] c": \00", align 1
@.str.20.180 = private unnamed_addr constant [2 x i8] c" \00", align 1
@.str.21.181 = private unnamed_addr constant [3 x i8] c"ms\00", align 1
@.str.22.182 = private unnamed_addr constant [2 x i8] c"(\00", align 1
@.str.23.183 = private unnamed_addr constant [3 x i8] c"%)\00", align 1
@.str.24.184 = private unnamed_addr constant [10 x i8] c"threads: \00", align 1
@.str.25.185 = private unnamed_addr constant [8 x i8] c" peak: \00", align 1
@.str.26.186 = private unnamed_addr constant [7 x i8] c" num: \00", align 1
@.str.27.187 = private unnamed_addr constant [7 x i8] c" avg: \00", align 1
@.str.28.188 = private unnamed_addr constant [9 x i8] c" stack: \00", align 1
@_ZZ25halide_profiler_get_stateE1s = internal global %struct.halide_profiler_state { %struct.halide_mutex zeroinitializer, i32 1, i32 0, i32 0, i32 0, %struct.halide_profiler_pipeline_stats* null, void (i32*, i32*)* null, %struct.halide_thread* null }, align 8
@.str.189 = private unnamed_addr constant [85 x i8] c"/home/sb54/halide-12/src/runtime/profiler.cpp:207 Assert failed: p_stats != nullptr\0A\00", align 1
@.str.1.190 = private unnamed_addr constant [85 x i8] c"/home/sb54/halide-12/src/runtime/profiler.cpp:234 Assert failed: p_stats != nullptr\0A\00", align 1
@.str.2.191 = private unnamed_addr constant [79 x i8] c"/home/sb54/halide-12/src/runtime/profiler.cpp:235 Assert failed: func_id >= 0\0A\00", align 1
@.str.3.192 = private unnamed_addr constant [95 x i8] c"/home/sb54/halide-12/src/runtime/profiler.cpp:236 Assert failed: func_id < p_stats->num_funcs\0A\00", align 1
@.str.4.193 = private unnamed_addr constant [85 x i8] c"/home/sb54/halide-12/src/runtime/profiler.cpp:270 Assert failed: p_stats != nullptr\0A\00", align 1
@.str.5.194 = private unnamed_addr constant [79 x i8] c"/home/sb54/halide-12/src/runtime/profiler.cpp:271 Assert failed: func_id >= 0\0A\00", align 1
@.str.6.195 = private unnamed_addr constant [95 x i8] c"/home/sb54/halide-12/src/runtime/profiler.cpp:272 Assert failed: func_id < p_stats->num_funcs\0A\00", align 1
@_ZN6Halide7Runtime8Internal30custom_can_use_target_featuresE = linkonce local_unnamed_addr global i32 (i32, i64*)* @halide_default_can_use_target_features, align 8
@_ZN6Halide7Runtime8Internal36halide_cpu_features_initialized_lockE = linkonce global %struct.halide_mutex zeroinitializer, align 8
@_ZN6Halide7Runtime8Internal31halide_cpu_features_initializedE = linkonce local_unnamed_addr global i8 0, align 1
@_ZN6Halide7Runtime8Internal27halide_cpu_features_storageE = linkonce global [4 x i64] zeroinitializer, align 8
@.str.200 = private unnamed_addr constant [81 x i8] c"Internal error: wrong structure size passed to halide_can_use_target_features()\0A\00", align 1
@str = private constant [7 x i8] c"output\00", align 32
@str.203 = private constant [6 x i8] c"input\00", align 32
@str.204 = private constant [19 x i8] c"Input buffer input\00", align 32
@str.205 = private constant [21 x i8] c"Output buffer output\00", align 32
@str.206 = private constant [15 x i8] c"input.stride.0\00", align 32
@str.207 = private constant [2 x i8] c"1\00", align 32
@str.208 = private constant [16 x i8] c"output.stride.0\00", align 32
@str.209 = private constant [12 x i8] c"repeat_edge\00", align 32
@0 = private constant i64 0
@1 = private constant i64 1920
@2 = private constant i64 0
@3 = private constant i64 1080
@4 = private constant [4 x i64*] [i64* @0, i64* @1, i64* @2, i64* @3]
@5 = private constant i64 0
@6 = private constant i64 1920
@7 = private constant i64 0
@8 = private constant i64 1080
@9 = private constant [4 x i64*] [i64* @5, i64* @6, i64* @7, i64* @8]
@10 = private constant [2 x %struct.halide_filter_argument_t] [%struct.halide_filter_argument_t { i8* getelementptr inbounds ([6 x i8], [6 x i8]* @str.203, i32 0, i32 0), i32 1, i32 2, %struct.halide_type_t { i8 1, i8 8, i16 1 }, %struct.halide_scalar_value_t* null, %struct.halide_scalar_value_t* null, %struct.halide_scalar_value_t* null, %struct.halide_scalar_value_t* null, i64** getelementptr inbounds ([4 x i64*], [4 x i64*]* @4, i32 0, i32 0) }, %struct.halide_filter_argument_t { i8* getelementptr inbounds ([7 x i8], [7 x i8]* @str, i32 0, i32 0), i32 2, i32 2, %struct.halide_type_t { i8 1, i8 8, i16 1 }, %struct.halide_scalar_value_t* null, %struct.halide_scalar_value_t* null, %struct.halide_scalar_value_t* null, %struct.halide_scalar_value_t* null, i64** getelementptr inbounds ([4 x i64*], [4 x i64*]* @9, i32 0, i32 0) }]
@str.210 = private constant [121 x i8] c"x86-64-linux-avx-avx2-avx512-avx512_cannonlake-avx512_sapphirerapids-avx512_skylake-disable_llvm_loop_opt-f16c-fma-sse41\00", align 64
@str.211 = private constant [32 x i8] c"sobel5x5_batch_0054_sample_0008\00", align 32
@sobel5x5_batch_0054_sample_0008_metadata_storage = private constant %struct.halide_filter_metadata_t { i32 1, i32 2, %struct.halide_filter_argument_t* getelementptr inbounds ([2 x %struct.halide_filter_argument_t], [2 x %struct.halide_filter_argument_t]* @10, i32 0, i32 0), i8* getelementptr inbounds ([121 x i8], [121 x i8]* @str.210, i32 0, i32 0), i8* getelementptr inbounds ([32 x i8], [32 x i8]* @str.211, i32 0, i32 0) }
@switch.table.halide_type_to_string = private unnamed_addr constant [4 x i8*] [i8* getelementptr inbounds ([4 x i8], [4 x i8]* @.str.13.76, i64 0, i64 0), i8* getelementptr inbounds ([5 x i8], [5 x i8]* @.str.14.75, i64 0, i64 0), i8* getelementptr inbounds ([6 x i8], [6 x i8]* @.str.15.74, i64 0, i64 0), i8* getelementptr inbounds ([7 x i8], [7 x i8]* @.str.16.73, i64 0, i64 0)], align 8

; Function Attrs: nounwind mustprogress
define weak i8* @halide_default_malloc(i8* %0, i64 %1) #0 {
  %3 = add i64 %1, 64
  %4 = tail call i8* @malloc(i64 %3) #12
  %5 = icmp eq i8* %4, null
  br i1 %5, label %13, label %6

6:                                                ; preds = %2
  %7 = ptrtoint i8* %4 to i64
  %8 = add i64 %7, 71
  %9 = and i64 %8, -64
  %10 = inttoptr i64 %9 to i8*
  %11 = inttoptr i64 %9 to i8**
  %12 = getelementptr inbounds i8*, i8** %11, i64 -1
  store i8* %4, i8** %12, align 8, !tbaa !10
  br label %13

13:                                               ; preds = %6, %2
  %14 = phi i8* [ %10, %6 ], [ null, %2 ]
  ret i8* %14
}

declare i8* @malloc(i64) local_unnamed_addr #1

; Function Attrs: nounwind mustprogress
define weak void @halide_default_free(i8* %0, i8* %1) #0 {
  %3 = getelementptr inbounds i8, i8* %1, i64 -8
  %4 = bitcast i8* %3 to i8**
  %5 = load i8*, i8** %4, align 8, !tbaa !10
  tail call void @free(i8* %5) #12
  ret void
}

declare void @free(i8*) local_unnamed_addr #1

; Function Attrs: nounwind willreturn mustprogress
define weak i8* (i8*, i64)* @halide_set_custom_malloc(i8* (i8*, i64)* %0) local_unnamed_addr #2 {
  %2 = load i8* (i8*, i64)*, i8* (i8*, i64)** @_ZN6Halide7Runtime8Internal13custom_mallocE, align 8, !tbaa !10
  store i8* (i8*, i64)* %0, i8* (i8*, i64)** @_ZN6Halide7Runtime8Internal13custom_mallocE, align 8, !tbaa !10
  ret i8* (i8*, i64)* %2
}

; Function Attrs: nounwind willreturn mustprogress
define weak void (i8*, i8*)* @halide_set_custom_free(void (i8*, i8*)* %0) local_unnamed_addr #2 {
  %2 = load void (i8*, i8*)*, void (i8*, i8*)** @_ZN6Halide7Runtime8Internal11custom_freeE, align 8, !tbaa !10
  store void (i8*, i8*)* %0, void (i8*, i8*)** @_ZN6Halide7Runtime8Internal11custom_freeE, align 8, !tbaa !10
  ret void (i8*, i8*)* %2
}

; Function Attrs: nounwind mustprogress
define weak i8* @halide_malloc(i8* %0, i64 %1) local_unnamed_addr #0 {
  %3 = load i8* (i8*, i64)*, i8* (i8*, i64)** @_ZN6Halide7Runtime8Internal13custom_mallocE, align 8, !tbaa !10
  %4 = tail call i8* %3(i8* %0, i64 %1) #12
  ret i8* %4
}

; Function Attrs: nounwind mustprogress
define weak void @halide_free(i8* %0, i8* %1) local_unnamed_addr #0 {
  %3 = load void (i8*, i8*)*, void (i8*, i8*)** @_ZN6Halide7Runtime8Internal11custom_freeE, align 8, !tbaa !10
  tail call void %3(i8* %0, i8* %1) #12
  ret void
}

; Function Attrs: nounwind mustprogress
define weak void @halide_default_error(i8* %0, i8* %1) #0 {
  %3 = alloca [4096 x i8], align 1
  %4 = getelementptr inbounds [4096 x i8], [4096 x i8]* %3, i64 0, i64 0
  call void @llvm.lifetime.start.p0i8(i64 4096, i8* nonnull %4) #10
  %5 = getelementptr inbounds [4096 x i8], [4096 x i8]* %3, i64 0, i64 4094
  %6 = call i8* @halide_string_to_string(i8* nonnull %4, i8* nonnull %5, i8* getelementptr inbounds ([8 x i8], [8 x i8]* @.str, i64 0, i64 0)) #12
  %7 = getelementptr inbounds i8, i8* %6, i64 4094
  %8 = call i8* @halide_string_to_string(i8* %6, i8* nonnull %7, i8* %1) #12
  %9 = getelementptr inbounds i8, i8* %8, i64 -1
  %10 = load i8, i8* %9, align 1, !tbaa !14
  %11 = icmp eq i8 %10, 10
  br i1 %11, label %14, label %12

12:                                               ; preds = %2
  store i8 10, i8* %8, align 1, !tbaa !14
  %13 = getelementptr inbounds i8, i8* %8, i64 1
  store i8 0, i8* %13, align 1, !tbaa !14
  br label %14

14:                                               ; preds = %12, %2
  %15 = phi i8* [ %13, %12 ], [ %8, %2 ]
  %16 = ptrtoint i8* %15 to i64
  %17 = ptrtoint [4096 x i8]* %3 to i64
  %18 = sub i64 1, %17
  %19 = add i64 %18, %16
  %20 = call i32 @halide_msan_annotate_memory_is_initialized(i8* %0, i8* nonnull %4, i64 %19) #12
  call void @halide_print(i8* %0, i8* nonnull %4) #12
  call void @abort() #12
  call void @llvm.lifetime.end.p0i8(i64 4096, i8* nonnull %4) #10
  ret void
}

; Function Attrs: argmemonly nofree nosync nounwind willreturn
declare void @llvm.lifetime.start.p0i8(i64 immarg, i8* nocapture) #3

declare void @abort() local_unnamed_addr #1

; Function Attrs: argmemonly nofree nosync nounwind willreturn
declare void @llvm.lifetime.end.p0i8(i64 immarg, i8* nocapture) #3

; Function Attrs: nounwind mustprogress
define weak void @halide_error(i8* %0, i8* %1) local_unnamed_addr #0 {
  %3 = load void (i8*, i8*)*, void (i8*, i8*)** @_ZN6Halide7Runtime8Internal13error_handlerE, align 8, !tbaa !10
  tail call void %3(i8* %0, i8* %1) #12
  ret void
}

; Function Attrs: nounwind willreturn mustprogress
define weak void (i8*, i8*)* @halide_set_error_handler(void (i8*, i8*)* %0) local_unnamed_addr #2 {
  %2 = load void (i8*, i8*)*, void (i8*, i8*)** @_ZN6Halide7Runtime8Internal13error_handlerE, align 8, !tbaa !10
  store void (i8*, i8*)* %0, void (i8*, i8*)** @_ZN6Halide7Runtime8Internal13error_handlerE, align 8, !tbaa !10
  ret void (i8*, i8*)* %2
}

; Function Attrs: nounwind mustprogress
define weak void @halide_print(i8* %0, i8* %1) local_unnamed_addr #0 {
  %3 = load void (i8*, i8*)*, void (i8*, i8*)** @_ZN6Halide7Runtime8Internal12custom_printE, align 8, !tbaa !10
  tail call void %3(i8* %0, i8* %1) #12
  ret void
}

; Function Attrs: nounwind willreturn mustprogress
define weak void (i8*, i8*)* @halide_set_custom_print(void (i8*, i8*)* %0) local_unnamed_addr #2 {
  %2 = load void (i8*, i8*)*, void (i8*, i8*)** @_ZN6Halide7Runtime8Internal12custom_printE, align 8, !tbaa !10
  store void (i8*, i8*)* %0, void (i8*, i8*)** @_ZN6Halide7Runtime8Internal12custom_printE, align 8, !tbaa !10
  ret void (i8*, i8*)* %2
}

; Function Attrs: nounwind mustprogress
define weak i32 @halide_start_clock(i8* %0) local_unnamed_addr #0 {
  %2 = load i8, i8* @halide_reference_clock_inited, align 1, !tbaa !15, !range !17
  %3 = icmp eq i8 %2, 0
  br i1 %3, label %4, label %6

4:                                                ; preds = %1
  %5 = tail call i32 (i32, ...) @syscall(i32 228, i32 0, %struct.timespec* nonnull @halide_reference_clock) #12
  store i8 1, i8* @halide_reference_clock_inited, align 1, !tbaa !15
  br label %6

6:                                                ; preds = %4, %1
  ret i32 0
}

declare i32 @syscall(i32, ...) local_unnamed_addr #1

; Function Attrs: nounwind mustprogress
define weak i64 @halide_current_time_ns(i8* %0) local_unnamed_addr #0 {
  %2 = alloca <2 x i64>, align 16
  %3 = bitcast <2 x i64>* %2 to i8*
  call void @llvm.lifetime.start.p0i8(i64 16, i8* nonnull %3) #10
  %4 = call i32 (i32, ...) @syscall(i32 228, i32 0, <2 x i64>* nonnull %2) #12
  %5 = load <2 x i64>, <2 x i64>* %2, align 16, !tbaa !18
  %6 = load <2 x i64>, <2 x i64>* bitcast (%struct.timespec* @halide_reference_clock to <2 x i64>*), align 8, !tbaa !18
  %7 = sub <2 x i64> %5, %6
  %8 = extractelement <2 x i64> %7, i32 0
  %9 = mul nsw i64 %8, 1000000000
  %10 = extractelement <2 x i64> %7, i32 1
  %11 = add nsw i64 %9, %10
  call void @llvm.lifetime.end.p0i8(i64 16, i8* nonnull %3) #10
  ret i64 %11
}

; Function Attrs: nounwind mustprogress
define weak void @halide_sleep_ms(i8* %0, i32 %1) local_unnamed_addr #0 {
  %3 = mul nsw i32 %1, 1000
  %4 = tail call i32 @usleep(i32 %3) #12
  ret void
}

declare i32 @usleep(i32) local_unnamed_addr #1

; Function Attrs: nounwind mustprogress
define weak void @halide_default_print(i8* %0, i8* %1) #0 {
  %3 = tail call i64 @strlen(i8* %1) #12
  %4 = tail call i64 @write(i32 1, i8* %1, i64 %3) #12
  ret void
}

declare i64 @strlen(i8*) local_unnamed_addr #1

declare i64 @write(i32, i8*, i64) local_unnamed_addr #1

; Function Attrs: nounwind mustprogress
define weak i32 @halide_host_cpu_count() local_unnamed_addr #0 {
  %1 = tail call i64 @sysconf(i32 84) #12
  %2 = trunc i64 %1 to i32
  ret i32 %2
}

declare i64 @sysconf(i32) local_unnamed_addr #1

; Function Attrs: nounwind mustprogress
define weak void @halide_thread_yield() local_unnamed_addr #0 {
  %1 = tail call i32 @sched_yield() #12
  ret void
}

declare i32 @sched_yield() local_unnamed_addr #1

; Function Attrs: nounwind mustprogress
define weak i32 @halide_default_do_task(i8* %0, i32 (i8*, i32, i8*)* %1, i32 %2, i8* %3) #0 {
  %5 = tail call i32 %1(i8* %0, i32 %2, i8* %3) #12
  ret i32 %5
}

; Function Attrs: nounwind mustprogress
define weak i32 @halide_default_do_loop_task(i8* %0, i32 (i8*, i32, i32, i8*, i8*)* %1, i32 %2, i32 %3, i8* %4, i8* %5) #0 {
  %7 = tail call i32 %1(i8* %0, i32 %2, i32 %3, i8* %4, i8* %5) #12
  ret i32 %7
}

; Function Attrs: nounwind mustprogress
define weak i32 @halide_default_do_par_for(i8* %0, i32 (i8*, i32, i8*)* %1, i32 %2, i32 %3, i8* %4) #0 {
  %6 = alloca %"struct.Halide::Runtime::Internal::work", align 8
  %7 = icmp slt i32 %3, 1
  br i1 %7, label %29, label %8

8:                                                ; preds = %5
  %9 = bitcast %"struct.Halide::Runtime::Internal::work"* %6 to i8*
  call void @llvm.lifetime.start.p0i8(i64 128, i8* nonnull %9) #10
  %10 = getelementptr inbounds %"struct.Halide::Runtime::Internal::work", %"struct.Halide::Runtime::Internal::work"* %6, i64 0, i32 0, i32 0
  store i32 (i8*, i32, i32, i8*, i8*)* null, i32 (i8*, i32, i32, i8*, i8*)** %10, align 8, !tbaa !20
  %11 = getelementptr inbounds %"struct.Halide::Runtime::Internal::work", %"struct.Halide::Runtime::Internal::work"* %6, i64 0, i32 0, i32 5
  store i32 %2, i32* %11, align 4, !tbaa !24
  %12 = getelementptr inbounds %"struct.Halide::Runtime::Internal::work", %"struct.Halide::Runtime::Internal::work"* %6, i64 0, i32 0, i32 6
  store i32 %3, i32* %12, align 8, !tbaa !25
  %13 = getelementptr inbounds %"struct.Halide::Runtime::Internal::work", %"struct.Halide::Runtime::Internal::work"* %6, i64 0, i32 0, i32 8
  store i8 0, i8* %13, align 8, !tbaa !26
  %14 = getelementptr inbounds %"struct.Halide::Runtime::Internal::work", %"struct.Halide::Runtime::Internal::work"* %6, i64 0, i32 0, i32 3
  store %struct.halide_semaphore_acquire_t* null, %struct.halide_semaphore_acquire_t** %14, align 8, !tbaa !27
  %15 = getelementptr inbounds %"struct.Halide::Runtime::Internal::work", %"struct.Halide::Runtime::Internal::work"* %6, i64 0, i32 0, i32 4
  store i32 0, i32* %15, align 8, !tbaa !28
  %16 = getelementptr inbounds %"struct.Halide::Runtime::Internal::work", %"struct.Halide::Runtime::Internal::work"* %6, i64 0, i32 0, i32 1
  store i8* %4, i8** %16, align 8, !tbaa !29
  %17 = getelementptr inbounds %"struct.Halide::Runtime::Internal::work", %"struct.Halide::Runtime::Internal::work"* %6, i64 0, i32 0, i32 7
  store i32 0, i32* %17, align 4, !tbaa !30
  %18 = getelementptr inbounds %"struct.Halide::Runtime::Internal::work", %"struct.Halide::Runtime::Internal::work"* %6, i64 0, i32 0, i32 2
  store i8* null, i8** %18, align 8, !tbaa !31
  %19 = getelementptr inbounds %"struct.Halide::Runtime::Internal::work", %"struct.Halide::Runtime::Internal::work"* %6, i64 0, i32 1
  store i32 (i8*, i32, i8*)* %1, i32 (i8*, i32, i8*)** %19, align 8, !tbaa !32
  %20 = getelementptr inbounds %"struct.Halide::Runtime::Internal::work", %"struct.Halide::Runtime::Internal::work"* %6, i64 0, i32 7
  store i8* %0, i8** %20, align 8, !tbaa !33
  %21 = getelementptr inbounds %"struct.Halide::Runtime::Internal::work", %"struct.Halide::Runtime::Internal::work"* %6, i64 0, i32 9
  store i32 0, i32* %21, align 4, !tbaa !34
  %22 = getelementptr inbounds %"struct.Halide::Runtime::Internal::work", %"struct.Halide::Runtime::Internal::work"* %6, i64 0, i32 8
  store i32 0, i32* %22, align 8, !tbaa !35
  %23 = getelementptr inbounds %"struct.Halide::Runtime::Internal::work", %"struct.Halide::Runtime::Internal::work"* %6, i64 0, i32 10
  store i32 0, i32* %23, align 8, !tbaa !36
  %24 = getelementptr inbounds %"struct.Halide::Runtime::Internal::work", %"struct.Halide::Runtime::Internal::work"* %6, i64 0, i32 11
  store i8 0, i8* %24, align 4, !tbaa !37
  %25 = getelementptr inbounds %"struct.Halide::Runtime::Internal::work", %"struct.Halide::Runtime::Internal::work"* %6, i64 0, i32 3
  store %"struct.Halide::Runtime::Internal::work"* %6, %"struct.Halide::Runtime::Internal::work"** %25, align 8, !tbaa !38
  %26 = getelementptr inbounds %"struct.Halide::Runtime::Internal::work", %"struct.Halide::Runtime::Internal::work"* %6, i64 0, i32 4
  store i32 0, i32* %26, align 8, !tbaa !39
  %27 = getelementptr inbounds %"struct.Halide::Runtime::Internal::work", %"struct.Halide::Runtime::Internal::work"* %6, i64 0, i32 5
  store %"struct.Halide::Runtime::Internal::work"* null, %"struct.Halide::Runtime::Internal::work"** %27, align 8, !tbaa !40
  call void @halide_mutex_lock(%struct.halide_mutex* getelementptr inbounds (%"struct.Halide::Runtime::Internal::work_queue_t", %"struct.Halide::Runtime::Internal::work_queue_t"* @_ZN6Halide7Runtime8Internal10work_queueE, i64 0, i32 0)) #13
  call void @_ZN6Halide7Runtime8Internal27enqueue_work_already_lockedEiPNS1_4workES3_(i32 1, %"struct.Halide::Runtime::Internal::work"* nonnull %6, %"struct.Halide::Runtime::Internal::work"* null) #13
  call void @_ZN6Halide7Runtime8Internal28worker_thread_already_lockedEPNS1_4workE(%"struct.Halide::Runtime::Internal::work"* nonnull %6) #13
  call void @halide_mutex_unlock(%struct.halide_mutex* getelementptr inbounds (%"struct.Halide::Runtime::Internal::work_queue_t", %"struct.Halide::Runtime::Internal::work_queue_t"* @_ZN6Halide7Runtime8Internal10work_queueE, i64 0, i32 0)) #13
  %28 = load i32, i32* %21, align 4, !tbaa !34
  call void @llvm.lifetime.end.p0i8(i64 128, i8* nonnull %9) #10
  br label %29

29:                                               ; preds = %8, %5
  %30 = phi i32 [ %28, %8 ], [ 0, %5 ]
  ret i32 %30
}

; Function Attrs: nounwind
define weak void @halide_mutex_lock(%struct.halide_mutex* %0) local_unnamed_addr #4 {
  %2 = alloca %"struct.Halide::Runtime::Internal::Synchronization::mutex_parking_control", align 8
  %3 = getelementptr %struct.halide_mutex, %struct.halide_mutex* %0, i64 0, i32 0, i64 0
  %4 = cmpxchg weak i64* %3, i64 0, i64 1 acquire monotonic
  %5 = extractvalue { i64, i1 } %4, 1
  br i1 %5, label %.loopexit, label %6

6:                                                ; preds = %1
  %7 = load atomic i64, i64* %3 monotonic, align 8
  %8 = bitcast %"struct.Halide::Runtime::Internal::Synchronization::mutex_parking_control"* %2 to i8*
  %9 = getelementptr inbounds %"struct.Halide::Runtime::Internal::Synchronization::mutex_parking_control", %"struct.Halide::Runtime::Internal::Synchronization::mutex_parking_control"* %2, i64 0, i32 0, i32 0
  %10 = getelementptr inbounds %"struct.Halide::Runtime::Internal::Synchronization::mutex_parking_control", %"struct.Halide::Runtime::Internal::Synchronization::mutex_parking_control"* %2, i64 0, i32 0, i32 1
  %11 = getelementptr inbounds %"struct.Halide::Runtime::Internal::Synchronization::mutex_parking_control", %"struct.Halide::Runtime::Internal::Synchronization::mutex_parking_control"* %2, i64 0, i32 0, i32 2
  %12 = getelementptr inbounds %"struct.Halide::Runtime::Internal::Synchronization::mutex_parking_control", %"struct.Halide::Runtime::Internal::Synchronization::mutex_parking_control"* %2, i64 0, i32 0, i32 3
  %13 = getelementptr inbounds %"struct.Halide::Runtime::Internal::Synchronization::mutex_parking_control", %"struct.Halide::Runtime::Internal::Synchronization::mutex_parking_control"* %2, i64 0, i32 1
  %14 = ptrtoint %struct.halide_mutex* %0 to i64
  %15 = getelementptr inbounds %"struct.Halide::Runtime::Internal::Synchronization::mutex_parking_control", %"struct.Halide::Runtime::Internal::Synchronization::mutex_parking_control"* %2, i64 0, i32 0
  br label %16

16:                                               ; preds = %.backedge, %6
  %17 = phi i64 [ %7, %6 ], [ %.be, %.backedge ]
  %18 = phi i32 [ 40, %6 ], [ %.be6, %.backedge ]
  %19 = and i64 %17, 1
  %20 = icmp eq i64 %19, 0
  br i1 %20, label %.preheader, label %.loopexit1

.preheader:                                       ; preds = %25, %16
  %21 = phi i64 [ %26, %25 ], [ %17, %16 ]
  %22 = or i64 %21, 1
  %23 = cmpxchg weak i64* %3, i64 %21, i64 %22 acquire monotonic
  %24 = extractvalue { i64, i1 } %23, 1
  br i1 %24, label %.loopexit, label %25

25:                                               ; preds = %.preheader
  %26 = extractvalue { i64, i1 } %23, 0
  %27 = and i64 %26, 1
  %28 = icmp eq i64 %27, 0
  br i1 %28, label %.preheader, label %.loopexit1.loopexit

.loopexit1.loopexit:                              ; preds = %25
  %29 = extractvalue { i64, i1 } %23, 0
  br label %.loopexit1

.loopexit1:                                       ; preds = %.loopexit1.loopexit, %16
  %30 = phi i64 [ %17, %16 ], [ %29, %.loopexit1.loopexit ]
  %31 = icmp sgt i32 %18, 0
  br i1 %31, label %32, label %37

32:                                               ; preds = %.loopexit1
  %33 = icmp eq i32 %18, 1
  br i1 %33, label %37, label %34

34:                                               ; preds = %32
  %35 = add nsw i32 %18, -1
  call void @halide_thread_yield() #12
  %36 = load atomic i64, i64* %3 monotonic, align 8
  br label %.backedge

37:                                               ; preds = %32, %.loopexit1
  %38 = phi i32 [ 0, %32 ], [ %18, %.loopexit1 ]
  %39 = and i64 %30, 2
  %40 = icmp eq i64 %39, 0
  br i1 %40, label %41, label %47

41:                                               ; preds = %37
  %42 = or i64 %30, 2
  %43 = cmpxchg weak i64* %3, i64 %30, i64 %42 monotonic monotonic
  %44 = extractvalue { i64, i1 } %43, 1
  br i1 %44, label %47, label %45

45:                                               ; preds = %41
  %46 = extractvalue { i64, i1 } %43, 0
  br label %.backedge

47:                                               ; preds = %41, %37
  call void @llvm.lifetime.start.p0i8(i64 40, i8* nonnull %8) #10
  store void (i8*)* @_ZN6Halide7Runtime8Internal15Synchronization28parking_control_before_sleepEPv, void (i8*)** %10, align 8, !tbaa !41
  store void (i8*, %"struct.Halide::Runtime::Internal::Synchronization::validate_action"*, i1, i1)* @_ZN6Halide7Runtime8Internal15Synchronization32parking_control_requeue_callbackEPvRKNS2_15validate_actionEbb, void (i8*, %"struct.Halide::Runtime::Internal::Synchronization::validate_action"*, i1, i1)** %12, align 8, !tbaa !43
  store i64* %3, i64** %13, align 8, !tbaa !44
  store i1 (i8*, %"struct.Halide::Runtime::Internal::Synchronization::validate_action"*)* @_ZN6Halide7Runtime8Internal15Synchronization30mutex_parking_control_validateEPvRNS2_15validate_actionE, i1 (i8*, %"struct.Halide::Runtime::Internal::Synchronization::validate_action"*)** %9, align 8, !tbaa !46
  store i64 (i8*, i32, i1)* @_ZN6Halide7Runtime8Internal15Synchronization28mutex_parking_control_unparkEPvib, i64 (i8*, i32, i1)** %11, align 8, !tbaa !47
  %48 = call i64 @_ZN6Halide7Runtime8Internal15Synchronization4parkEyRNS2_15parking_controlE(i64 %14, %"struct.Halide::Runtime::Internal::Synchronization::parking_control"* nonnull align 8 dereferenceable(32) %15) #12
  %49 = icmp eq i64 %48, %14
  br i1 %49, label %52, label %50

50:                                               ; preds = %47
  %51 = load atomic i64, i64* %3 monotonic, align 8
  call void @llvm.lifetime.end.p0i8(i64 40, i8* nonnull %8) #10
  br label %.backedge

.backedge:                                        ; preds = %50, %45, %34
  %.be = phi i64 [ %46, %45 ], [ %51, %50 ], [ %36, %34 ]
  %.be6 = phi i32 [ %38, %45 ], [ 40, %50 ], [ %35, %34 ]
  br label %16

52:                                               ; preds = %47
  call void @llvm.lifetime.end.p0i8(i64 40, i8* nonnull %8) #10
  br label %.loopexit

.loopexit:                                        ; preds = %52, %.preheader, %1
  ret void
}

; Function Attrs: nounwind mustprogress
define linkonce void @_ZN6Halide7Runtime8Internal27enqueue_work_already_lockedEiPNS1_4workES3_(i32 %0, %"struct.Halide::Runtime::Internal::work"* %1, %"struct.Halide::Runtime::Internal::work"* %2) local_unnamed_addr #0 {
  %4 = load i8, i8* getelementptr inbounds (%"struct.Halide::Runtime::Internal::work_queue_t", %"struct.Halide::Runtime::Internal::work_queue_t"* @_ZN6Halide7Runtime8Internal10work_queueE, i64 0, i32 15), align 1, !tbaa !48, !range !17
  %5 = icmp eq i8 %4, 0
  br i1 %5, label %.preheader8, label %24

.preheader8:                                      ; preds = %9, %3
  %6 = phi i8* [ %10, %9 ], [ bitcast (i32* getelementptr inbounds (%"struct.Halide::Runtime::Internal::work_queue_t", %"struct.Halide::Runtime::Internal::work_queue_t"* @_ZN6Halide7Runtime8Internal10work_queueE, i64 0, i32 2) to i8*), %3 ]
  %7 = load i8, i8* %6, align 1, !tbaa !14
  %8 = icmp eq i8 %7, 0
  br i1 %8, label %9, label %12

9:                                                ; preds = %.preheader8
  %10 = getelementptr inbounds i8, i8* %6, i64 1
  %11 = icmp eq i8* %10, bitcast (%"struct.Halide::Runtime::Internal::work_queue_t"* select (i1 icmp ugt (i8* bitcast (%"struct.Halide::Runtime::Internal::work_queue_t"* getelementptr inbounds (%"struct.Halide::Runtime::Internal::work_queue_t", %"struct.Halide::Runtime::Internal::work_queue_t"* @_ZN6Halide7Runtime8Internal10work_queueE, i64 1) to i8*), i8* getelementptr (i8, i8* bitcast (i32* getelementptr inbounds (%"struct.Halide::Runtime::Internal::work_queue_t", %"struct.Halide::Runtime::Internal::work_queue_t"* @_ZN6Halide7Runtime8Internal10work_queueE, i64 0, i32 2) to i8*), i64 1)), %"struct.Halide::Runtime::Internal::work_queue_t"* getelementptr inbounds (%"struct.Halide::Runtime::Internal::work_queue_t", %"struct.Halide::Runtime::Internal::work_queue_t"* @_ZN6Halide7Runtime8Internal10work_queueE, i64 1), %"struct.Halide::Runtime::Internal::work_queue_t"* bitcast (i8* getelementptr (i8, i8* bitcast (i32* getelementptr inbounds (%"struct.Halide::Runtime::Internal::work_queue_t", %"struct.Halide::Runtime::Internal::work_queue_t"* @_ZN6Halide7Runtime8Internal10work_queueE, i64 0, i32 2) to i8*), i64 1) to %"struct.Halide::Runtime::Internal::work_queue_t"*)) to i8*)
  br i1 %11, label %12, label %.preheader8, !llvm.loop !52

12:                                               ; preds = %9, %.preheader8
  %13 = phi i8* [ %6, %.preheader8 ], [ bitcast (%"struct.Halide::Runtime::Internal::work_queue_t"* select (i1 icmp ugt (i8* bitcast (%"struct.Halide::Runtime::Internal::work_queue_t"* getelementptr inbounds (%"struct.Halide::Runtime::Internal::work_queue_t", %"struct.Halide::Runtime::Internal::work_queue_t"* @_ZN6Halide7Runtime8Internal10work_queueE, i64 1) to i8*), i8* getelementptr (i8, i8* bitcast (i32* getelementptr inbounds (%"struct.Halide::Runtime::Internal::work_queue_t", %"struct.Halide::Runtime::Internal::work_queue_t"* @_ZN6Halide7Runtime8Internal10work_queueE, i64 0, i32 2) to i8*), i64 1)), %"struct.Halide::Runtime::Internal::work_queue_t"* getelementptr inbounds (%"struct.Halide::Runtime::Internal::work_queue_t", %"struct.Halide::Runtime::Internal::work_queue_t"* @_ZN6Halide7Runtime8Internal10work_queueE, i64 1), %"struct.Halide::Runtime::Internal::work_queue_t"* bitcast (i8* getelementptr (i8, i8* bitcast (i32* getelementptr inbounds (%"struct.Halide::Runtime::Internal::work_queue_t", %"struct.Halide::Runtime::Internal::work_queue_t"* @_ZN6Halide7Runtime8Internal10work_queueE, i64 0, i32 2) to i8*), i64 1) to %"struct.Halide::Runtime::Internal::work_queue_t"*)) to i8*), %9 ]
  %14 = icmp eq i8* %13, bitcast (%"struct.Halide::Runtime::Internal::work_queue_t"* getelementptr inbounds (%"struct.Halide::Runtime::Internal::work_queue_t", %"struct.Halide::Runtime::Internal::work_queue_t"* @_ZN6Halide7Runtime8Internal10work_queueE, i64 1) to i8*)
  br i1 %14, label %16, label %15

15:                                               ; preds = %12
  tail call void @halide_print(i8* null, i8* getelementptr inbounds ([150 x i8], [150 x i8]* @.str.7, i64 0, i64 0)) #12
  tail call void @abort() #12
  br label %16

16:                                               ; preds = %15, %12
  %17 = load i32, i32* getelementptr inbounds (%"struct.Halide::Runtime::Internal::work_queue_t", %"struct.Halide::Runtime::Internal::work_queue_t"* @_ZN6Halide7Runtime8Internal10work_queueE, i64 0, i32 1), align 8, !tbaa !54
  %18 = icmp eq i32 %17, 0
  br i1 %18, label %19, label %21

19:                                               ; preds = %16
  %20 = tail call i32 @_ZN6Halide7Runtime8Internal27default_desired_num_threadsEv() #13
  store i32 %20, i32* getelementptr inbounds (%"struct.Halide::Runtime::Internal::work_queue_t", %"struct.Halide::Runtime::Internal::work_queue_t"* @_ZN6Halide7Runtime8Internal10work_queueE, i64 0, i32 1), align 8, !tbaa !54
  br label %21

21:                                               ; preds = %19, %16
  %22 = phi i32 [ %20, %19 ], [ %17, %16 ]
  %23 = tail call i32 @_ZN6Halide7Runtime8Internal17clamp_num_threadsEi(i32 %22) #13
  store i32 %23, i32* getelementptr inbounds (%"struct.Halide::Runtime::Internal::work_queue_t", %"struct.Halide::Runtime::Internal::work_queue_t"* @_ZN6Halide7Runtime8Internal10work_queueE, i64 0, i32 1), align 8, !tbaa !54
  store i8 1, i8* getelementptr inbounds (%"struct.Halide::Runtime::Internal::work_queue_t", %"struct.Halide::Runtime::Internal::work_queue_t"* @_ZN6Halide7Runtime8Internal10work_queueE, i64 0, i32 15), align 1, !tbaa !48
  br label %24

24:                                               ; preds = %21, %3
  %25 = icmp sgt i32 %0, 0
  br i1 %25, label %26, label %30

26:                                               ; preds = %24
  %27 = zext i32 %0 to i64
  br label %37

28:                                               ; preds = %63
  %29 = and i8 %48, 1
  br label %30

30:                                               ; preds = %28, %24
  %31 = phi i32 [ -1, %24 ], [ %64, %28 ]
  %32 = phi i8 [ 0, %24 ], [ %29, %28 ]
  %33 = phi i8 [ 0, %24 ], [ %53, %28 ]
  %34 = phi i8 [ 0, %24 ], [ %49, %28 ]
  %35 = phi i32 [ 0, %24 ], [ %47, %28 ]
  %36 = icmp eq %"struct.Halide::Runtime::Internal::work"* %2, null
  br i1 %36, label %67, label %97

37:                                               ; preds = %63, %26
  %38 = phi i64 [ 0, %26 ], [ %65, %63 ]
  %39 = phi i32 [ 0, %26 ], [ %47, %63 ]
  %40 = phi i8 [ 0, %26 ], [ %49, %63 ]
  %41 = phi i8 [ 0, %26 ], [ %53, %63 ]
  %42 = phi i8 [ 0, %26 ], [ %48, %63 ]
  %43 = phi i32 [ -1, %26 ], [ %64, %63 ]
  %44 = getelementptr inbounds %"struct.Halide::Runtime::Internal::work", %"struct.Halide::Runtime::Internal::work"* %1, i64 %38, i32 0, i32 7
  %45 = load i32, i32* %44, align 4, !tbaa !30
  %46 = icmp eq i32 %45, 0
  %47 = add i32 %45, %39
  %48 = select i1 %46, i8 1, i8 %42
  %49 = select i1 %46, i8 %40, i8 1
  %50 = getelementptr inbounds %"struct.Halide::Runtime::Internal::work", %"struct.Halide::Runtime::Internal::work"* %1, i64 %38, i32 0, i32 4
  %51 = load i32, i32* %50, align 8, !tbaa !28
  %52 = icmp eq i32 %51, 0
  %53 = select i1 %52, i8 %41, i8 1
  %54 = getelementptr inbounds %"struct.Halide::Runtime::Internal::work", %"struct.Halide::Runtime::Internal::work"* %1, i64 %38, i32 0, i32 8
  %55 = load i8, i8* %54, align 8, !tbaa !26, !range !17
  %56 = icmp eq i8 %55, 0
  br i1 %56, label %59, label %57

57:                                               ; preds = %37
  %58 = add nsw i32 %43, 1
  br label %63

59:                                               ; preds = %37
  %60 = getelementptr inbounds %"struct.Halide::Runtime::Internal::work", %"struct.Halide::Runtime::Internal::work"* %1, i64 %38, i32 0, i32 6
  %61 = load i32, i32* %60, align 8, !tbaa !25
  %62 = add nsw i32 %61, %43
  br label %63

63:                                               ; preds = %59, %57
  %64 = phi i32 [ %58, %57 ], [ %62, %59 ]
  %65 = add nuw nsw i64 %38, 1
  %66 = icmp eq i64 %65, %27
  br i1 %66, label %28, label %37, !llvm.loop !55

67:                                               ; preds = %30
  %68 = or i8 %34, %33
  %69 = and i8 %68, 1
  %70 = icmp eq i8 %69, 0
  %71 = xor i1 %70, true
  %72 = zext i1 %71 to i32
  %73 = add nsw i32 %35, %72
  %74 = load i32, i32* getelementptr inbounds (%"struct.Halide::Runtime::Internal::work_queue_t", %"struct.Halide::Runtime::Internal::work_queue_t"* @_ZN6Halide7Runtime8Internal10work_queueE, i64 0, i32 4), align 8, !tbaa !56
  %75 = icmp slt i32 %74, 256
  br i1 %75, label %.preheader, label %.loopexit

.preheader:                                       ; preds = %85, %67
  %76 = phi i32 [ %90, %85 ], [ %74, %67 ]
  %77 = load i32, i32* getelementptr inbounds (%"struct.Halide::Runtime::Internal::work_queue_t", %"struct.Halide::Runtime::Internal::work_queue_t"* @_ZN6Halide7Runtime8Internal10work_queueE, i64 0, i32 1), align 8, !tbaa !54
  %78 = add nsw i32 %77, -1
  %79 = icmp slt i32 %76, %78
  br i1 %79, label %85, label %80

80:                                               ; preds = %.preheader
  %81 = add nsw i32 %76, 1
  %82 = load i32, i32* getelementptr inbounds (%"struct.Halide::Runtime::Internal::work_queue_t", %"struct.Halide::Runtime::Internal::work_queue_t"* @_ZN6Halide7Runtime8Internal10work_queueE, i64 0, i32 16), align 4, !tbaa !57
  %83 = sub i32 %81, %82
  %84 = icmp slt i32 %83, %73
  br i1 %84, label %85, label %.loopexit

85:                                               ; preds = %80, %.preheader
  %86 = load i32, i32* getelementptr inbounds (%"struct.Halide::Runtime::Internal::work_queue_t", %"struct.Halide::Runtime::Internal::work_queue_t"* @_ZN6Halide7Runtime8Internal10work_queueE, i64 0, i32 5), align 4, !tbaa !58
  %87 = add nsw i32 %86, 1
  store i32 %87, i32* getelementptr inbounds (%"struct.Halide::Runtime::Internal::work_queue_t", %"struct.Halide::Runtime::Internal::work_queue_t"* @_ZN6Halide7Runtime8Internal10work_queueE, i64 0, i32 5), align 4, !tbaa !58
  %88 = tail call %struct.halide_thread* @halide_spawn_thread(void (i8*)* nonnull @_ZN6Halide7Runtime8Internal13worker_threadEPv, i8* null) #13
  %89 = load i32, i32* getelementptr inbounds (%"struct.Halide::Runtime::Internal::work_queue_t", %"struct.Halide::Runtime::Internal::work_queue_t"* @_ZN6Halide7Runtime8Internal10work_queueE, i64 0, i32 4), align 8, !tbaa !56
  %90 = add nsw i32 %89, 1
  store i32 %90, i32* getelementptr inbounds (%"struct.Halide::Runtime::Internal::work_queue_t", %"struct.Halide::Runtime::Internal::work_queue_t"* @_ZN6Halide7Runtime8Internal10work_queueE, i64 0, i32 4), align 8, !tbaa !56
  %91 = sext i32 %89 to i64
  %92 = getelementptr inbounds %"struct.Halide::Runtime::Internal::work_queue_t", %"struct.Halide::Runtime::Internal::work_queue_t"* @_ZN6Halide7Runtime8Internal10work_queueE, i64 0, i32 13, i64 %91
  store %struct.halide_thread* %88, %struct.halide_thread** %92, align 8, !tbaa !10
  %93 = icmp slt i32 %89, 255
  br i1 %93, label %.preheader, label %.loopexit, !llvm.loop !59

.loopexit:                                        ; preds = %85, %80, %67
  br i1 %70, label %115, label %94

94:                                               ; preds = %.loopexit
  %95 = load i32, i32* getelementptr inbounds (%"struct.Halide::Runtime::Internal::work_queue_t", %"struct.Halide::Runtime::Internal::work_queue_t"* @_ZN6Halide7Runtime8Internal10work_queueE, i64 0, i32 16), align 4, !tbaa !57
  %96 = add nsw i32 %95, 1
  store i32 %96, i32* getelementptr inbounds (%"struct.Halide::Runtime::Internal::work_queue_t", %"struct.Halide::Runtime::Internal::work_queue_t"* @_ZN6Halide7Runtime8Internal10work_queueE, i64 0, i32 16), align 4, !tbaa !57
  br label %115

97:                                               ; preds = %30
  %98 = getelementptr inbounds %"struct.Halide::Runtime::Internal::work", %"struct.Halide::Runtime::Internal::work"* %2, i64 0, i32 0, i32 7
  %99 = load i32, i32* %98, align 4, !tbaa !30
  %100 = getelementptr inbounds %"struct.Halide::Runtime::Internal::work", %"struct.Halide::Runtime::Internal::work"* %2, i64 0, i32 8
  %101 = load i32, i32* %100, align 8, !tbaa !35
  %102 = mul nsw i32 %101, %99
  %103 = getelementptr inbounds %"struct.Halide::Runtime::Internal::work", %"struct.Halide::Runtime::Internal::work"* %2, i64 0, i32 6
  %104 = load i32, i32* %103, align 8, !tbaa !60
  %105 = sub nsw i32 %102, %104
  %106 = icmp sgt i32 %35, %105
  br i1 %106, label %107, label %108

107:                                              ; preds = %97
  tail call void @halide_print(i8* null, i8* getelementptr inbounds ([227 x i8], [227 x i8]* @.str.3, i64 0, i64 0)) #12
  tail call void @abort() #12
  br label %108

108:                                              ; preds = %107, %97
  %109 = or i8 %34, %33
  %110 = and i8 %109, 1
  %111 = icmp eq i8 %110, 0
  br i1 %111, label %115, label %112

112:                                              ; preds = %108
  %113 = load i32, i32* %103, align 8, !tbaa !60
  %114 = add nsw i32 %113, 1
  store i32 %114, i32* %103, align 8, !tbaa !60
  br label %115

115:                                              ; preds = %112, %108, %94, %.loopexit
  br i1 %25, label %116, label %120

116:                                              ; preds = %115
  %117 = load %"struct.Halide::Runtime::Internal::work"*, %"struct.Halide::Runtime::Internal::work"** getelementptr inbounds (%"struct.Halide::Runtime::Internal::work_queue_t", %"struct.Halide::Runtime::Internal::work_queue_t"* @_ZN6Halide7Runtime8Internal10work_queueE, i64 0, i32 3), align 8, !tbaa !61
  %118 = zext i32 %0 to i64
  br label %133

119:                                              ; preds = %133
  store %"struct.Halide::Runtime::Internal::work"* %1, %"struct.Halide::Runtime::Internal::work"** getelementptr inbounds (%"struct.Halide::Runtime::Internal::work_queue_t", %"struct.Halide::Runtime::Internal::work_queue_t"* @_ZN6Halide7Runtime8Internal10work_queueE, i64 0, i32 3), align 8, !tbaa !61
  br label %120

120:                                              ; preds = %119, %115
  %121 = load i32, i32* getelementptr inbounds (%"struct.Halide::Runtime::Internal::work_queue_t", %"struct.Halide::Runtime::Internal::work_queue_t"* @_ZN6Halide7Runtime8Internal10work_queueE, i64 0, i32 12), align 4, !tbaa !62
  %122 = icmp ne i32 %121, 0
  %123 = load i32, i32* getelementptr inbounds (%"struct.Halide::Runtime::Internal::work_queue_t", %"struct.Halide::Runtime::Internal::work_queue_t"* @_ZN6Halide7Runtime8Internal10work_queueE, i64 0, i32 11), align 8
  %124 = load i32, i32* getelementptr inbounds (%"struct.Halide::Runtime::Internal::work_queue_t", %"struct.Halide::Runtime::Internal::work_queue_t"* @_ZN6Halide7Runtime8Internal10work_queueE, i64 0, i32 4), align 8
  %125 = icmp slt i32 %123, %124
  %126 = or i1 %122, %125
  %127 = icmp sgt i32 %31, %123
  %128 = or i1 %127, %126
  %129 = select i1 %128, i32 %124, i32 %31
  store i32 %129, i32* getelementptr inbounds (%"struct.Halide::Runtime::Internal::work_queue_t", %"struct.Halide::Runtime::Internal::work_queue_t"* @_ZN6Halide7Runtime8Internal10work_queueE, i64 0, i32 6), align 8, !tbaa !63
  tail call void @halide_cond_broadcast(%struct.halide_mutex* getelementptr inbounds (%"struct.Halide::Runtime::Internal::work_queue_t", %"struct.Halide::Runtime::Internal::work_queue_t"* @_ZN6Halide7Runtime8Internal10work_queueE, i64 0, i32 8)) #13
  %130 = load i32, i32* getelementptr inbounds (%"struct.Halide::Runtime::Internal::work_queue_t", %"struct.Halide::Runtime::Internal::work_queue_t"* @_ZN6Halide7Runtime8Internal10work_queueE, i64 0, i32 6), align 8, !tbaa !63
  %131 = load i32, i32* getelementptr inbounds (%"struct.Halide::Runtime::Internal::work_queue_t", %"struct.Halide::Runtime::Internal::work_queue_t"* @_ZN6Halide7Runtime8Internal10work_queueE, i64 0, i32 5), align 4, !tbaa !58
  %132 = icmp sgt i32 %130, %131
  br i1 %132, label %143, label %146

133:                                              ; preds = %133, %116
  %134 = phi i64 [ %118, %116 ], [ %136, %133 ]
  %135 = phi %"struct.Halide::Runtime::Internal::work"* [ %117, %116 ], [ %137, %133 ]
  %136 = add nsw i64 %134, -1
  %137 = getelementptr inbounds %"struct.Halide::Runtime::Internal::work", %"struct.Halide::Runtime::Internal::work"* %1, i64 %136
  %138 = getelementptr inbounds %"struct.Halide::Runtime::Internal::work", %"struct.Halide::Runtime::Internal::work"* %1, i64 %136, i32 2
  store %"struct.Halide::Runtime::Internal::work"* %135, %"struct.Halide::Runtime::Internal::work"** %138, align 8, !tbaa !64
  %139 = getelementptr inbounds %"struct.Halide::Runtime::Internal::work", %"struct.Halide::Runtime::Internal::work"* %1, i64 %136, i32 3
  store %"struct.Halide::Runtime::Internal::work"* %1, %"struct.Halide::Runtime::Internal::work"** %139, align 8, !tbaa !38
  %140 = getelementptr inbounds %"struct.Halide::Runtime::Internal::work", %"struct.Halide::Runtime::Internal::work"* %1, i64 %136, i32 4
  store i32 %0, i32* %140, align 8, !tbaa !39
  %141 = getelementptr inbounds %"struct.Halide::Runtime::Internal::work", %"struct.Halide::Runtime::Internal::work"* %1, i64 %136, i32 6
  store i32 0, i32* %141, align 8, !tbaa !60
  %142 = icmp sgt i64 %134, 1
  br i1 %142, label %133, label %119, !llvm.loop !65

143:                                              ; preds = %120
  tail call void @halide_cond_broadcast(%struct.halide_mutex* getelementptr inbounds (%"struct.Halide::Runtime::Internal::work_queue_t", %"struct.Halide::Runtime::Internal::work_queue_t"* @_ZN6Halide7Runtime8Internal10work_queueE, i64 0, i32 9)) #13
  %144 = icmp eq i8 %32, 0
  br i1 %144, label %146, label %145

145:                                              ; preds = %143
  tail call void @halide_cond_broadcast(%struct.halide_mutex* getelementptr inbounds (%"struct.Halide::Runtime::Internal::work_queue_t", %"struct.Halide::Runtime::Internal::work_queue_t"* @_ZN6Halide7Runtime8Internal10work_queueE, i64 0, i32 10)) #13
  br label %146

146:                                              ; preds = %145, %143, %120
  %147 = or i8 %34, %33
  %148 = and i8 %147, 1
  %149 = icmp eq i8 %148, 0
  br i1 %149, label %158, label %150

150:                                              ; preds = %146
  br i1 %36, label %155, label %151

151:                                              ; preds = %150
  %152 = getelementptr inbounds %"struct.Halide::Runtime::Internal::work", %"struct.Halide::Runtime::Internal::work"* %2, i64 0, i32 6
  %153 = load i32, i32* %152, align 8, !tbaa !60
  %154 = add nsw i32 %153, -1
  store i32 %154, i32* %152, align 8, !tbaa !60
  br label %158

155:                                              ; preds = %150
  %156 = load i32, i32* getelementptr inbounds (%"struct.Halide::Runtime::Internal::work_queue_t", %"struct.Halide::Runtime::Internal::work_queue_t"* @_ZN6Halide7Runtime8Internal10work_queueE, i64 0, i32 16), align 4, !tbaa !57
  %157 = add nsw i32 %156, -1
  store i32 %157, i32* getelementptr inbounds (%"struct.Halide::Runtime::Internal::work_queue_t", %"struct.Halide::Runtime::Internal::work_queue_t"* @_ZN6Halide7Runtime8Internal10work_queueE, i64 0, i32 16), align 4, !tbaa !57
  br label %158

158:                                              ; preds = %155, %151, %146
  ret void
}

; Function Attrs: nounwind mustprogress
define linkonce void @_ZN6Halide7Runtime8Internal28worker_thread_already_lockedEPNS1_4workE(%"struct.Halide::Runtime::Internal::work"* %0) local_unnamed_addr #0 {
  %2 = getelementptr inbounds %"struct.Halide::Runtime::Internal::work", %"struct.Halide::Runtime::Internal::work"* %0, i64 0, i32 8
  %3 = icmp eq %"struct.Halide::Runtime::Internal::work"* %0, null
  %4 = getelementptr inbounds %"struct.Halide::Runtime::Internal::work", %"struct.Halide::Runtime::Internal::work"* %0, i64 0, i32 0, i32 6
  %5 = getelementptr inbounds %"struct.Halide::Runtime::Internal::work", %"struct.Halide::Runtime::Internal::work"* %0, i64 0, i32 9
  %6 = getelementptr inbounds %"struct.Halide::Runtime::Internal::work", %"struct.Halide::Runtime::Internal::work"* %0, i64 0, i32 5
  %7 = getelementptr inbounds %"struct.Halide::Runtime::Internal::work", %"struct.Halide::Runtime::Internal::work"* %0, i64 0, i32 3
  %8 = getelementptr inbounds %"struct.Halide::Runtime::Internal::work", %"struct.Halide::Runtime::Internal::work"* %0, i64 0, i32 11
  %9 = getelementptr inbounds %"struct.Halide::Runtime::Internal::work", %"struct.Halide::Runtime::Internal::work"* %0, i64 0, i32 2
  br label %10

10:                                               ; preds = %.backedge, %1
  %11 = phi i32 [ 0, %1 ], [ %.be, %.backedge ]
  br i1 %3, label %15, label %12

12:                                               ; preds = %10
  %13 = load i32, i32* %4, align 8, !tbaa !25
  %14 = icmp eq i32 %13, 0
  br i1 %14, label %18, label %21

15:                                               ; preds = %10
  %16 = load i8, i8* getelementptr inbounds (%"struct.Halide::Runtime::Internal::work_queue_t", %"struct.Halide::Runtime::Internal::work_queue_t"* @_ZN6Halide7Runtime8Internal10work_queueE, i64 0, i32 14), align 8, !tbaa !66, !range !17
  %17 = icmp eq i8 %16, 0
  br i1 %17, label %47, label %395

18:                                               ; preds = %12
  %19 = load i32, i32* %2, align 8, !tbaa !35
  %20 = icmp eq i32 %19, 0
  br i1 %20, label %395, label %21

21:                                               ; preds = %18, %12
  %22 = load %"struct.Halide::Runtime::Internal::work"*, %"struct.Halide::Runtime::Internal::work"** getelementptr inbounds (%"struct.Halide::Runtime::Internal::work_queue_t", %"struct.Halide::Runtime::Internal::work_queue_t"* @_ZN6Halide7Runtime8Internal10work_queueE, i64 0, i32 3), align 8, !tbaa !61
  %23 = load i32, i32* %5, align 4, !tbaa !34
  %24 = icmp eq i32 %23, 0
  br i1 %24, label %37, label %25

25:                                               ; preds = %21
  %26 = load i32, i32* %2, align 8, !tbaa !35
  %27 = icmp eq i32 %26, 0
  br i1 %27, label %28, label %45

28:                                               ; preds = %25
  %29 = icmp eq %"struct.Halide::Runtime::Internal::work"* %22, %0
  br i1 %29, label %.loopexit46, label %.preheader45

.preheader45:                                     ; preds = %.preheader45, %28
  %30 = phi %"struct.Halide::Runtime::Internal::work"* [ %32, %.preheader45 ], [ %22, %28 ]
  %31 = getelementptr inbounds %"struct.Halide::Runtime::Internal::work", %"struct.Halide::Runtime::Internal::work"* %30, i64 0, i32 2
  %32 = load %"struct.Halide::Runtime::Internal::work"*, %"struct.Halide::Runtime::Internal::work"** %31, align 8, !tbaa !64
  %33 = icmp eq %"struct.Halide::Runtime::Internal::work"* %32, %0
  br i1 %33, label %.loopexit46.loopexit, label %.preheader45, !llvm.loop !67

.loopexit46.loopexit:                             ; preds = %.preheader45
  %34 = getelementptr inbounds %"struct.Halide::Runtime::Internal::work", %"struct.Halide::Runtime::Internal::work"* %30, i64 0, i32 2
  br label %.loopexit46

.loopexit46:                                      ; preds = %.loopexit46.loopexit, %28
  %35 = phi %"struct.Halide::Runtime::Internal::work"** [ getelementptr inbounds (%"struct.Halide::Runtime::Internal::work_queue_t", %"struct.Halide::Runtime::Internal::work_queue_t"* @_ZN6Halide7Runtime8Internal10work_queueE, i64 0, i32 3), %28 ], [ %34, %.loopexit46.loopexit ]
  %36 = load %"struct.Halide::Runtime::Internal::work"*, %"struct.Halide::Runtime::Internal::work"** %9, align 8, !tbaa !64
  store %"struct.Halide::Runtime::Internal::work"* %36, %"struct.Halide::Runtime::Internal::work"** %35, align 8, !tbaa !10
  store i32 0, i32* %4, align 8, !tbaa !25
  br label %.backedge

37:                                               ; preds = %21
  %38 = load %"struct.Halide::Runtime::Internal::work"*, %"struct.Halide::Runtime::Internal::work"** %6, align 8, !tbaa !40
  %39 = icmp eq %"struct.Halide::Runtime::Internal::work"* %38, null
  br i1 %39, label %45, label %40

40:                                               ; preds = %37
  %41 = getelementptr inbounds %"struct.Halide::Runtime::Internal::work", %"struct.Halide::Runtime::Internal::work"* %38, i64 0, i32 9
  %42 = load i32, i32* %41, align 4, !tbaa !34
  %43 = icmp eq i32 %42, 0
  br i1 %43, label %45, label %44

44:                                               ; preds = %40
  store i32 %42, i32* %5, align 4, !tbaa !34
  tail call void @halide_cond_broadcast(%struct.halide_mutex* getelementptr inbounds (%"struct.Halide::Runtime::Internal::work_queue_t", %"struct.Halide::Runtime::Internal::work_queue_t"* @_ZN6Halide7Runtime8Internal10work_queueE, i64 0, i32 10)) #13
  br label %.backedge

45:                                               ; preds = %40, %37, %25
  %46 = icmp eq %"struct.Halide::Runtime::Internal::work"* %22, null
  br i1 %46, label %.thread, label %.preheader42

47:                                               ; preds = %15
  %48 = load %"struct.Halide::Runtime::Internal::work"*, %"struct.Halide::Runtime::Internal::work"** getelementptr inbounds (%"struct.Halide::Runtime::Internal::work_queue_t", %"struct.Halide::Runtime::Internal::work_queue_t"* @_ZN6Halide7Runtime8Internal10work_queueE, i64 0, i32 3), align 8, !tbaa !61
  %49 = icmp eq %"struct.Halide::Runtime::Internal::work"* %48, null
  br i1 %49, label %192, label %.preheader39

.preheader39:                                     ; preds = %.loopexit34, %47
  %50 = phi %"struct.Halide::Runtime::Internal::work"* [ %111, %.loopexit34 ], [ %48, %47 ]
  %51 = phi %"struct.Halide::Runtime::Internal::work"** [ %110, %.loopexit34 ], [ getelementptr inbounds (%"struct.Halide::Runtime::Internal::work_queue_t", %"struct.Halide::Runtime::Internal::work_queue_t"* @_ZN6Halide7Runtime8Internal10work_queueE, i64 0, i32 3), %47 ]
  %52 = getelementptr inbounds %"struct.Halide::Runtime::Internal::work", %"struct.Halide::Runtime::Internal::work"* %50, i64 0, i32 5
  %53 = load %"struct.Halide::Runtime::Internal::work"*, %"struct.Halide::Runtime::Internal::work"** %52, align 8, !tbaa !40
  %54 = icmp eq %"struct.Halide::Runtime::Internal::work"* %53, null
  br i1 %54, label %70, label %55

55:                                               ; preds = %.preheader39
  %56 = getelementptr inbounds %"struct.Halide::Runtime::Internal::work", %"struct.Halide::Runtime::Internal::work"* %53, i64 0, i32 8
  %57 = load i32, i32* %56, align 8, !tbaa !35
  %58 = icmp eq i32 %57, 0
  %59 = getelementptr inbounds %"struct.Halide::Runtime::Internal::work", %"struct.Halide::Runtime::Internal::work"* %53, i64 0, i32 0, i32 7
  %60 = load i32, i32* %59, align 4, !tbaa !30
  br i1 %58, label %66, label %61

61:                                               ; preds = %55
  %62 = mul nsw i32 %60, %57
  %63 = getelementptr inbounds %"struct.Halide::Runtime::Internal::work", %"struct.Halide::Runtime::Internal::work"* %53, i64 0, i32 6
  %64 = load i32, i32* %63, align 8, !tbaa !60
  %65 = sub nsw i32 %62, %64
  br label %75

66:                                               ; preds = %55
  %67 = getelementptr inbounds %"struct.Halide::Runtime::Internal::work", %"struct.Halide::Runtime::Internal::work"* %53, i64 0, i32 6
  %68 = load i32, i32* %67, align 8, !tbaa !60
  %69 = sub nsw i32 %60, %68
  br label %75

70:                                               ; preds = %.preheader39
  %71 = load i32, i32* getelementptr inbounds (%"struct.Halide::Runtime::Internal::work_queue_t", %"struct.Halide::Runtime::Internal::work_queue_t"* @_ZN6Halide7Runtime8Internal10work_queueE, i64 0, i32 4), align 8, !tbaa !56
  %72 = add nsw i32 %71, 1
  %73 = load i32, i32* getelementptr inbounds (%"struct.Halide::Runtime::Internal::work_queue_t", %"struct.Halide::Runtime::Internal::work_queue_t"* @_ZN6Halide7Runtime8Internal10work_queueE, i64 0, i32 16), align 4, !tbaa !57
  %74 = sub i32 %72, %73
  br label %75

75:                                               ; preds = %70, %66, %61
  %76 = phi i32 [ %74, %70 ], [ %69, %66 ], [ %65, %61 ]
  %77 = getelementptr inbounds %"struct.Halide::Runtime::Internal::work", %"struct.Halide::Runtime::Internal::work"* %50, i64 0, i32 0, i32 7
  %78 = load i32, i32* %77, align 4, !tbaa !30
  %79 = icmp sge i32 %76, %78
  %80 = getelementptr inbounds %"struct.Halide::Runtime::Internal::work", %"struct.Halide::Runtime::Internal::work"* %50, i64 0, i32 0, i32 8
  %81 = load i8, i8* %80, align 8, !tbaa !26, !range !17
  %82 = icmp eq i8 %81, 0
  br i1 %82, label %._crit_edge191, label %83

._crit_edge191:                                   ; preds = %75
  %.0192 = and i1 %79, true
  br label %87

83:                                               ; preds = %75
  %84 = getelementptr inbounds %"struct.Halide::Runtime::Internal::work", %"struct.Halide::Runtime::Internal::work"* %50, i64 0, i32 8
  %85 = load i32, i32* %84, align 8, !tbaa !35
  %86 = icmp eq i32 %85, 0
  %.1193 = and i1 %79, %86
  br label %87

87:                                               ; preds = %83, %._crit_edge191
  %.phi194 = phi i1 [ %.0192, %._crit_edge191 ], [ %.1193, %83 ]
  br i1 %.phi194, label %88, label %.loopexit34

88:                                               ; preds = %87
  %89 = getelementptr inbounds %"struct.Halide::Runtime::Internal::work", %"struct.Halide::Runtime::Internal::work"* %50, i64 0, i32 10
  %90 = load i32, i32* %89, align 8, !tbaa !36
  %91 = getelementptr inbounds %"struct.Halide::Runtime::Internal::work", %"struct.Halide::Runtime::Internal::work"* %50, i64 0, i32 0, i32 4
  %92 = load i32, i32* %91, align 8, !tbaa !28
  %93 = icmp slt i32 %90, %92
  br i1 %93, label %94, label %.loopexit35

94:                                               ; preds = %88
  %95 = getelementptr inbounds %"struct.Halide::Runtime::Internal::work", %"struct.Halide::Runtime::Internal::work"* %50, i64 0, i32 0, i32 3
  br label %96

96:                                               ; preds = %105, %94
  %97 = phi i32 [ %90, %94 ], [ %107, %105 ]
  %98 = load %struct.halide_semaphore_acquire_t*, %struct.halide_semaphore_acquire_t** %95, align 8, !tbaa !27
  %99 = sext i32 %97 to i64
  %100 = getelementptr inbounds %struct.halide_semaphore_acquire_t, %struct.halide_semaphore_acquire_t* %98, i64 %99, i32 0
  %101 = load %struct.halide_semaphore_t*, %struct.halide_semaphore_t** %100, align 8, !tbaa !68
  %102 = getelementptr inbounds %struct.halide_semaphore_acquire_t, %struct.halide_semaphore_acquire_t* %98, i64 %99, i32 1
  %103 = load i32, i32* %102, align 8, !tbaa !70
  %104 = tail call zeroext i1 @halide_default_semaphore_try_acquire(%struct.halide_semaphore_t* %101, i32 %103) #12
  br i1 %104, label %105, label %.loopexit34

105:                                              ; preds = %96
  %106 = load i32, i32* %89, align 8, !tbaa !36
  %107 = add nsw i32 %106, 1
  store i32 %107, i32* %89, align 8, !tbaa !36
  %108 = load i32, i32* %91, align 8, !tbaa !28
  %109 = icmp slt i32 %107, %108
  br i1 %109, label %96, label %.loopexit35, !llvm.loop !71

.loopexit34:                                      ; preds = %96, %87
  %110 = getelementptr inbounds %"struct.Halide::Runtime::Internal::work", %"struct.Halide::Runtime::Internal::work"* %50, i64 0, i32 2
  %111 = load %"struct.Halide::Runtime::Internal::work"*, %"struct.Halide::Runtime::Internal::work"** %110, align 8, !tbaa !64
  %112 = icmp eq %"struct.Halide::Runtime::Internal::work"* %111, null
  br i1 %112, label %.loopexit41, label %.preheader39

.preheader42:                                     ; preds = %.loopexit36, %45
  %113 = phi %"struct.Halide::Runtime::Internal::work"* [ %182, %.loopexit36 ], [ %22, %45 ]
  %114 = phi %"struct.Halide::Runtime::Internal::work"** [ %181, %.loopexit36 ], [ getelementptr inbounds (%"struct.Halide::Runtime::Internal::work_queue_t", %"struct.Halide::Runtime::Internal::work_queue_t"* @_ZN6Halide7Runtime8Internal10work_queueE, i64 0, i32 3), %45 ]
  %115 = getelementptr inbounds %"struct.Halide::Runtime::Internal::work", %"struct.Halide::Runtime::Internal::work"* %113, i64 0, i32 5
  %116 = load %"struct.Halide::Runtime::Internal::work"*, %"struct.Halide::Runtime::Internal::work"** %115, align 8, !tbaa !40
  %117 = icmp eq %"struct.Halide::Runtime::Internal::work"* %116, null
  br i1 %117, label %118, label %123

118:                                              ; preds = %.preheader42
  %119 = load i32, i32* getelementptr inbounds (%"struct.Halide::Runtime::Internal::work_queue_t", %"struct.Halide::Runtime::Internal::work_queue_t"* @_ZN6Halide7Runtime8Internal10work_queueE, i64 0, i32 4), align 8, !tbaa !56
  %120 = add nsw i32 %119, 1
  %121 = load i32, i32* getelementptr inbounds (%"struct.Halide::Runtime::Internal::work_queue_t", %"struct.Halide::Runtime::Internal::work_queue_t"* @_ZN6Halide7Runtime8Internal10work_queueE, i64 0, i32 16), align 4, !tbaa !57
  %122 = sub i32 %120, %121
  br label %138

123:                                              ; preds = %.preheader42
  %124 = getelementptr inbounds %"struct.Halide::Runtime::Internal::work", %"struct.Halide::Runtime::Internal::work"* %116, i64 0, i32 8
  %125 = load i32, i32* %124, align 8, !tbaa !35
  %126 = icmp eq i32 %125, 0
  %127 = getelementptr inbounds %"struct.Halide::Runtime::Internal::work", %"struct.Halide::Runtime::Internal::work"* %116, i64 0, i32 0, i32 7
  %128 = load i32, i32* %127, align 4, !tbaa !30
  br i1 %126, label %129, label %133

129:                                              ; preds = %123
  %130 = getelementptr inbounds %"struct.Halide::Runtime::Internal::work", %"struct.Halide::Runtime::Internal::work"* %116, i64 0, i32 6
  %131 = load i32, i32* %130, align 8, !tbaa !60
  %132 = sub nsw i32 %128, %131
  br label %138

133:                                              ; preds = %123
  %134 = mul nsw i32 %128, %125
  %135 = getelementptr inbounds %"struct.Halide::Runtime::Internal::work", %"struct.Halide::Runtime::Internal::work"* %116, i64 0, i32 6
  %136 = load i32, i32* %135, align 8, !tbaa !60
  %137 = sub nsw i32 %134, %136
  br label %138

138:                                              ; preds = %133, %129, %118
  %139 = phi i32 [ %122, %118 ], [ %132, %129 ], [ %137, %133 ]
  %140 = getelementptr inbounds %"struct.Halide::Runtime::Internal::work", %"struct.Halide::Runtime::Internal::work"* %113, i64 0, i32 0, i32 7
  %141 = load i32, i32* %140, align 4, !tbaa !30
  %142 = icmp slt i32 %139, %141
  %143 = getelementptr inbounds %"struct.Halide::Runtime::Internal::work", %"struct.Halide::Runtime::Internal::work"* %113, i64 0, i32 3
  %144 = load %"struct.Halide::Runtime::Internal::work"*, %"struct.Halide::Runtime::Internal::work"** %143, align 8, !tbaa !38
  %145 = load %"struct.Halide::Runtime::Internal::work"*, %"struct.Halide::Runtime::Internal::work"** %7, align 8, !tbaa !38
  %146 = icmp ne %"struct.Halide::Runtime::Internal::work"* %144, %145
  %147 = icmp ne i32 %141, 0
  %148 = getelementptr inbounds %"struct.Halide::Runtime::Internal::work", %"struct.Halide::Runtime::Internal::work"* %113, i64 0, i32 0, i32 8
  %149 = load i8, i8* %148, align 8, !tbaa !26, !range !17
  %150 = icmp eq i8 %149, 0
  br i1 %150, label %._crit_edge, label %151

._crit_edge:                                      ; preds = %138
  %.0 = xor i1 true, true
  br label %155

151:                                              ; preds = %138
  %152 = getelementptr inbounds %"struct.Halide::Runtime::Internal::work", %"struct.Halide::Runtime::Internal::work"* %113, i64 0, i32 8
  %153 = load i32, i32* %152, align 8, !tbaa !35
  %154 = icmp eq i32 %153, 0
  %.1 = xor i1 %154, true
  br label %155

155:                                              ; preds = %151, %._crit_edge
  %.phi = phi i1 [ %.0, %._crit_edge ], [ %.1, %151 ]
  %156 = and i1 %147, %146
  %157 = or i1 %142, %156
  %158 = or i1 %157, %.phi
  br i1 %158, label %.loopexit36, label %159

159:                                              ; preds = %155
  %160 = getelementptr inbounds %"struct.Halide::Runtime::Internal::work", %"struct.Halide::Runtime::Internal::work"* %113, i64 0, i32 10
  %161 = load i32, i32* %160, align 8, !tbaa !36
  %162 = getelementptr inbounds %"struct.Halide::Runtime::Internal::work", %"struct.Halide::Runtime::Internal::work"* %113, i64 0, i32 0, i32 4
  %163 = load i32, i32* %162, align 8, !tbaa !28
  %164 = icmp slt i32 %161, %163
  br i1 %164, label %165, label %.loopexit35

165:                                              ; preds = %159
  %166 = getelementptr inbounds %"struct.Halide::Runtime::Internal::work", %"struct.Halide::Runtime::Internal::work"* %113, i64 0, i32 0, i32 3
  br label %167

167:                                              ; preds = %176, %165
  %168 = phi i32 [ %161, %165 ], [ %178, %176 ]
  %169 = load %struct.halide_semaphore_acquire_t*, %struct.halide_semaphore_acquire_t** %166, align 8, !tbaa !27
  %170 = sext i32 %168 to i64
  %171 = getelementptr inbounds %struct.halide_semaphore_acquire_t, %struct.halide_semaphore_acquire_t* %169, i64 %170, i32 0
  %172 = load %struct.halide_semaphore_t*, %struct.halide_semaphore_t** %171, align 8, !tbaa !68
  %173 = getelementptr inbounds %struct.halide_semaphore_acquire_t, %struct.halide_semaphore_acquire_t* %169, i64 %170, i32 1
  %174 = load i32, i32* %173, align 8, !tbaa !70
  %175 = tail call zeroext i1 @halide_default_semaphore_try_acquire(%struct.halide_semaphore_t* %172, i32 %174) #12
  br i1 %175, label %176, label %.loopexit36

176:                                              ; preds = %167
  %177 = load i32, i32* %160, align 8, !tbaa !36
  %178 = add nsw i32 %177, 1
  store i32 %178, i32* %160, align 8, !tbaa !36
  %179 = load i32, i32* %162, align 8, !tbaa !28
  %180 = icmp slt i32 %178, %179
  br i1 %180, label %167, label %.loopexit35, !llvm.loop !71

.loopexit36:                                      ; preds = %167, %155
  %181 = getelementptr inbounds %"struct.Halide::Runtime::Internal::work", %"struct.Halide::Runtime::Internal::work"* %113, i64 0, i32 2
  %182 = load %"struct.Halide::Runtime::Internal::work"*, %"struct.Halide::Runtime::Internal::work"** %181, align 8, !tbaa !64
  %183 = icmp eq %"struct.Halide::Runtime::Internal::work"* %182, null
  br i1 %183, label %.loopexit41, label %.preheader42

.loopexit41:                                      ; preds = %.loopexit36, %.loopexit34
  br i1 %3, label %192, label %.thread

.thread:                                          ; preds = %.loopexit41, %45
  %184 = add nsw i32 %11, 1
  %185 = icmp slt i32 %11, 40
  br i1 %185, label %186, label %187

186:                                              ; preds = %.thread
  tail call void @halide_mutex_unlock(%struct.halide_mutex* getelementptr inbounds (%"struct.Halide::Runtime::Internal::work_queue_t", %"struct.Halide::Runtime::Internal::work_queue_t"* @_ZN6Halide7Runtime8Internal10work_queueE, i64 0, i32 0)) #13
  tail call void @halide_thread_yield() #12
  tail call void @halide_mutex_lock(%struct.halide_mutex* getelementptr inbounds (%"struct.Halide::Runtime::Internal::work_queue_t", %"struct.Halide::Runtime::Internal::work_queue_t"* @_ZN6Halide7Runtime8Internal10work_queueE, i64 0, i32 0)) #13
  br label %.backedge

187:                                              ; preds = %.thread
  %188 = load i32, i32* getelementptr inbounds (%"struct.Halide::Runtime::Internal::work_queue_t", %"struct.Halide::Runtime::Internal::work_queue_t"* @_ZN6Halide7Runtime8Internal10work_queueE, i64 0, i32 12), align 4, !tbaa !62
  %189 = add nsw i32 %188, 1
  store i32 %189, i32* getelementptr inbounds (%"struct.Halide::Runtime::Internal::work_queue_t", %"struct.Halide::Runtime::Internal::work_queue_t"* @_ZN6Halide7Runtime8Internal10work_queueE, i64 0, i32 12), align 4, !tbaa !62
  store i8 1, i8* %8, align 4, !tbaa !37
  tail call void @halide_cond_wait(%struct.halide_mutex* getelementptr inbounds (%"struct.Halide::Runtime::Internal::work_queue_t", %"struct.Halide::Runtime::Internal::work_queue_t"* @_ZN6Halide7Runtime8Internal10work_queueE, i64 0, i32 10), %struct.halide_mutex* getelementptr inbounds (%"struct.Halide::Runtime::Internal::work_queue_t", %"struct.Halide::Runtime::Internal::work_queue_t"* @_ZN6Halide7Runtime8Internal10work_queueE, i64 0, i32 0)) #13
  store i8 0, i8* %8, align 4, !tbaa !37
  %190 = load i32, i32* getelementptr inbounds (%"struct.Halide::Runtime::Internal::work_queue_t", %"struct.Halide::Runtime::Internal::work_queue_t"* @_ZN6Halide7Runtime8Internal10work_queueE, i64 0, i32 12), align 4, !tbaa !62
  %191 = add nsw i32 %190, -1
  store i32 %191, i32* getelementptr inbounds (%"struct.Halide::Runtime::Internal::work_queue_t", %"struct.Halide::Runtime::Internal::work_queue_t"* @_ZN6Halide7Runtime8Internal10work_queueE, i64 0, i32 12), align 4, !tbaa !62
  br label %.backedge

192:                                              ; preds = %.loopexit41, %47
  %193 = load i32, i32* getelementptr inbounds (%"struct.Halide::Runtime::Internal::work_queue_t", %"struct.Halide::Runtime::Internal::work_queue_t"* @_ZN6Halide7Runtime8Internal10work_queueE, i64 0, i32 11), align 8, !tbaa !72
  %194 = add nsw i32 %193, 1
  store i32 %194, i32* getelementptr inbounds (%"struct.Halide::Runtime::Internal::work_queue_t", %"struct.Halide::Runtime::Internal::work_queue_t"* @_ZN6Halide7Runtime8Internal10work_queueE, i64 0, i32 11), align 8, !tbaa !72
  %195 = load i32, i32* getelementptr inbounds (%"struct.Halide::Runtime::Internal::work_queue_t", %"struct.Halide::Runtime::Internal::work_queue_t"* @_ZN6Halide7Runtime8Internal10work_queueE, i64 0, i32 5), align 4, !tbaa !58
  %196 = load i32, i32* getelementptr inbounds (%"struct.Halide::Runtime::Internal::work_queue_t", %"struct.Halide::Runtime::Internal::work_queue_t"* @_ZN6Halide7Runtime8Internal10work_queueE, i64 0, i32 6), align 8, !tbaa !63
  %197 = icmp sgt i32 %195, %196
  br i1 %197, label %198, label %202

198:                                              ; preds = %192
  %199 = add nsw i32 %195, -1
  store i32 %199, i32* getelementptr inbounds (%"struct.Halide::Runtime::Internal::work_queue_t", %"struct.Halide::Runtime::Internal::work_queue_t"* @_ZN6Halide7Runtime8Internal10work_queueE, i64 0, i32 5), align 4, !tbaa !58
  tail call void @halide_cond_wait(%struct.halide_mutex* getelementptr inbounds (%"struct.Halide::Runtime::Internal::work_queue_t", %"struct.Halide::Runtime::Internal::work_queue_t"* @_ZN6Halide7Runtime8Internal10work_queueE, i64 0, i32 9), %struct.halide_mutex* getelementptr inbounds (%"struct.Halide::Runtime::Internal::work_queue_t", %"struct.Halide::Runtime::Internal::work_queue_t"* @_ZN6Halide7Runtime8Internal10work_queueE, i64 0, i32 0)) #13
  %200 = load i32, i32* getelementptr inbounds (%"struct.Halide::Runtime::Internal::work_queue_t", %"struct.Halide::Runtime::Internal::work_queue_t"* @_ZN6Halide7Runtime8Internal10work_queueE, i64 0, i32 5), align 4, !tbaa !58
  %201 = add nsw i32 %200, 1
  store i32 %201, i32* getelementptr inbounds (%"struct.Halide::Runtime::Internal::work_queue_t", %"struct.Halide::Runtime::Internal::work_queue_t"* @_ZN6Halide7Runtime8Internal10work_queueE, i64 0, i32 5), align 4, !tbaa !58
  br label %207

202:                                              ; preds = %192
  %203 = add nsw i32 %11, 1
  %204 = icmp slt i32 %11, 40
  br i1 %204, label %205, label %206

205:                                              ; preds = %202
  tail call void @halide_mutex_unlock(%struct.halide_mutex* getelementptr inbounds (%"struct.Halide::Runtime::Internal::work_queue_t", %"struct.Halide::Runtime::Internal::work_queue_t"* @_ZN6Halide7Runtime8Internal10work_queueE, i64 0, i32 0)) #13
  tail call void @halide_thread_yield() #12
  tail call void @halide_mutex_lock(%struct.halide_mutex* getelementptr inbounds (%"struct.Halide::Runtime::Internal::work_queue_t", %"struct.Halide::Runtime::Internal::work_queue_t"* @_ZN6Halide7Runtime8Internal10work_queueE, i64 0, i32 0)) #13
  br label %207

206:                                              ; preds = %202
  tail call void @halide_cond_wait(%struct.halide_mutex* getelementptr inbounds (%"struct.Halide::Runtime::Internal::work_queue_t", %"struct.Halide::Runtime::Internal::work_queue_t"* @_ZN6Halide7Runtime8Internal10work_queueE, i64 0, i32 8), %struct.halide_mutex* getelementptr inbounds (%"struct.Halide::Runtime::Internal::work_queue_t", %"struct.Halide::Runtime::Internal::work_queue_t"* @_ZN6Halide7Runtime8Internal10work_queueE, i64 0, i32 0)) #13
  br label %207

207:                                              ; preds = %206, %205, %198
  %208 = phi i32 [ %11, %198 ], [ %203, %205 ], [ %203, %206 ]
  %209 = load i32, i32* getelementptr inbounds (%"struct.Halide::Runtime::Internal::work_queue_t", %"struct.Halide::Runtime::Internal::work_queue_t"* @_ZN6Halide7Runtime8Internal10work_queueE, i64 0, i32 11), align 8, !tbaa !72
  %210 = add nsw i32 %209, -1
  store i32 %210, i32* getelementptr inbounds (%"struct.Halide::Runtime::Internal::work_queue_t", %"struct.Halide::Runtime::Internal::work_queue_t"* @_ZN6Halide7Runtime8Internal10work_queueE, i64 0, i32 11), align 8, !tbaa !72
  br label %.backedge

.loopexit35:                                      ; preds = %176, %159, %105, %88
  %211 = phi i32* [ %89, %105 ], [ %160, %176 ], [ %89, %88 ], [ %160, %159 ]
  %212 = phi %"struct.Halide::Runtime::Internal::work"** [ %51, %105 ], [ %114, %176 ], [ %51, %88 ], [ %114, %159 ]
  %213 = phi %"struct.Halide::Runtime::Internal::work"* [ %50, %105 ], [ %113, %176 ], [ %50, %88 ], [ %113, %159 ]
  store i32 0, i32* %211, align 8, !tbaa !36
  %214 = getelementptr inbounds %"struct.Halide::Runtime::Internal::work", %"struct.Halide::Runtime::Internal::work"* %213, i64 0, i32 8
  %215 = load i32, i32* %214, align 8, !tbaa !35
  %216 = add nsw i32 %215, 1
  store i32 %216, i32* %214, align 8, !tbaa !35
  %217 = getelementptr inbounds %"struct.Halide::Runtime::Internal::work", %"struct.Halide::Runtime::Internal::work"* %213, i64 0, i32 5
  %218 = load %"struct.Halide::Runtime::Internal::work"*, %"struct.Halide::Runtime::Internal::work"** %217, align 8, !tbaa !40
  %219 = icmp eq %"struct.Halide::Runtime::Internal::work"* %218, null
  %220 = getelementptr inbounds %"struct.Halide::Runtime::Internal::work", %"struct.Halide::Runtime::Internal::work"* %213, i64 0, i32 0, i32 7
  %221 = load i32, i32* %220, align 4, !tbaa !30
  br i1 %219, label %222, label %225

222:                                              ; preds = %.loopexit35
  %223 = load i32, i32* getelementptr inbounds (%"struct.Halide::Runtime::Internal::work_queue_t", %"struct.Halide::Runtime::Internal::work_queue_t"* @_ZN6Halide7Runtime8Internal10work_queueE, i64 0, i32 16), align 4, !tbaa !57
  %224 = add nsw i32 %223, %221
  store i32 %224, i32* getelementptr inbounds (%"struct.Halide::Runtime::Internal::work_queue_t", %"struct.Halide::Runtime::Internal::work_queue_t"* @_ZN6Halide7Runtime8Internal10work_queueE, i64 0, i32 16), align 4, !tbaa !57
  br label %229

225:                                              ; preds = %.loopexit35
  %226 = getelementptr inbounds %"struct.Halide::Runtime::Internal::work", %"struct.Halide::Runtime::Internal::work"* %218, i64 0, i32 6
  %227 = load i32, i32* %226, align 8, !tbaa !60
  %228 = add nsw i32 %227, %221
  store i32 %228, i32* %226, align 8, !tbaa !60
  br label %229

229:                                              ; preds = %225, %222
  %230 = getelementptr inbounds %"struct.Halide::Runtime::Internal::work", %"struct.Halide::Runtime::Internal::work"* %213, i64 0, i32 0, i32 8
  %231 = load i8, i8* %230, align 8, !tbaa !26, !range !17
  %232 = icmp eq i8 %231, 0
  br i1 %232, label %305, label %233

233:                                              ; preds = %229
  %234 = getelementptr inbounds %"struct.Halide::Runtime::Internal::work", %"struct.Halide::Runtime::Internal::work"* %213, i64 0, i32 2
  %235 = load %"struct.Halide::Runtime::Internal::work"*, %"struct.Halide::Runtime::Internal::work"** %234, align 8, !tbaa !64
  store %"struct.Halide::Runtime::Internal::work"* %235, %"struct.Halide::Runtime::Internal::work"** %212, align 8, !tbaa !10
  tail call void @halide_mutex_unlock(%struct.halide_mutex* getelementptr inbounds (%"struct.Halide::Runtime::Internal::work_queue_t", %"struct.Halide::Runtime::Internal::work_queue_t"* @_ZN6Halide7Runtime8Internal10work_queueE, i64 0, i32 0)) #13
  %236 = getelementptr inbounds %"struct.Halide::Runtime::Internal::work", %"struct.Halide::Runtime::Internal::work"* %213, i64 0, i32 0, i32 6
  %237 = getelementptr inbounds %"struct.Halide::Runtime::Internal::work", %"struct.Halide::Runtime::Internal::work"* %213, i64 0, i32 10
  %238 = getelementptr inbounds %"struct.Halide::Runtime::Internal::work", %"struct.Halide::Runtime::Internal::work"* %213, i64 0, i32 0, i32 4
  %239 = getelementptr inbounds %"struct.Halide::Runtime::Internal::work", %"struct.Halide::Runtime::Internal::work"* %213, i64 0, i32 0, i32 3
  %240 = getelementptr inbounds %"struct.Halide::Runtime::Internal::work", %"struct.Halide::Runtime::Internal::work"* %213, i64 0, i32 7
  %241 = getelementptr inbounds %"struct.Halide::Runtime::Internal::work", %"struct.Halide::Runtime::Internal::work"* %213, i64 0, i32 0, i32 0
  %242 = getelementptr inbounds %"struct.Halide::Runtime::Internal::work", %"struct.Halide::Runtime::Internal::work"* %213, i64 0, i32 0, i32 5
  %243 = getelementptr inbounds %"struct.Halide::Runtime::Internal::work", %"struct.Halide::Runtime::Internal::work"* %213, i64 0, i32 0, i32 1
  %244 = bitcast %"struct.Halide::Runtime::Internal::work"* %213 to i8*
  br label %245

245:                                              ; preds = %.loopexit33, %233
  %246 = phi i32 [ 1, %233 ], [ 0, %.loopexit33 ]
  %247 = phi i32 [ 0, %233 ], [ %290, %.loopexit33 ]
  %248 = load i32, i32* %236, align 8, !tbaa !25
  %249 = sub nsw i32 %248, %247
  %250 = icmp sgt i32 %249, %246
  br i1 %250, label %251, label %.loopexit

251:                                              ; preds = %245
  %252 = load i32, i32* %237, align 8, !tbaa !36
  %253 = load i32, i32* %238, align 8, !tbaa !28
  br label %254

254:                                              ; preds = %275, %251
  %255 = phi i32 [ %276, %275 ], [ %248, %251 ]
  %256 = phi i32 [ %277, %275 ], [ %253, %251 ]
  %257 = phi i32 [ 0, %275 ], [ %252, %251 ]
  %258 = phi i32 [ %278, %275 ], [ %246, %251 ]
  %259 = icmp slt i32 %257, %256
  br i1 %259, label %.preheader, label %275

.preheader:                                       ; preds = %268, %254
  %260 = phi i32 [ %270, %268 ], [ %257, %254 ]
  %261 = load %struct.halide_semaphore_acquire_t*, %struct.halide_semaphore_acquire_t** %239, align 8, !tbaa !27
  %262 = sext i32 %260 to i64
  %263 = getelementptr inbounds %struct.halide_semaphore_acquire_t, %struct.halide_semaphore_acquire_t* %261, i64 %262, i32 0
  %264 = load %struct.halide_semaphore_t*, %struct.halide_semaphore_t** %263, align 8, !tbaa !68
  %265 = getelementptr inbounds %struct.halide_semaphore_acquire_t, %struct.halide_semaphore_acquire_t* %261, i64 %262, i32 1
  %266 = load i32, i32* %265, align 8, !tbaa !70
  %267 = tail call zeroext i1 @halide_default_semaphore_try_acquire(%struct.halide_semaphore_t* %264, i32 %266) #12
  br i1 %267, label %268, label %.loopexit

268:                                              ; preds = %.preheader
  %269 = load i32, i32* %237, align 8, !tbaa !36
  %270 = add nsw i32 %269, 1
  store i32 %270, i32* %237, align 8, !tbaa !36
  %271 = load i32, i32* %238, align 8, !tbaa !28
  %272 = icmp slt i32 %270, %271
  br i1 %272, label %.preheader, label %273, !llvm.loop !71

273:                                              ; preds = %268
  %274 = load i32, i32* %236, align 8, !tbaa !25
  br label %275

275:                                              ; preds = %273, %254
  %276 = phi i32 [ %274, %273 ], [ %255, %254 ]
  %277 = phi i32 [ %271, %273 ], [ %256, %254 ]
  store i32 0, i32* %237, align 8, !tbaa !36
  %278 = add nuw nsw i32 %258, 1
  %279 = sub nsw i32 %276, %247
  %280 = icmp sgt i32 %279, %278
  br i1 %280, label %254, label %.loopexit33, !llvm.loop !73

.loopexit:                                        ; preds = %.preheader, %245
  %281 = phi i32 [ %246, %245 ], [ %258, %.preheader ]
  %282 = icmp eq i32 %281, 0
  br i1 %282, label %292, label %.loopexit33

.loopexit33:                                      ; preds = %.loopexit, %275
  %283 = phi i32 [ %281, %.loopexit ], [ %278, %275 ]
  %284 = load i8*, i8** %240, align 8, !tbaa !33
  %285 = load i32 (i8*, i32, i32, i8*, i8*)*, i32 (i8*, i32, i32, i8*, i8*)** %241, align 8, !tbaa !20
  %286 = load i32, i32* %242, align 4, !tbaa !24
  %287 = add nsw i32 %286, %247
  %288 = load i8*, i8** %243, align 8, !tbaa !29
  %289 = tail call i32 @halide_do_loop_task(i8* %284, i32 (i8*, i32, i32, i8*, i8*)* %285, i32 %287, i32 %283, i8* %288, i8* nonnull %244) #13
  %290 = add nuw nsw i32 %283, %247
  %291 = icmp eq i32 %289, 0
  br i1 %291, label %245, label %292, !llvm.loop !74

292:                                              ; preds = %.loopexit33, %.loopexit
  %293 = phi i1 [ true, %.loopexit ], [ false, %.loopexit33 ]
  %294 = phi i32 [ 0, %.loopexit ], [ %289, %.loopexit33 ]
  %295 = phi i32 [ %247, %.loopexit ], [ %290, %.loopexit33 ]
  tail call void @halide_mutex_lock(%struct.halide_mutex* getelementptr inbounds (%"struct.Halide::Runtime::Internal::work_queue_t", %"struct.Halide::Runtime::Internal::work_queue_t"* @_ZN6Halide7Runtime8Internal10work_queueE, i64 0, i32 0)) #13
  %296 = load i32, i32* %242, align 4, !tbaa !24
  %297 = add nsw i32 %296, %295
  store i32 %297, i32* %242, align 4, !tbaa !24
  %298 = load i32, i32* %236, align 8, !tbaa !25
  %299 = sub nsw i32 %298, %295
  store i32 %299, i32* %236, align 8, !tbaa !25
  br i1 %293, label %301, label %300

300:                                              ; preds = %292
  store i32 0, i32* %236, align 8, !tbaa !25
  br label %334

301:                                              ; preds = %292
  %302 = icmp sgt i32 %299, 0
  br i1 %302, label %303, label %.loopexit38

303:                                              ; preds = %301
  %304 = load %"struct.Halide::Runtime::Internal::work"*, %"struct.Halide::Runtime::Internal::work"** getelementptr inbounds (%"struct.Halide::Runtime::Internal::work_queue_t", %"struct.Halide::Runtime::Internal::work_queue_t"* @_ZN6Halide7Runtime8Internal10work_queueE, i64 0, i32 3), align 8, !tbaa !61
  store %"struct.Halide::Runtime::Internal::work"* %304, %"struct.Halide::Runtime::Internal::work"** %234, align 8, !tbaa !64
  store %"struct.Halide::Runtime::Internal::work"* %213, %"struct.Halide::Runtime::Internal::work"** getelementptr inbounds (%"struct.Halide::Runtime::Internal::work_queue_t", %"struct.Halide::Runtime::Internal::work_queue_t"* @_ZN6Halide7Runtime8Internal10work_queueE, i64 0, i32 3), align 8, !tbaa !61
  br label %.loopexit38

305:                                              ; preds = %229
  %306 = getelementptr inbounds %"struct.Halide::Runtime::Internal::work", %"struct.Halide::Runtime::Internal::work"* %213, i64 0, i32 0, i32 0
  %307 = load i32 (i8*, i32, i32, i8*, i8*)*, i32 (i8*, i32, i32, i8*, i8*)** %306, align 8, !tbaa.struct !75
  %308 = getelementptr inbounds %"struct.Halide::Runtime::Internal::work", %"struct.Halide::Runtime::Internal::work"* %213, i64 0, i32 0, i32 1
  %309 = load i8*, i8** %308, align 8, !tbaa.struct !77
  %310 = getelementptr inbounds %"struct.Halide::Runtime::Internal::work", %"struct.Halide::Runtime::Internal::work"* %213, i64 0, i32 0, i32 5
  %311 = load i32, i32* %310, align 4
  %312 = getelementptr inbounds %"struct.Halide::Runtime::Internal::work", %"struct.Halide::Runtime::Internal::work"* %213, i64 0, i32 1
  %313 = load i32 (i8*, i32, i8*)*, i32 (i8*, i32, i8*)** %312, align 8, !tbaa.struct !78
  %314 = getelementptr inbounds %"struct.Halide::Runtime::Internal::work", %"struct.Halide::Runtime::Internal::work"* %213, i64 0, i32 7
  %315 = load i8*, i8** %314, align 8, !tbaa.struct !79
  %316 = add nsw i32 %311, 1
  store i32 %316, i32* %310, align 4, !tbaa !24
  %317 = getelementptr inbounds %"struct.Halide::Runtime::Internal::work", %"struct.Halide::Runtime::Internal::work"* %213, i64 0, i32 0, i32 6
  %318 = load i32, i32* %317, align 8, !tbaa !25
  %319 = add nsw i32 %318, -1
  store i32 %319, i32* %317, align 8, !tbaa !25
  %320 = icmp eq i32 %319, 0
  br i1 %320, label %321, label %324

321:                                              ; preds = %305
  %322 = getelementptr inbounds %"struct.Halide::Runtime::Internal::work", %"struct.Halide::Runtime::Internal::work"* %213, i64 0, i32 2
  %323 = load %"struct.Halide::Runtime::Internal::work"*, %"struct.Halide::Runtime::Internal::work"** %322, align 8, !tbaa !64
  store %"struct.Halide::Runtime::Internal::work"* %323, %"struct.Halide::Runtime::Internal::work"** %212, align 8, !tbaa !10
  br label %324

324:                                              ; preds = %321, %305
  tail call void @halide_mutex_unlock(%struct.halide_mutex* getelementptr inbounds (%"struct.Halide::Runtime::Internal::work_queue_t", %"struct.Halide::Runtime::Internal::work_queue_t"* @_ZN6Halide7Runtime8Internal10work_queueE, i64 0, i32 0)) #13
  %325 = icmp eq i32 (i8*, i32, i8*)* %313, null
  br i1 %325, label %328, label %326

326:                                              ; preds = %324
  %327 = tail call i32 @halide_do_task(i8* %315, i32 (i8*, i32, i8*)* nonnull %313, i32 %311, i8* %309) #13
  br label %331

328:                                              ; preds = %324
  %329 = bitcast %"struct.Halide::Runtime::Internal::work"* %213 to i8*
  %330 = tail call i32 @halide_do_loop_task(i8* %315, i32 (i8*, i32, i32, i8*, i8*)* %307, i32 %311, i32 1, i8* %309, i8* %329) #13
  br label %331

331:                                              ; preds = %328, %326
  %332 = phi i32 [ %327, %326 ], [ %330, %328 ]
  tail call void @halide_mutex_lock(%struct.halide_mutex* getelementptr inbounds (%"struct.Halide::Runtime::Internal::work_queue_t", %"struct.Halide::Runtime::Internal::work_queue_t"* @_ZN6Halide7Runtime8Internal10work_queueE, i64 0, i32 0)) #13
  %333 = icmp eq i32 %332, 0
  br i1 %333, label %.loopexit38, label %334

334:                                              ; preds = %331, %300
  %335 = phi i32 [ %294, %300 ], [ %332, %331 ]
  %336 = getelementptr inbounds %"struct.Halide::Runtime::Internal::work", %"struct.Halide::Runtime::Internal::work"* %213, i64 0, i32 9
  store i32 %335, i32* %336, align 4, !tbaa !34
  %337 = getelementptr inbounds %"struct.Halide::Runtime::Internal::work", %"struct.Halide::Runtime::Internal::work"* %213, i64 0, i32 4
  %338 = load i32, i32* %337, align 8, !tbaa !39
  %339 = icmp sgt i32 %338, 0
  br i1 %339, label %340, label %.loopexit38

340:                                              ; preds = %334
  %341 = getelementptr inbounds %"struct.Halide::Runtime::Internal::work", %"struct.Halide::Runtime::Internal::work"* %213, i64 0, i32 3
  %342 = load %"struct.Halide::Runtime::Internal::work"*, %"struct.Halide::Runtime::Internal::work"** %341, align 8, !tbaa !38
  %343 = zext i32 %338 to i64
  br label %344

344:                                              ; preds = %360, %340
  %345 = phi i64 [ 0, %340 ], [ %362, %360 ]
  %346 = phi i8 [ 0, %340 ], [ %361, %360 ]
  %347 = getelementptr inbounds %"struct.Halide::Runtime::Internal::work", %"struct.Halide::Runtime::Internal::work"* %342, i64 %345, i32 9
  %348 = load i32, i32* %347, align 4, !tbaa !34
  %349 = icmp eq i32 %348, 0
  br i1 %349, label %350, label %360

350:                                              ; preds = %344
  store i32 %335, i32* %347, align 4, !tbaa !34
  %351 = load i32, i32* %214, align 8, !tbaa !35
  %352 = icmp eq i32 %351, 0
  br i1 %352, label %353, label %356

353:                                              ; preds = %350
  %354 = getelementptr inbounds %"struct.Halide::Runtime::Internal::work", %"struct.Halide::Runtime::Internal::work"* %342, i64 %345, i32 11
  %355 = load i8, i8* %354, align 4, !tbaa !37, !range !17
  br label %356

356:                                              ; preds = %353, %350
  %357 = phi i8 [ 0, %350 ], [ %355, %353 ]
  %358 = and i8 %346, 1
  %359 = or i8 %357, %358
  br label %360

360:                                              ; preds = %356, %344
  %361 = phi i8 [ %359, %356 ], [ %346, %344 ]
  %362 = add nuw nsw i64 %345, 1
  %363 = icmp eq i64 %362, %343
  br i1 %363, label %.loopexit38, label %344, !llvm.loop !80

.loopexit38:                                      ; preds = %360, %334, %331, %303, %301
  %364 = phi i8 [ 0, %331 ], [ 0, %301 ], [ 0, %303 ], [ 0, %334 ], [ %361, %360 ]
  %365 = load %"struct.Halide::Runtime::Internal::work"*, %"struct.Halide::Runtime::Internal::work"** %217, align 8, !tbaa !40
  %366 = icmp eq %"struct.Halide::Runtime::Internal::work"* %365, null
  %367 = load i32, i32* %220, align 4, !tbaa !30
  br i1 %366, label %368, label %371

368:                                              ; preds = %.loopexit38
  %369 = load i32, i32* getelementptr inbounds (%"struct.Halide::Runtime::Internal::work_queue_t", %"struct.Halide::Runtime::Internal::work_queue_t"* @_ZN6Halide7Runtime8Internal10work_queueE, i64 0, i32 16), align 4, !tbaa !57
  %370 = sub nsw i32 %369, %367
  store i32 %370, i32* getelementptr inbounds (%"struct.Halide::Runtime::Internal::work_queue_t", %"struct.Halide::Runtime::Internal::work_queue_t"* @_ZN6Halide7Runtime8Internal10work_queueE, i64 0, i32 16), align 4, !tbaa !57
  br label %375

371:                                              ; preds = %.loopexit38
  %372 = getelementptr inbounds %"struct.Halide::Runtime::Internal::work", %"struct.Halide::Runtime::Internal::work"* %365, i64 0, i32 6
  %373 = load i32, i32* %372, align 8, !tbaa !60
  %374 = sub nsw i32 %373, %367
  store i32 %374, i32* %372, align 8, !tbaa !60
  br label %375

375:                                              ; preds = %371, %368
  %376 = load i32, i32* %214, align 8, !tbaa !35
  %377 = add nsw i32 %376, -1
  store i32 %377, i32* %214, align 8, !tbaa !35
  %378 = and i8 %364, 1
  %379 = icmp eq i8 %378, 0
  br i1 %379, label %380, label %394

380:                                              ; preds = %375
  %381 = icmp eq i32 %377, 0
  br i1 %381, label %382, label %.backedge

382:                                              ; preds = %380
  %383 = getelementptr inbounds %"struct.Halide::Runtime::Internal::work", %"struct.Halide::Runtime::Internal::work"* %213, i64 0, i32 0, i32 6
  %384 = load i32, i32* %383, align 8, !tbaa !25
  %385 = icmp eq i32 %384, 0
  br i1 %385, label %390, label %386

386:                                              ; preds = %382
  %387 = getelementptr inbounds %"struct.Halide::Runtime::Internal::work", %"struct.Halide::Runtime::Internal::work"* %213, i64 0, i32 9
  %388 = load i32, i32* %387, align 4, !tbaa !34
  %389 = icmp eq i32 %388, 0
  br i1 %389, label %.backedge, label %390

390:                                              ; preds = %386, %382
  %391 = getelementptr inbounds %"struct.Halide::Runtime::Internal::work", %"struct.Halide::Runtime::Internal::work"* %213, i64 0, i32 11
  %392 = load i8, i8* %391, align 4, !tbaa !37, !range !17
  %393 = icmp eq i8 %392, 0
  br i1 %393, label %.backedge, label %394

394:                                              ; preds = %390, %375
  tail call void @halide_cond_broadcast(%struct.halide_mutex* getelementptr inbounds (%"struct.Halide::Runtime::Internal::work_queue_t", %"struct.Halide::Runtime::Internal::work_queue_t"* @_ZN6Halide7Runtime8Internal10work_queueE, i64 0, i32 10)) #13
  br label %.backedge

.backedge:                                        ; preds = %394, %390, %386, %380, %207, %187, %186, %44, %.loopexit46
  %.be = phi i32 [ %11, %.loopexit46 ], [ %11, %44 ], [ %184, %186 ], [ %184, %187 ], [ %208, %207 ], [ 0, %394 ], [ 0, %390 ], [ 0, %386 ], [ 0, %380 ]
  br label %10, !llvm.loop !81

395:                                              ; preds = %18, %15
  ret void
}

; Function Attrs: nounwind
define weak void @halide_mutex_unlock(%struct.halide_mutex* %0) local_unnamed_addr #4 {
  %2 = alloca %"struct.Halide::Runtime::Internal::Synchronization::mutex_parking_control", align 8
  %3 = getelementptr %struct.halide_mutex, %struct.halide_mutex* %0, i64 0, i32 0, i64 0
  %4 = cmpxchg weak i64* %3, i64 1, i64 0 release monotonic
  %5 = extractvalue { i64, i1 } %4, 1
  br i1 %5, label %19, label %6

6:                                                ; preds = %1
  %7 = cmpxchg i64* %3, i64 1, i64 0 release monotonic
  %8 = extractvalue { i64, i1 } %7, 1
  br i1 %8, label %19, label %9

9:                                                ; preds = %6
  %10 = bitcast %"struct.Halide::Runtime::Internal::Synchronization::mutex_parking_control"* %2 to i8*
  call void @llvm.lifetime.start.p0i8(i64 40, i8* nonnull %10) #10
  %11 = getelementptr inbounds %"struct.Halide::Runtime::Internal::Synchronization::mutex_parking_control", %"struct.Halide::Runtime::Internal::Synchronization::mutex_parking_control"* %2, i64 0, i32 0, i32 0
  %12 = getelementptr inbounds %"struct.Halide::Runtime::Internal::Synchronization::mutex_parking_control", %"struct.Halide::Runtime::Internal::Synchronization::mutex_parking_control"* %2, i64 0, i32 0, i32 1
  store void (i8*)* @_ZN6Halide7Runtime8Internal15Synchronization28parking_control_before_sleepEPv, void (i8*)** %12, align 8, !tbaa !41
  %13 = getelementptr inbounds %"struct.Halide::Runtime::Internal::Synchronization::mutex_parking_control", %"struct.Halide::Runtime::Internal::Synchronization::mutex_parking_control"* %2, i64 0, i32 0, i32 2
  %14 = getelementptr inbounds %"struct.Halide::Runtime::Internal::Synchronization::mutex_parking_control", %"struct.Halide::Runtime::Internal::Synchronization::mutex_parking_control"* %2, i64 0, i32 0, i32 3
  store void (i8*, %"struct.Halide::Runtime::Internal::Synchronization::validate_action"*, i1, i1)* @_ZN6Halide7Runtime8Internal15Synchronization32parking_control_requeue_callbackEPvRKNS2_15validate_actionEbb, void (i8*, %"struct.Halide::Runtime::Internal::Synchronization::validate_action"*, i1, i1)** %14, align 8, !tbaa !43
  %15 = getelementptr inbounds %"struct.Halide::Runtime::Internal::Synchronization::mutex_parking_control", %"struct.Halide::Runtime::Internal::Synchronization::mutex_parking_control"* %2, i64 0, i32 1
  store i64* %3, i64** %15, align 8, !tbaa !44
  store i1 (i8*, %"struct.Halide::Runtime::Internal::Synchronization::validate_action"*)* @_ZN6Halide7Runtime8Internal15Synchronization30mutex_parking_control_validateEPvRNS2_15validate_actionE, i1 (i8*, %"struct.Halide::Runtime::Internal::Synchronization::validate_action"*)** %11, align 8, !tbaa !46
  store i64 (i8*, i32, i1)* @_ZN6Halide7Runtime8Internal15Synchronization28mutex_parking_control_unparkEPvib, i64 (i8*, i32, i1)** %13, align 8, !tbaa !47
  %16 = ptrtoint %struct.halide_mutex* %0 to i64
  %17 = getelementptr inbounds %"struct.Halide::Runtime::Internal::Synchronization::mutex_parking_control", %"struct.Halide::Runtime::Internal::Synchronization::mutex_parking_control"* %2, i64 0, i32 0
  %18 = call i64 @_ZN6Halide7Runtime8Internal15Synchronization10unpark_oneEyRNS2_15parking_controlE(i64 %16, %"struct.Halide::Runtime::Internal::Synchronization::parking_control"* nonnull align 8 dereferenceable(32) %17) #12
  call void @llvm.lifetime.end.p0i8(i64 40, i8* nonnull %10) #10
  br label %19

19:                                               ; preds = %9, %6, %1
  ret void
}

; Function Attrs: nounwind willreturn mustprogress
define linkonce void @_ZN6Halide7Runtime8Internal15Synchronization28parking_control_before_sleepEPv(i8* %0) #2 {
  ret void
}

; Function Attrs: nounwind willreturn mustprogress
define linkonce void @_ZN6Halide7Runtime8Internal15Synchronization32parking_control_requeue_callbackEPvRKNS2_15validate_actionEbb(i8* %0, %"struct.Halide::Runtime::Internal::Synchronization::validate_action"* nonnull align 8 dereferenceable(16) %1, i1 zeroext %2, i1 zeroext %3) #2 {
  ret void
}

; Function Attrs: nounwind willreturn mustprogress
define linkonce zeroext i1 @_ZN6Halide7Runtime8Internal15Synchronization30mutex_parking_control_validateEPvRNS2_15validate_actionE(i8* %0, %"struct.Halide::Runtime::Internal::Synchronization::validate_action"* nonnull align 8 dereferenceable(16) %1) #2 {
  %3 = getelementptr inbounds i8, i8* %0, i64 32
  %4 = bitcast i8* %3 to i64**
  %5 = load i64*, i64** %4, align 8, !tbaa !44
  %6 = load atomic i64, i64* %5 monotonic, align 8
  %7 = icmp eq i64 %6, 3
  ret i1 %7
}

; Function Attrs: nounwind willreturn mustprogress
define linkonce i64 @_ZN6Halide7Runtime8Internal15Synchronization28mutex_parking_control_unparkEPvib(i8* %0, i32 %1, i1 zeroext %2) #2 {
  %4 = select i1 %2, i64 2, i64 0
  %5 = getelementptr inbounds i8, i8* %0, i64 32
  %6 = bitcast i8* %5 to i64**
  %7 = load i64*, i64** %6, align 8, !tbaa !44
  store atomic i64 %4, i64* %7 release, align 8
  ret i64 0
}

; Function Attrs: nounwind mustprogress
define linkonce i64 @_ZN6Halide7Runtime8Internal15Synchronization10unpark_oneEyRNS2_15parking_controlE(i64 %0, %"struct.Halide::Runtime::Internal::Synchronization::parking_control"* nonnull align 8 dereferenceable(32) %1) local_unnamed_addr #0 {
  %3 = tail call nonnull align 8 dereferenceable(24) %"struct.Halide::Runtime::Internal::Synchronization::hash_bucket"* @_ZN6Halide7Runtime8Internal15Synchronization11lock_bucketEy(i64 %0) #13
  %4 = getelementptr inbounds %"struct.Halide::Runtime::Internal::Synchronization::hash_bucket", %"struct.Halide::Runtime::Internal::Synchronization::hash_bucket"* %3, i64 0, i32 1
  %5 = load %"struct.Halide::Runtime::Internal::Synchronization::queue_data"*, %"struct.Halide::Runtime::Internal::Synchronization::queue_data"** %4, align 8, !tbaa !10
  %6 = getelementptr inbounds %"struct.Halide::Runtime::Internal::Synchronization::hash_bucket", %"struct.Halide::Runtime::Internal::Synchronization::hash_bucket"* %3, i64 0, i32 2
  %7 = getelementptr inbounds %"struct.Halide::Runtime::Internal::Synchronization::parking_control", %"struct.Halide::Runtime::Internal::Synchronization::parking_control"* %1, i64 0, i32 2
  %8 = bitcast %"struct.Halide::Runtime::Internal::Synchronization::parking_control"* %1 to i8*
  %9 = getelementptr inbounds %"struct.Halide::Runtime::Internal::Synchronization::hash_bucket", %"struct.Halide::Runtime::Internal::Synchronization::hash_bucket"* %3, i64 0, i32 0, i32 0
  %10 = getelementptr inbounds %"struct.Halide::Runtime::Internal::Synchronization::hash_bucket", %"struct.Halide::Runtime::Internal::Synchronization::hash_bucket"* %3, i64 0, i32 0
  br label %11

11:                                               ; preds = %59, %2
  %12 = phi %"struct.Halide::Runtime::Internal::Synchronization::queue_data"** [ %4, %2 ], [ %60, %59 ]
  %13 = phi %"struct.Halide::Runtime::Internal::Synchronization::queue_data"* [ null, %2 ], [ %61, %59 ]
  %14 = phi %"struct.Halide::Runtime::Internal::Synchronization::queue_data"* [ %5, %2 ], [ %62, %59 ]
  %15 = phi i64 [ undef, %2 ], [ %63, %59 ]
  %16 = icmp eq %"struct.Halide::Runtime::Internal::Synchronization::queue_data"* %14, null
  br i1 %16, label %64, label %17

17:                                               ; preds = %11
  %18 = getelementptr inbounds %"struct.Halide::Runtime::Internal::Synchronization::queue_data", %"struct.Halide::Runtime::Internal::Synchronization::queue_data"* %14, i64 0, i32 1
  %19 = load atomic i64, i64* %18 monotonic, align 8
  %20 = icmp eq i64 %19, %0
  %21 = getelementptr inbounds %"struct.Halide::Runtime::Internal::Synchronization::queue_data", %"struct.Halide::Runtime::Internal::Synchronization::queue_data"* %14, i64 0, i32 2
  %22 = load %"struct.Halide::Runtime::Internal::Synchronization::queue_data"*, %"struct.Halide::Runtime::Internal::Synchronization::queue_data"** %21, align 8, !tbaa !82
  br i1 %20, label %23, label %59

23:                                               ; preds = %17
  store %"struct.Halide::Runtime::Internal::Synchronization::queue_data"* %22, %"struct.Halide::Runtime::Internal::Synchronization::queue_data"** %12, align 8, !tbaa !10
  %24 = load %"struct.Halide::Runtime::Internal::Synchronization::queue_data"*, %"struct.Halide::Runtime::Internal::Synchronization::queue_data"** %6, align 8, !tbaa !88
  %25 = icmp eq %"struct.Halide::Runtime::Internal::Synchronization::queue_data"* %24, %14
  br i1 %25, label %28, label %26

26:                                               ; preds = %23
  %27 = icmp eq %"struct.Halide::Runtime::Internal::Synchronization::queue_data"* %22, null
  br i1 %27, label %39, label %.preheader

28:                                               ; preds = %23
  store %"struct.Halide::Runtime::Internal::Synchronization::queue_data"* %13, %"struct.Halide::Runtime::Internal::Synchronization::queue_data"** %6, align 8, !tbaa !88
  br label %39

.preheader:                                       ; preds = %.preheader, %26
  %29 = phi %"struct.Halide::Runtime::Internal::Synchronization::queue_data"* [ %34, %.preheader ], [ %22, %26 ]
  %30 = getelementptr inbounds %"struct.Halide::Runtime::Internal::Synchronization::queue_data", %"struct.Halide::Runtime::Internal::Synchronization::queue_data"* %29, i64 0, i32 1
  %31 = load atomic i64, i64* %30 monotonic, align 8
  %32 = icmp eq i64 %31, %0
  %33 = getelementptr inbounds %"struct.Halide::Runtime::Internal::Synchronization::queue_data", %"struct.Halide::Runtime::Internal::Synchronization::queue_data"* %29, i64 0, i32 2
  %34 = load %"struct.Halide::Runtime::Internal::Synchronization::queue_data"*, %"struct.Halide::Runtime::Internal::Synchronization::queue_data"** %33, align 8, !tbaa !82
  %35 = icmp eq %"struct.Halide::Runtime::Internal::Synchronization::queue_data"* %34, null
  %36 = or i1 %32, %35
  br i1 %36, label %37, label %.preheader, !llvm.loop !91

37:                                               ; preds = %.preheader
  %38 = zext i1 %32 to i8
  br label %39

39:                                               ; preds = %37, %28, %26
  %40 = phi i8 [ 0, %28 ], [ 0, %26 ], [ %38, %37 ]
  %41 = load i64 (i8*, i32, i1)*, i64 (i8*, i32, i1)** %7, align 8, !tbaa !47
  %42 = icmp ne i8 %40, 0
  %43 = tail call i64 %41(i8* nonnull %8, i32 1, i1 zeroext %42) #12
  %44 = getelementptr inbounds %"struct.Halide::Runtime::Internal::Synchronization::queue_data", %"struct.Halide::Runtime::Internal::Synchronization::queue_data"* %14, i64 0, i32 3
  store i64 %43, i64* %44, align 8, !tbaa !92
  %45 = getelementptr inbounds %"struct.Halide::Runtime::Internal::Synchronization::queue_data", %"struct.Halide::Runtime::Internal::Synchronization::queue_data"* %14, i64 0, i32 0, i32 0
  %46 = tail call i32 @pthread_mutex_lock(%struct.pthread_mutex_t* nonnull %45) #12
  %47 = atomicrmw and i64* %9, i64 -2 release
  %48 = and i64 %47, 2
  %49 = icmp ne i64 %48, 0
  %50 = icmp ult i64 %47, 4
  %51 = or i1 %50, %49
  br i1 %51, label %53, label %52

52:                                               ; preds = %39
  tail call void @_ZN6Halide7Runtime8Internal15Synchronization9word_lock11unlock_fullEv(%"class.Halide::Runtime::Internal::Synchronization::word_lock"* nonnull dereferenceable(8) %10) #12
  br label %53

53:                                               ; preds = %52, %39
  %54 = getelementptr inbounds %"struct.Halide::Runtime::Internal::Synchronization::queue_data", %"struct.Halide::Runtime::Internal::Synchronization::queue_data"* %14, i64 0, i32 0, i32 2
  store i8 0, i8* %54, align 8, !tbaa !93
  %55 = getelementptr inbounds %"struct.Halide::Runtime::Internal::Synchronization::queue_data", %"struct.Halide::Runtime::Internal::Synchronization::queue_data"* %14, i64 0, i32 0, i32 1
  %56 = tail call i32 @pthread_cond_signal(%struct.pthread_mutex_t* nonnull %55) #12
  %57 = tail call i32 @pthread_mutex_unlock(%struct.pthread_mutex_t* nonnull %45) #12
  %58 = zext i8 %40 to i64
  br label %59

59:                                               ; preds = %53, %17
  %60 = phi %"struct.Halide::Runtime::Internal::Synchronization::queue_data"** [ %12, %53 ], [ %21, %17 ]
  %61 = phi %"struct.Halide::Runtime::Internal::Synchronization::queue_data"* [ %13, %53 ], [ %14, %17 ]
  %62 = phi %"struct.Halide::Runtime::Internal::Synchronization::queue_data"* [ %14, %53 ], [ %22, %17 ]
  %63 = phi i64 [ %58, %53 ], [ %15, %17 ]
  br i1 %20, label %.loopexit, label %11, !llvm.loop !94

64:                                               ; preds = %11
  %65 = load i64 (i8*, i32, i1)*, i64 (i8*, i32, i1)** %7, align 8, !tbaa !47
  %66 = tail call i64 %65(i8* nonnull %8, i32 0, i1 zeroext false) #12
  %67 = atomicrmw and i64* %9, i64 -2 release
  %68 = and i64 %67, 2
  %69 = icmp ne i64 %68, 0
  %70 = icmp ult i64 %67, 4
  %71 = or i1 %70, %69
  br i1 %71, label %.loopexit, label %72

72:                                               ; preds = %64
  tail call void @_ZN6Halide7Runtime8Internal15Synchronization9word_lock11unlock_fullEv(%"class.Halide::Runtime::Internal::Synchronization::word_lock"* nonnull dereferenceable(8) %10) #12
  br label %.loopexit

.loopexit:                                        ; preds = %72, %64, %59
  %73 = phi i64 [ 0, %64 ], [ 0, %72 ], [ %63, %59 ]
  ret i64 %73
}

; Function Attrs: nounwind mustprogress
define linkonce nonnull align 8 dereferenceable(24) %"struct.Halide::Runtime::Internal::Synchronization::hash_bucket"* @_ZN6Halide7Runtime8Internal15Synchronization11lock_bucketEy(i64 %0) local_unnamed_addr #0 {
  %2 = mul i64 %0, -7046029254386353131
  %3 = lshr i64 %2, 54
  %4 = getelementptr inbounds [1024 x %"struct.Halide::Runtime::Internal::Synchronization::hash_bucket"], [1024 x %"struct.Halide::Runtime::Internal::Synchronization::hash_bucket"]* bitcast ([24576 x i8]* @_ZN6Halide7Runtime8Internal15Synchronization13table_storageE to [1024 x %"struct.Halide::Runtime::Internal::Synchronization::hash_bucket"]*), i64 0, i64 %3
  %5 = getelementptr inbounds %"struct.Halide::Runtime::Internal::Synchronization::hash_bucket", %"struct.Halide::Runtime::Internal::Synchronization::hash_bucket"* %4, i64 0, i32 0, i32 0
  %6 = cmpxchg weak i64* %5, i64 0, i64 1 acquire monotonic
  %7 = extractvalue { i64, i1 } %6, 1
  br i1 %7, label %10, label %8

8:                                                ; preds = %1
  %9 = getelementptr inbounds %"struct.Halide::Runtime::Internal::Synchronization::hash_bucket", %"struct.Halide::Runtime::Internal::Synchronization::hash_bucket"* %4, i64 0, i32 0
  tail call void @_ZN6Halide7Runtime8Internal15Synchronization9word_lock9lock_fullEv(%"class.Halide::Runtime::Internal::Synchronization::word_lock"* nonnull dereferenceable(8) %9) #12
  br label %10

10:                                               ; preds = %8, %1
  ret %"struct.Halide::Runtime::Internal::Synchronization::hash_bucket"* %4
}

declare i32 @pthread_mutex_lock(%struct.pthread_mutex_t*) local_unnamed_addr #1

; Function Attrs: nounwind
define linkonce void @_ZN6Halide7Runtime8Internal15Synchronization9word_lock11unlock_fullEv(%"class.Halide::Runtime::Internal::Synchronization::word_lock"* nonnull dereferenceable(8) %0) local_unnamed_addr #4 align 2 {
  %2 = getelementptr inbounds %"class.Halide::Runtime::Internal::Synchronization::word_lock", %"class.Halide::Runtime::Internal::Synchronization::word_lock"* %0, i64 0, i32 0
  %3 = load atomic i64, i64* %2 monotonic, align 8
  br label %4

4:                                                ; preds = %10, %1
  %5 = phi i64 [ %3, %1 ], [ %14, %10 ]
  %6 = and i64 %5, 2
  %7 = icmp ne i64 %6, 0
  %8 = icmp ult i64 %5, 4
  %9 = or i1 %8, %7
  br i1 %9, label %.loopexit9, label %10

10:                                               ; preds = %4
  %11 = or i64 %5, 2
  %12 = cmpxchg weak i64* %2, i64 %5, i64 %11 acquire monotonic
  %13 = extractvalue { i64, i1 } %12, 1
  %14 = extractvalue { i64, i1 } %12, 0
  br i1 %13, label %.preheader8, label %4

.preheader8:                                      ; preds = %.loopexit5, %10
  %15 = phi { i64, i1 } [ %58, %.loopexit5 ], [ %12, %10 ]
  %16 = extractvalue { i64, i1 } %15, 0
  %17 = and i64 %16, -4
  %18 = inttoptr i64 %17 to %"struct.Halide::Runtime::Internal::Synchronization::word_lock_queue_data"*
  %19 = getelementptr inbounds %"struct.Halide::Runtime::Internal::Synchronization::word_lock_queue_data", %"struct.Halide::Runtime::Internal::Synchronization::word_lock_queue_data"* %18, i64 0, i32 3
  %20 = load %"struct.Halide::Runtime::Internal::Synchronization::word_lock_queue_data"*, %"struct.Halide::Runtime::Internal::Synchronization::word_lock_queue_data"** %19, align 8, !tbaa !95
  %21 = icmp eq %"struct.Halide::Runtime::Internal::Synchronization::word_lock_queue_data"* %20, null
  br i1 %21, label %.preheader6, label %.loopexit7

.preheader6:                                      ; preds = %27, %.preheader8
  %22 = phi %"struct.Halide::Runtime::Internal::Synchronization::word_lock_queue_data"* [ %24, %27 ], [ %18, %.preheader8 ]
  %23 = getelementptr inbounds %"struct.Halide::Runtime::Internal::Synchronization::word_lock_queue_data", %"struct.Halide::Runtime::Internal::Synchronization::word_lock_queue_data"* %22, i64 0, i32 1
  %24 = load %"struct.Halide::Runtime::Internal::Synchronization::word_lock_queue_data"*, %"struct.Halide::Runtime::Internal::Synchronization::word_lock_queue_data"** %23, align 8, !tbaa !97
  %25 = icmp eq %"struct.Halide::Runtime::Internal::Synchronization::word_lock_queue_data"* %24, null
  br i1 %25, label %26, label %27

26:                                               ; preds = %.preheader6
  tail call void @halide_print(i8* null, i8* getelementptr inbounds ([94 x i8], [94 x i8]* @.str.5, i64 0, i64 0)) #12
  tail call void @abort() #12
  br label %27

27:                                               ; preds = %26, %.preheader6
  %28 = getelementptr inbounds %"struct.Halide::Runtime::Internal::Synchronization::word_lock_queue_data", %"struct.Halide::Runtime::Internal::Synchronization::word_lock_queue_data"* %24, i64 0, i32 2
  store %"struct.Halide::Runtime::Internal::Synchronization::word_lock_queue_data"* %22, %"struct.Halide::Runtime::Internal::Synchronization::word_lock_queue_data"** %28, align 8, !tbaa !98
  %29 = getelementptr inbounds %"struct.Halide::Runtime::Internal::Synchronization::word_lock_queue_data", %"struct.Halide::Runtime::Internal::Synchronization::word_lock_queue_data"* %24, i64 0, i32 3
  %30 = load %"struct.Halide::Runtime::Internal::Synchronization::word_lock_queue_data"*, %"struct.Halide::Runtime::Internal::Synchronization::word_lock_queue_data"** %29, align 8, !tbaa !95
  %31 = icmp eq %"struct.Halide::Runtime::Internal::Synchronization::word_lock_queue_data"* %30, null
  br i1 %31, label %.preheader6, label %.loopexit7, !llvm.loop !99

.loopexit7:                                       ; preds = %27, %.preheader8
  %32 = phi %"struct.Halide::Runtime::Internal::Synchronization::word_lock_queue_data"* [ %20, %.preheader8 ], [ %30, %27 ]
  store %"struct.Halide::Runtime::Internal::Synchronization::word_lock_queue_data"* %32, %"struct.Halide::Runtime::Internal::Synchronization::word_lock_queue_data"** %19, align 8, !tbaa !95
  %33 = and i64 %16, 1
  %34 = icmp eq i64 %33, 0
  br i1 %34, label %39, label %35

35:                                               ; preds = %.loopexit7
  %36 = and i64 %16, -3
  %37 = cmpxchg weak i64* %2, i64 %16, i64 %36 acq_rel monotonic
  %38 = extractvalue { i64, i1 } %37, 1
  br i1 %38, label %.loopexit9, label %.loopexit5

39:                                               ; preds = %.loopexit7
  %40 = getelementptr inbounds %"struct.Halide::Runtime::Internal::Synchronization::word_lock_queue_data", %"struct.Halide::Runtime::Internal::Synchronization::word_lock_queue_data"* %32, i64 0, i32 2
  %41 = load %"struct.Halide::Runtime::Internal::Synchronization::word_lock_queue_data"*, %"struct.Halide::Runtime::Internal::Synchronization::word_lock_queue_data"** %40, align 8, !tbaa !98
  %42 = icmp eq %"struct.Halide::Runtime::Internal::Synchronization::word_lock_queue_data"* %41, null
  br i1 %42, label %.preheader, label %50

.preheader:                                       ; preds = %47, %39
  %43 = phi i64 [ %48, %47 ], [ %16, %39 ]
  %44 = and i64 %43, 1
  %45 = cmpxchg weak i64* %2, i64 %43, i64 %44 acq_rel monotonic
  %46 = extractvalue { i64, i1 } %45, 1
  br i1 %46, label %.loopexit, label %47

47:                                               ; preds = %.preheader
  %48 = extractvalue { i64, i1 } %45, 0
  %49 = icmp ult i64 %48, 4
  br i1 %49, label %.preheader, label %.loopexit5, !llvm.loop !100

50:                                               ; preds = %39
  store %"struct.Halide::Runtime::Internal::Synchronization::word_lock_queue_data"* %41, %"struct.Halide::Runtime::Internal::Synchronization::word_lock_queue_data"** %19, align 8, !tbaa !95
  %51 = atomicrmw and i64* %2, i64 -3 release
  br label %.loopexit

.loopexit:                                        ; preds = %50, %.preheader
  %52 = getelementptr inbounds %"struct.Halide::Runtime::Internal::Synchronization::word_lock_queue_data", %"struct.Halide::Runtime::Internal::Synchronization::word_lock_queue_data"* %32, i64 0, i32 0, i32 0
  %53 = tail call i32 @pthread_mutex_lock(%struct.pthread_mutex_t* nonnull %52) #12
  %54 = getelementptr inbounds %"struct.Halide::Runtime::Internal::Synchronization::word_lock_queue_data", %"struct.Halide::Runtime::Internal::Synchronization::word_lock_queue_data"* %32, i64 0, i32 0, i32 2
  store i8 0, i8* %54, align 8, !tbaa !93
  %55 = getelementptr inbounds %"struct.Halide::Runtime::Internal::Synchronization::word_lock_queue_data", %"struct.Halide::Runtime::Internal::Synchronization::word_lock_queue_data"* %32, i64 0, i32 0, i32 1
  %56 = tail call i32 @pthread_cond_signal(%struct.pthread_mutex_t* nonnull %55) #12
  %57 = tail call i32 @pthread_mutex_unlock(%struct.pthread_mutex_t* nonnull %52) #12
  br label %.loopexit9

.loopexit5:                                       ; preds = %47, %35
  %58 = phi { i64, i1 } [ %37, %35 ], [ %45, %47 ]
  fence acquire
  br label %.preheader8

.loopexit9:                                       ; preds = %.loopexit, %35, %4
  ret void
}

declare i32 @pthread_cond_signal(%struct.pthread_mutex_t*) local_unnamed_addr #1

declare i32 @pthread_mutex_unlock(%struct.pthread_mutex_t*) local_unnamed_addr #1

; Function Attrs: nounwind
define linkonce void @_ZN6Halide7Runtime8Internal15Synchronization9word_lock9lock_fullEv(%"class.Halide::Runtime::Internal::Synchronization::word_lock"* nonnull dereferenceable(8) %0) local_unnamed_addr #4 align 2 {
  %2 = alloca %"struct.Halide::Runtime::Internal::Synchronization::word_lock_queue_data", align 8
  %3 = getelementptr inbounds %"class.Halide::Runtime::Internal::Synchronization::word_lock", %"class.Halide::Runtime::Internal::Synchronization::word_lock"* %0, i64 0, i32 0
  %4 = load atomic i64, i64* %3 monotonic, align 8
  %5 = bitcast %"struct.Halide::Runtime::Internal::Synchronization::word_lock_queue_data"* %2 to i8*
  %6 = getelementptr inbounds %"struct.Halide::Runtime::Internal::Synchronization::word_lock_queue_data", %"struct.Halide::Runtime::Internal::Synchronization::word_lock_queue_data"* %2, i64 0, i32 0, i32 2
  %7 = getelementptr inbounds %"struct.Halide::Runtime::Internal::Synchronization::word_lock_queue_data", %"struct.Halide::Runtime::Internal::Synchronization::word_lock_queue_data"* %2, i64 0, i32 0, i32 0
  %8 = getelementptr inbounds %"struct.Halide::Runtime::Internal::Synchronization::word_lock_queue_data", %"struct.Halide::Runtime::Internal::Synchronization::word_lock_queue_data"* %2, i64 0, i32 0, i32 1
  %9 = getelementptr inbounds %"struct.Halide::Runtime::Internal::Synchronization::word_lock_queue_data", %"struct.Halide::Runtime::Internal::Synchronization::word_lock_queue_data"* %2, i64 0, i32 1
  %10 = getelementptr inbounds %"struct.Halide::Runtime::Internal::Synchronization::word_lock_queue_data", %"struct.Halide::Runtime::Internal::Synchronization::word_lock_queue_data"* %2, i64 0, i32 3
  %11 = ptrtoint %"struct.Halide::Runtime::Internal::Synchronization::word_lock_queue_data"* %2 to i64
  %12 = bitcast %"struct.Halide::Runtime::Internal::Synchronization::word_lock_queue_data"** %9 to <2 x %"struct.Halide::Runtime::Internal::Synchronization::word_lock_queue_data"*>*
  br label %13

13:                                               ; preds = %.backedge, %1
  %14 = phi i64 [ %4, %1 ], [ %.be, %.backedge ]
  %15 = phi i32 [ 40, %1 ], [ %.be8, %.backedge ]
  %16 = and i64 %14, 1
  %17 = icmp eq i64 %16, 0
  br i1 %17, label %.preheader2, label %.loopexit3

.preheader2:                                      ; preds = %22, %13
  %18 = phi i64 [ %23, %22 ], [ %14, %13 ]
  %19 = or i64 %18, 1
  %20 = cmpxchg weak i64* %3, i64 %18, i64 %19 acquire monotonic
  %21 = extractvalue { i64, i1 } %20, 1
  br i1 %21, label %66, label %22

22:                                               ; preds = %.preheader2
  %23 = extractvalue { i64, i1 } %20, 0
  %24 = and i64 %23, 1
  %25 = icmp eq i64 %24, 0
  br i1 %25, label %.preheader2, label %.loopexit3.loopexit

.loopexit3.loopexit:                              ; preds = %22
  %26 = extractvalue { i64, i1 } %20, 0
  br label %.loopexit3

.loopexit3:                                       ; preds = %.loopexit3.loopexit, %13
  %27 = phi i64 [ %14, %13 ], [ %26, %.loopexit3.loopexit ]
  %28 = icmp ugt i64 %27, 3
  %29 = icmp sgt i32 %15, 0
  %30 = and i1 %29, %28
  br i1 %30, label %31, label %36

31:                                               ; preds = %.loopexit3
  %32 = icmp sgt i32 %15, 1
  br i1 %32, label %33, label %36

33:                                               ; preds = %31
  %34 = add nsw i32 %15, -1
  call void @halide_thread_yield() #12
  %35 = load atomic i64, i64* %3 monotonic, align 8
  br label %.backedge

36:                                               ; preds = %31, %.loopexit3
  %37 = phi i32 [ %15, %.loopexit3 ], [ 0, %31 ]
  call void @llvm.lifetime.start.p0i8(i64 160, i8* nonnull %5) #10
  store i8 0, i8* %6, align 8, !tbaa !93
  %38 = call i32 @pthread_mutex_init(%struct.pthread_mutex_t* nonnull %7, i8* null) #12
  %39 = call i32 @pthread_cond_init(%struct.pthread_mutex_t* nonnull %8, i8* null) #12
  store <2 x %"struct.Halide::Runtime::Internal::Synchronization::word_lock_queue_data"*> zeroinitializer, <2 x %"struct.Halide::Runtime::Internal::Synchronization::word_lock_queue_data"*>* %12, align 8, !tbaa !10
  store %"struct.Halide::Runtime::Internal::Synchronization::word_lock_queue_data"* null, %"struct.Halide::Runtime::Internal::Synchronization::word_lock_queue_data"** %10, align 8, !tbaa !95
  store i8 1, i8* %6, align 8, !tbaa !93
  %40 = and i64 %27, -4
  %41 = icmp eq i64 %40, 0
  br i1 %41, label %42, label %43

42:                                               ; preds = %36
  store %"struct.Halide::Runtime::Internal::Synchronization::word_lock_queue_data"* %2, %"struct.Halide::Runtime::Internal::Synchronization::word_lock_queue_data"** %10, align 8, !tbaa !95
  br label %45

43:                                               ; preds = %36
  %44 = inttoptr i64 %40 to %"struct.Halide::Runtime::Internal::Synchronization::word_lock_queue_data"*
  store %"struct.Halide::Runtime::Internal::Synchronization::word_lock_queue_data"* %44, %"struct.Halide::Runtime::Internal::Synchronization::word_lock_queue_data"** %9, align 8, !tbaa !97
  br label %45

45:                                               ; preds = %43, %42
  %46 = and i64 %27, 3
  %47 = or i64 %46, %11
  %48 = cmpxchg weak i64* %3, i64 %27, i64 %47 release monotonic
  %49 = extractvalue { i64, i1 } %48, 1
  br i1 %49, label %52, label %50

50:                                               ; preds = %45
  %51 = extractvalue { i64, i1 } %48, 0
  br label %61

52:                                               ; preds = %45
  %53 = call i32 @pthread_mutex_lock(%struct.pthread_mutex_t* nonnull %7) #12
  %54 = load i8, i8* %6, align 8, !tbaa !93, !range !17
  %55 = icmp eq i8 %54, 0
  br i1 %55, label %.loopexit, label %.preheader

.preheader:                                       ; preds = %.preheader, %52
  %56 = call i32 @pthread_cond_wait(%struct.pthread_mutex_t* nonnull %8, %struct.pthread_mutex_t* nonnull %7) #12
  %57 = load i8, i8* %6, align 8, !tbaa !93, !range !17
  %58 = icmp eq i8 %57, 0
  br i1 %58, label %.loopexit, label %.preheader, !llvm.loop !101

.loopexit:                                        ; preds = %.preheader, %52
  %59 = call i32 @pthread_mutex_unlock(%struct.pthread_mutex_t* nonnull %7) #12
  %60 = load atomic i64, i64* %3 monotonic, align 8
  br label %61

61:                                               ; preds = %.loopexit, %50
  %62 = phi i64 [ %60, %.loopexit ], [ %51, %50 ]
  %63 = phi i32 [ 40, %.loopexit ], [ %37, %50 ]
  %64 = call i32 @pthread_cond_destroy(%struct.pthread_mutex_t* nonnull %8) #12
  %65 = call i32 @pthread_mutex_destroy(%struct.pthread_mutex_t* nonnull %7) #12
  call void @llvm.lifetime.end.p0i8(i64 160, i8* nonnull %5) #10
  br label %.backedge

.backedge:                                        ; preds = %61, %33
  %.be = phi i64 [ %35, %33 ], [ %62, %61 ]
  %.be8 = phi i32 [ %34, %33 ], [ %63, %61 ]
  br label %13

66:                                               ; preds = %.preheader2
  ret void
}

declare i32 @pthread_mutex_init(%struct.pthread_mutex_t*, i8*) local_unnamed_addr #1

declare i32 @pthread_cond_init(%struct.pthread_mutex_t*, i8*) local_unnamed_addr #1

declare i32 @pthread_cond_wait(%struct.pthread_mutex_t*, %struct.pthread_mutex_t*) local_unnamed_addr #1

declare i32 @pthread_cond_destroy(%struct.pthread_mutex_t*) local_unnamed_addr #1

declare i32 @pthread_mutex_destroy(%struct.pthread_mutex_t*) local_unnamed_addr #1

; Function Attrs: nounwind
define weak void @halide_cond_broadcast(%struct.halide_mutex* %0) local_unnamed_addr #4 {
  %2 = alloca %"struct.Halide::Runtime::Internal::Synchronization::wait_parking_control", align 8
  %3 = getelementptr %struct.halide_mutex, %struct.halide_mutex* %0, i64 0, i32 0, i64 0
  %4 = load atomic i64, i64* %3 monotonic, align 8
  %5 = icmp eq i64 %4, 0
  br i1 %5, label %18, label %6

6:                                                ; preds = %1
  %7 = bitcast %"struct.Halide::Runtime::Internal::Synchronization::wait_parking_control"* %2 to i8*
  call void @llvm.lifetime.start.p0i8(i64 48, i8* nonnull %7) #10
  %8 = inttoptr i64 %4 to %"class.Halide::Runtime::Internal::Synchronization::word_lock"*
  %9 = getelementptr inbounds %"struct.Halide::Runtime::Internal::Synchronization::wait_parking_control", %"struct.Halide::Runtime::Internal::Synchronization::wait_parking_control"* %2, i64 0, i32 0, i32 0
  %10 = getelementptr inbounds %"struct.Halide::Runtime::Internal::Synchronization::wait_parking_control", %"struct.Halide::Runtime::Internal::Synchronization::wait_parking_control"* %2, i64 0, i32 0, i32 1
  store void (i8*)* @_ZN6Halide7Runtime8Internal15Synchronization28parking_control_before_sleepEPv, void (i8*)** %10, align 8, !tbaa !41
  %11 = getelementptr inbounds %"struct.Halide::Runtime::Internal::Synchronization::wait_parking_control", %"struct.Halide::Runtime::Internal::Synchronization::wait_parking_control"* %2, i64 0, i32 0, i32 2
  store i64 (i8*, i32, i1)* @_ZN6Halide7Runtime8Internal15Synchronization22parking_control_unparkEPvib, i64 (i8*, i32, i1)** %11, align 8, !tbaa !47
  %12 = getelementptr inbounds %"struct.Halide::Runtime::Internal::Synchronization::wait_parking_control", %"struct.Halide::Runtime::Internal::Synchronization::wait_parking_control"* %2, i64 0, i32 0, i32 3
  %13 = getelementptr inbounds %"struct.Halide::Runtime::Internal::Synchronization::wait_parking_control", %"struct.Halide::Runtime::Internal::Synchronization::wait_parking_control"* %2, i64 0, i32 1
  store i64* %3, i64** %13, align 8, !tbaa !102
  %14 = getelementptr inbounds %"struct.Halide::Runtime::Internal::Synchronization::wait_parking_control", %"struct.Halide::Runtime::Internal::Synchronization::wait_parking_control"* %2, i64 0, i32 2
  store %"class.Halide::Runtime::Internal::Synchronization::word_lock"* %8, %"class.Halide::Runtime::Internal::Synchronization::word_lock"** %14, align 8, !tbaa !104
  store i1 (i8*, %"struct.Halide::Runtime::Internal::Synchronization::validate_action"*)* @_ZN6Halide7Runtime8Internal15Synchronization34broadcast_parking_control_validateEPvRNS2_15validate_actionE, i1 (i8*, %"struct.Halide::Runtime::Internal::Synchronization::validate_action"*)** %9, align 8, !tbaa !46
  store void (i8*, %"struct.Halide::Runtime::Internal::Synchronization::validate_action"*, i1, i1)* @_ZN6Halide7Runtime8Internal15Synchronization42broadcast_parking_control_requeue_callbackEPvRKNS2_15validate_actionEbb, void (i8*, %"struct.Halide::Runtime::Internal::Synchronization::validate_action"*, i1, i1)** %12, align 8, !tbaa !43
  %15 = ptrtoint %struct.halide_mutex* %0 to i64
  %16 = getelementptr inbounds %"struct.Halide::Runtime::Internal::Synchronization::wait_parking_control", %"struct.Halide::Runtime::Internal::Synchronization::wait_parking_control"* %2, i64 0, i32 0
  %17 = call i32 @_ZN6Halide7Runtime8Internal15Synchronization14unpark_requeueEyyRNS2_15parking_controlEy(i64 %15, i64 %4, %"struct.Halide::Runtime::Internal::Synchronization::parking_control"* nonnull align 8 dereferenceable(32) %16, i64 0) #12
  call void @llvm.lifetime.end.p0i8(i64 48, i8* nonnull %7) #10
  br label %18

18:                                               ; preds = %6, %1
  ret void
}

; Function Attrs: nounwind mustprogress
define weak zeroext i1 @halide_default_semaphore_try_acquire(%struct.halide_semaphore_t* %0, i32 %1) #0 {
  %3 = icmp eq i32 %1, 0
  br i1 %3, label %.loopexit, label %4

4:                                                ; preds = %2
  %5 = bitcast %struct.halide_semaphore_t* %0 to i32*
  %6 = load atomic i32, i32* %5 acquire, align 4
  %7 = sub nsw i32 %6, %1
  %8 = icmp sgt i32 %7, -1
  br i1 %8, label %.preheader, label %.loopexit

.preheader:                                       ; preds = %13, %4
  %9 = phi i32 [ %15, %13 ], [ %7, %4 ]
  %10 = phi i32 [ %14, %13 ], [ %6, %4 ]
  %11 = cmpxchg weak i32* %5, i32 %10, i32 %9 acq_rel monotonic
  %12 = extractvalue { i32, i1 } %11, 1
  br i1 %12, label %.loopexit.loopexit, label %13

13:                                               ; preds = %.preheader
  %14 = extractvalue { i32, i1 } %11, 0
  %15 = sub nsw i32 %14, %1
  %16 = icmp sgt i32 %15, -1
  br i1 %16, label %.preheader, label %.loopexit.loopexit

.loopexit.loopexit:                               ; preds = %13, %.preheader
  %17 = extractvalue { i32, i1 } %11, 1
  br label %.loopexit

.loopexit:                                        ; preds = %.loopexit.loopexit, %4, %2
  %18 = phi i1 [ true, %2 ], [ false, %4 ], [ %17, %.loopexit.loopexit ]
  ret i1 %18
}

; Function Attrs: nounwind
define weak void @halide_cond_wait(%struct.halide_mutex* %0, %struct.halide_mutex* %1) local_unnamed_addr #4 {
  %3 = alloca %"struct.Halide::Runtime::Internal::Synchronization::mutex_parking_control", align 8
  %4 = alloca %"struct.Halide::Runtime::Internal::Synchronization::wait_parking_control", align 8
  %5 = bitcast %"struct.Halide::Runtime::Internal::Synchronization::wait_parking_control"* %4 to i8*
  call void @llvm.lifetime.start.p0i8(i64 48, i8* nonnull %5) #10
  %6 = getelementptr %struct.halide_mutex, %struct.halide_mutex* %0, i64 0, i32 0, i64 0
  %7 = getelementptr inbounds %"struct.Halide::Runtime::Internal::Synchronization::wait_parking_control", %"struct.Halide::Runtime::Internal::Synchronization::wait_parking_control"* %4, i64 0, i32 0, i32 0
  %8 = getelementptr inbounds %"struct.Halide::Runtime::Internal::Synchronization::wait_parking_control", %"struct.Halide::Runtime::Internal::Synchronization::wait_parking_control"* %4, i64 0, i32 0, i32 1
  %9 = getelementptr inbounds %"struct.Halide::Runtime::Internal::Synchronization::wait_parking_control", %"struct.Halide::Runtime::Internal::Synchronization::wait_parking_control"* %4, i64 0, i32 0, i32 2
  %10 = getelementptr inbounds %"struct.Halide::Runtime::Internal::Synchronization::wait_parking_control", %"struct.Halide::Runtime::Internal::Synchronization::wait_parking_control"* %4, i64 0, i32 0, i32 3
  store void (i8*, %"struct.Halide::Runtime::Internal::Synchronization::validate_action"*, i1, i1)* @_ZN6Halide7Runtime8Internal15Synchronization32parking_control_requeue_callbackEPvRKNS2_15validate_actionEbb, void (i8*, %"struct.Halide::Runtime::Internal::Synchronization::validate_action"*, i1, i1)** %10, align 8, !tbaa !43
  %11 = getelementptr inbounds %"struct.Halide::Runtime::Internal::Synchronization::wait_parking_control", %"struct.Halide::Runtime::Internal::Synchronization::wait_parking_control"* %4, i64 0, i32 1
  store i64* %6, i64** %11, align 8, !tbaa !105
  %12 = getelementptr inbounds %"struct.Halide::Runtime::Internal::Synchronization::wait_parking_control", %"struct.Halide::Runtime::Internal::Synchronization::wait_parking_control"* %4, i64 0, i32 2
  %13 = bitcast %"class.Halide::Runtime::Internal::Synchronization::word_lock"** %12 to %struct.halide_mutex**
  store %struct.halide_mutex* %1, %struct.halide_mutex** %13, align 8, !tbaa !107
  store i1 (i8*, %"struct.Halide::Runtime::Internal::Synchronization::validate_action"*)* @_ZN6Halide7Runtime8Internal15Synchronization29wait_parking_control_validateEPvRNS2_15validate_actionE, i1 (i8*, %"struct.Halide::Runtime::Internal::Synchronization::validate_action"*)** %7, align 8, !tbaa !46
  store void (i8*)* @_ZN6Halide7Runtime8Internal15Synchronization33wait_parking_control_before_sleepEPv, void (i8*)** %8, align 8, !tbaa !41
  store i64 (i8*, i32, i1)* @_ZN6Halide7Runtime8Internal15Synchronization27wait_parking_control_unparkEPvib, i64 (i8*, i32, i1)** %9, align 8, !tbaa !47
  %14 = ptrtoint %struct.halide_mutex* %0 to i64
  %15 = getelementptr inbounds %"struct.Halide::Runtime::Internal::Synchronization::wait_parking_control", %"struct.Halide::Runtime::Internal::Synchronization::wait_parking_control"* %4, i64 0, i32 0
  %16 = call i64 @_ZN6Halide7Runtime8Internal15Synchronization4parkEyRNS2_15parking_controlE(i64 %14, %"struct.Halide::Runtime::Internal::Synchronization::parking_control"* nonnull align 8 dereferenceable(32) %15) #12
  %17 = ptrtoint %struct.halide_mutex* %1 to i64
  %18 = icmp eq i64 %16, %17
  %19 = getelementptr %struct.halide_mutex, %struct.halide_mutex* %1, i64 0, i32 0, i64 0
  br i1 %18, label %69, label %20

20:                                               ; preds = %2
  %21 = cmpxchg weak i64* %19, i64 0, i64 1 acquire monotonic
  %22 = extractvalue { i64, i1 } %21, 1
  br i1 %22, label %.loopexit, label %23

23:                                               ; preds = %20
  %24 = load atomic i64, i64* %19 monotonic, align 8
  %25 = bitcast %"struct.Halide::Runtime::Internal::Synchronization::mutex_parking_control"* %3 to i8*
  %26 = getelementptr inbounds %"struct.Halide::Runtime::Internal::Synchronization::mutex_parking_control", %"struct.Halide::Runtime::Internal::Synchronization::mutex_parking_control"* %3, i64 0, i32 0, i32 0
  %27 = getelementptr inbounds %"struct.Halide::Runtime::Internal::Synchronization::mutex_parking_control", %"struct.Halide::Runtime::Internal::Synchronization::mutex_parking_control"* %3, i64 0, i32 0, i32 1
  %28 = getelementptr inbounds %"struct.Halide::Runtime::Internal::Synchronization::mutex_parking_control", %"struct.Halide::Runtime::Internal::Synchronization::mutex_parking_control"* %3, i64 0, i32 0, i32 2
  %29 = getelementptr inbounds %"struct.Halide::Runtime::Internal::Synchronization::mutex_parking_control", %"struct.Halide::Runtime::Internal::Synchronization::mutex_parking_control"* %3, i64 0, i32 0, i32 3
  %30 = getelementptr inbounds %"struct.Halide::Runtime::Internal::Synchronization::mutex_parking_control", %"struct.Halide::Runtime::Internal::Synchronization::mutex_parking_control"* %3, i64 0, i32 1
  %31 = getelementptr inbounds %"struct.Halide::Runtime::Internal::Synchronization::mutex_parking_control", %"struct.Halide::Runtime::Internal::Synchronization::mutex_parking_control"* %3, i64 0, i32 0
  br label %32

32:                                               ; preds = %.backedge, %23
  %33 = phi i64 [ %24, %23 ], [ %.be, %.backedge ]
  %34 = phi i32 [ 40, %23 ], [ %.be7, %.backedge ]
  %35 = and i64 %33, 1
  %36 = icmp eq i64 %35, 0
  br i1 %36, label %.preheader, label %.loopexit2

.preheader:                                       ; preds = %41, %32
  %37 = phi i64 [ %42, %41 ], [ %33, %32 ]
  %38 = or i64 %37, 1
  %39 = cmpxchg weak i64* %19, i64 %37, i64 %38 acquire monotonic
  %40 = extractvalue { i64, i1 } %39, 1
  br i1 %40, label %.loopexit, label %41

41:                                               ; preds = %.preheader
  %42 = extractvalue { i64, i1 } %39, 0
  %43 = and i64 %42, 1
  %44 = icmp eq i64 %43, 0
  br i1 %44, label %.preheader, label %.loopexit2.loopexit

.loopexit2.loopexit:                              ; preds = %41
  %45 = extractvalue { i64, i1 } %39, 0
  br label %.loopexit2

.loopexit2:                                       ; preds = %.loopexit2.loopexit, %32
  %46 = phi i64 [ %33, %32 ], [ %45, %.loopexit2.loopexit ]
  %47 = icmp sgt i32 %34, 0
  br i1 %47, label %48, label %53

48:                                               ; preds = %.loopexit2
  %49 = icmp eq i32 %34, 1
  br i1 %49, label %53, label %50

50:                                               ; preds = %48
  %51 = add nsw i32 %34, -1
  call void @halide_thread_yield() #12
  %52 = load atomic i64, i64* %19 monotonic, align 8
  br label %.backedge

53:                                               ; preds = %48, %.loopexit2
  %54 = phi i32 [ 0, %48 ], [ %34, %.loopexit2 ]
  %55 = and i64 %46, 2
  %56 = icmp eq i64 %55, 0
  br i1 %56, label %57, label %63

57:                                               ; preds = %53
  %58 = or i64 %46, 2
  %59 = cmpxchg weak i64* %19, i64 %46, i64 %58 monotonic monotonic
  %60 = extractvalue { i64, i1 } %59, 1
  br i1 %60, label %63, label %61

61:                                               ; preds = %57
  %62 = extractvalue { i64, i1 } %59, 0
  br label %.backedge

63:                                               ; preds = %57, %53
  call void @llvm.lifetime.start.p0i8(i64 40, i8* nonnull %25) #10
  store void (i8*)* @_ZN6Halide7Runtime8Internal15Synchronization28parking_control_before_sleepEPv, void (i8*)** %27, align 8, !tbaa !41
  store void (i8*, %"struct.Halide::Runtime::Internal::Synchronization::validate_action"*, i1, i1)* @_ZN6Halide7Runtime8Internal15Synchronization32parking_control_requeue_callbackEPvRKNS2_15validate_actionEbb, void (i8*, %"struct.Halide::Runtime::Internal::Synchronization::validate_action"*, i1, i1)** %29, align 8, !tbaa !43
  store i64* %19, i64** %30, align 8, !tbaa !44
  store i1 (i8*, %"struct.Halide::Runtime::Internal::Synchronization::validate_action"*)* @_ZN6Halide7Runtime8Internal15Synchronization30mutex_parking_control_validateEPvRNS2_15validate_actionE, i1 (i8*, %"struct.Halide::Runtime::Internal::Synchronization::validate_action"*)** %26, align 8, !tbaa !46
  store i64 (i8*, i32, i1)* @_ZN6Halide7Runtime8Internal15Synchronization28mutex_parking_control_unparkEPvib, i64 (i8*, i32, i1)** %28, align 8, !tbaa !47
  %64 = call i64 @_ZN6Halide7Runtime8Internal15Synchronization4parkEyRNS2_15parking_controlE(i64 %17, %"struct.Halide::Runtime::Internal::Synchronization::parking_control"* nonnull align 8 dereferenceable(32) %31) #12
  %65 = icmp eq i64 %64, %17
  br i1 %65, label %68, label %66

66:                                               ; preds = %63
  %67 = load atomic i64, i64* %19 monotonic, align 8
  call void @llvm.lifetime.end.p0i8(i64 40, i8* nonnull %25) #10
  br label %.backedge

.backedge:                                        ; preds = %66, %61, %50
  %.be = phi i64 [ %62, %61 ], [ %67, %66 ], [ %52, %50 ]
  %.be7 = phi i32 [ %54, %61 ], [ 40, %66 ], [ %51, %50 ]
  br label %32

68:                                               ; preds = %63
  call void @llvm.lifetime.end.p0i8(i64 40, i8* nonnull %25) #10
  br label %.loopexit

69:                                               ; preds = %2
  %70 = load atomic i64, i64* %19 monotonic, align 8
  %71 = and i64 %70, 1
  %72 = icmp eq i64 %71, 0
  br i1 %72, label %73, label %.loopexit

73:                                               ; preds = %69
  call void @halide_print(i8* null, i8* getelementptr inbounds ([89 x i8], [89 x i8]* @.str.6, i64 0, i64 0)) #12
  call void @abort() #12
  br label %.loopexit

.loopexit:                                        ; preds = %73, %69, %68, %.preheader, %20
  call void @llvm.lifetime.end.p0i8(i64 48, i8* nonnull %5) #10
  ret void
}

; Function Attrs: nounwind mustprogress
define weak i32 @halide_do_loop_task(i8* %0, i32 (i8*, i32, i32, i8*, i8*)* %1, i32 %2, i32 %3, i8* %4, i8* %5) local_unnamed_addr #0 {
  %7 = load i32 (i8*, i32 (i8*, i32, i32, i8*, i8*)*, i32, i32, i8*, i8*)*, i32 (i8*, i32 (i8*, i32, i32, i8*, i8*)*, i32, i32, i8*, i8*)** @_ZN6Halide7Runtime8Internal19custom_do_loop_taskE, align 8, !tbaa !10
  %8 = tail call i32 %7(i8* %0, i32 (i8*, i32, i32, i8*, i8*)* %1, i32 %2, i32 %3, i8* %4, i8* %5) #12
  ret i32 %8
}

; Function Attrs: nounwind mustprogress
define weak i32 @halide_do_task(i8* %0, i32 (i8*, i32, i8*)* %1, i32 %2, i8* %3) local_unnamed_addr #0 {
  %5 = load i32 (i8*, i32 (i8*, i32, i8*)*, i32, i8*)*, i32 (i8*, i32 (i8*, i32, i8*)*, i32, i8*)** @_ZN6Halide7Runtime8Internal14custom_do_taskE, align 8, !tbaa !10
  %6 = tail call i32 %5(i8* %0, i32 (i8*, i32, i8*)* %1, i32 %2, i8* %3) #12
  ret i32 %6
}

; Function Attrs: nounwind willreturn mustprogress
define linkonce zeroext i1 @_ZN6Halide7Runtime8Internal15Synchronization29wait_parking_control_validateEPvRNS2_15validate_actionE(i8* %0, %"struct.Halide::Runtime::Internal::Synchronization::validate_action"* nonnull align 8 dereferenceable(16) %1) #2 {
  %3 = getelementptr inbounds i8, i8* %0, i64 32
  %4 = bitcast i8* %3 to i64**
  %5 = load i64*, i64** %4, align 8, !tbaa !105
  %6 = load atomic i64, i64* %5 monotonic, align 8
  %7 = icmp eq i64 %6, 0
  %8 = getelementptr inbounds i8, i8* %0, i64 40
  %9 = bitcast i8* %8 to %"class.Halide::Runtime::Internal::Synchronization::word_lock"**
  %10 = load %"class.Halide::Runtime::Internal::Synchronization::word_lock"*, %"class.Halide::Runtime::Internal::Synchronization::word_lock"** %9, align 8, !tbaa !107
  %11 = ptrtoint %"class.Halide::Runtime::Internal::Synchronization::word_lock"* %10 to i64
  br i1 %7, label %12, label %13

12:                                               ; preds = %2
  store atomic i64 %11, i64* %5 monotonic, align 8
  br label %17

13:                                               ; preds = %2
  %14 = icmp eq i64 %6, %11
  br i1 %14, label %17, label %15

15:                                               ; preds = %13
  %16 = getelementptr inbounds %"struct.Halide::Runtime::Internal::Synchronization::validate_action", %"struct.Halide::Runtime::Internal::Synchronization::validate_action"* %1, i64 0, i32 2
  store i64 %11, i64* %16, align 8, !tbaa !108
  br label %17

17:                                               ; preds = %15, %13, %12
  %18 = phi i1 [ false, %15 ], [ true, %13 ], [ true, %12 ]
  ret i1 %18
}

; Function Attrs: nounwind
define linkonce void @_ZN6Halide7Runtime8Internal15Synchronization33wait_parking_control_before_sleepEPv(i8* %0) #4 {
  %2 = alloca %"struct.Halide::Runtime::Internal::Synchronization::mutex_parking_control", align 8
  %3 = getelementptr inbounds i8, i8* %0, i64 40
  %4 = bitcast i8* %3 to %"class.Halide::Runtime::Internal::Synchronization::word_lock"**
  %5 = load %"class.Halide::Runtime::Internal::Synchronization::word_lock"*, %"class.Halide::Runtime::Internal::Synchronization::word_lock"** %4, align 8, !tbaa !107
  %6 = getelementptr inbounds %"class.Halide::Runtime::Internal::Synchronization::word_lock", %"class.Halide::Runtime::Internal::Synchronization::word_lock"* %5, i64 0, i32 0
  %7 = cmpxchg weak i64* %6, i64 1, i64 0 release monotonic
  %8 = extractvalue { i64, i1 } %7, 1
  br i1 %8, label %22, label %9

9:                                                ; preds = %1
  %10 = cmpxchg i64* %6, i64 1, i64 0 release monotonic
  %11 = extractvalue { i64, i1 } %10, 1
  br i1 %11, label %22, label %12

12:                                               ; preds = %9
  %13 = bitcast %"struct.Halide::Runtime::Internal::Synchronization::mutex_parking_control"* %2 to i8*
  call void @llvm.lifetime.start.p0i8(i64 40, i8* nonnull %13) #10
  %14 = getelementptr inbounds %"struct.Halide::Runtime::Internal::Synchronization::mutex_parking_control", %"struct.Halide::Runtime::Internal::Synchronization::mutex_parking_control"* %2, i64 0, i32 0, i32 0
  %15 = getelementptr inbounds %"struct.Halide::Runtime::Internal::Synchronization::mutex_parking_control", %"struct.Halide::Runtime::Internal::Synchronization::mutex_parking_control"* %2, i64 0, i32 0, i32 1
  store void (i8*)* @_ZN6Halide7Runtime8Internal15Synchronization28parking_control_before_sleepEPv, void (i8*)** %15, align 8, !tbaa !41
  %16 = getelementptr inbounds %"struct.Halide::Runtime::Internal::Synchronization::mutex_parking_control", %"struct.Halide::Runtime::Internal::Synchronization::mutex_parking_control"* %2, i64 0, i32 0, i32 2
  %17 = getelementptr inbounds %"struct.Halide::Runtime::Internal::Synchronization::mutex_parking_control", %"struct.Halide::Runtime::Internal::Synchronization::mutex_parking_control"* %2, i64 0, i32 0, i32 3
  store void (i8*, %"struct.Halide::Runtime::Internal::Synchronization::validate_action"*, i1, i1)* @_ZN6Halide7Runtime8Internal15Synchronization32parking_control_requeue_callbackEPvRKNS2_15validate_actionEbb, void (i8*, %"struct.Halide::Runtime::Internal::Synchronization::validate_action"*, i1, i1)** %17, align 8, !tbaa !43
  %18 = getelementptr inbounds %"struct.Halide::Runtime::Internal::Synchronization::mutex_parking_control", %"struct.Halide::Runtime::Internal::Synchronization::mutex_parking_control"* %2, i64 0, i32 1
  store i64* %6, i64** %18, align 8, !tbaa !44
  store i1 (i8*, %"struct.Halide::Runtime::Internal::Synchronization::validate_action"*)* @_ZN6Halide7Runtime8Internal15Synchronization30mutex_parking_control_validateEPvRNS2_15validate_actionE, i1 (i8*, %"struct.Halide::Runtime::Internal::Synchronization::validate_action"*)** %14, align 8, !tbaa !46
  store i64 (i8*, i32, i1)* @_ZN6Halide7Runtime8Internal15Synchronization28mutex_parking_control_unparkEPvib, i64 (i8*, i32, i1)** %16, align 8, !tbaa !47
  %19 = ptrtoint %"class.Halide::Runtime::Internal::Synchronization::word_lock"* %5 to i64
  %20 = getelementptr inbounds %"struct.Halide::Runtime::Internal::Synchronization::mutex_parking_control", %"struct.Halide::Runtime::Internal::Synchronization::mutex_parking_control"* %2, i64 0, i32 0
  %21 = call i64 @_ZN6Halide7Runtime8Internal15Synchronization10unpark_oneEyRNS2_15parking_controlE(i64 %19, %"struct.Halide::Runtime::Internal::Synchronization::parking_control"* nonnull align 8 dereferenceable(32) %20) #12
  call void @llvm.lifetime.end.p0i8(i64 40, i8* nonnull %13) #10
  br label %22

22:                                               ; preds = %12, %9, %1
  ret void
}

; Function Attrs: nounwind willreturn mustprogress
define linkonce i64 @_ZN6Halide7Runtime8Internal15Synchronization27wait_parking_control_unparkEPvib(i8* %0, i32 %1, i1 zeroext %2) #2 {
  br i1 %2, label %8, label %4

4:                                                ; preds = %3
  %5 = getelementptr inbounds i8, i8* %0, i64 32
  %6 = bitcast i8* %5 to i64**
  %7 = load i64*, i64** %6, align 8, !tbaa !105
  store atomic i64 0, i64* %7 monotonic, align 8
  br label %8

8:                                                ; preds = %4, %3
  ret i64 0
}

; Function Attrs: nounwind
define linkonce i64 @_ZN6Halide7Runtime8Internal15Synchronization4parkEyRNS2_15parking_controlE(i64 %0, %"struct.Halide::Runtime::Internal::Synchronization::parking_control"* nonnull align 8 dereferenceable(32) %1) local_unnamed_addr #4 {
  %3 = alloca %"struct.Halide::Runtime::Internal::Synchronization::queue_data", align 8
  %4 = alloca %"struct.Halide::Runtime::Internal::Synchronization::validate_action", align 8
  %5 = bitcast %"struct.Halide::Runtime::Internal::Synchronization::queue_data"* %3 to i8*
  call void @llvm.lifetime.start.p0i8(i64 160, i8* nonnull %5) #10
  %6 = getelementptr inbounds %"struct.Halide::Runtime::Internal::Synchronization::queue_data", %"struct.Halide::Runtime::Internal::Synchronization::queue_data"* %3, i64 0, i32 0, i32 2
  store i8 0, i8* %6, align 8, !tbaa !93
  %7 = getelementptr inbounds %"struct.Halide::Runtime::Internal::Synchronization::queue_data", %"struct.Halide::Runtime::Internal::Synchronization::queue_data"* %3, i64 0, i32 0, i32 0
  %8 = call i32 @pthread_mutex_init(%struct.pthread_mutex_t* nonnull %7, i8* null) #12
  %9 = getelementptr inbounds %"struct.Halide::Runtime::Internal::Synchronization::queue_data", %"struct.Halide::Runtime::Internal::Synchronization::queue_data"* %3, i64 0, i32 0, i32 1
  %10 = call i32 @pthread_cond_init(%struct.pthread_mutex_t* nonnull %9, i8* null) #12
  %11 = getelementptr inbounds %"struct.Halide::Runtime::Internal::Synchronization::queue_data", %"struct.Halide::Runtime::Internal::Synchronization::queue_data"* %3, i64 0, i32 1
  store i64 0, i64* %11, align 8, !tbaa !110
  %12 = getelementptr inbounds %"struct.Halide::Runtime::Internal::Synchronization::queue_data", %"struct.Halide::Runtime::Internal::Synchronization::queue_data"* %3, i64 0, i32 2
  store %"struct.Halide::Runtime::Internal::Synchronization::queue_data"* null, %"struct.Halide::Runtime::Internal::Synchronization::queue_data"** %12, align 8, !tbaa !82
  %13 = getelementptr inbounds %"struct.Halide::Runtime::Internal::Synchronization::queue_data", %"struct.Halide::Runtime::Internal::Synchronization::queue_data"* %3, i64 0, i32 3
  store i64 0, i64* %13, align 8, !tbaa !92
  %14 = call nonnull align 8 dereferenceable(24) %"struct.Halide::Runtime::Internal::Synchronization::hash_bucket"* @_ZN6Halide7Runtime8Internal15Synchronization11lock_bucketEy(i64 %0) #13
  %15 = getelementptr inbounds %"struct.Halide::Runtime::Internal::Synchronization::validate_action", %"struct.Halide::Runtime::Internal::Synchronization::validate_action"* %4, i64 0, i32 0
  call void @llvm.lifetime.start.p0i8(i64 16, i8* nonnull %15) #10
  store i8 0, i8* %15, align 8, !tbaa !111
  %16 = getelementptr inbounds %"struct.Halide::Runtime::Internal::Synchronization::validate_action", %"struct.Halide::Runtime::Internal::Synchronization::validate_action"* %4, i64 0, i32 2
  store i64 0, i64* %16, align 8, !tbaa !108
  %17 = getelementptr inbounds %"struct.Halide::Runtime::Internal::Synchronization::parking_control", %"struct.Halide::Runtime::Internal::Synchronization::parking_control"* %1, i64 0, i32 0
  %18 = load i1 (i8*, %"struct.Halide::Runtime::Internal::Synchronization::validate_action"*)*, i1 (i8*, %"struct.Halide::Runtime::Internal::Synchronization::validate_action"*)** %17, align 8, !tbaa !46
  %19 = bitcast %"struct.Halide::Runtime::Internal::Synchronization::parking_control"* %1 to i8*
  %20 = call zeroext i1 %18(i8* nonnull %19, %"struct.Halide::Runtime::Internal::Synchronization::validate_action"* nonnull align 8 dereferenceable(16) %4) #12
  br i1 %20, label %30, label %21

21:                                               ; preds = %2
  %22 = getelementptr inbounds %"struct.Halide::Runtime::Internal::Synchronization::hash_bucket", %"struct.Halide::Runtime::Internal::Synchronization::hash_bucket"* %14, i64 0, i32 0, i32 0
  %23 = atomicrmw and i64* %22, i64 -2 release
  %24 = and i64 %23, 2
  %25 = icmp ne i64 %24, 0
  %26 = icmp ult i64 %23, 4
  %27 = or i1 %26, %25
  br i1 %27, label %56, label %28

28:                                               ; preds = %21
  %29 = getelementptr inbounds %"struct.Halide::Runtime::Internal::Synchronization::hash_bucket", %"struct.Halide::Runtime::Internal::Synchronization::hash_bucket"* %14, i64 0, i32 0
  call void @_ZN6Halide7Runtime8Internal15Synchronization9word_lock11unlock_fullEv(%"class.Halide::Runtime::Internal::Synchronization::word_lock"* nonnull dereferenceable(8) %29) #12
  br label %56

30:                                               ; preds = %2
  store %"struct.Halide::Runtime::Internal::Synchronization::queue_data"* null, %"struct.Halide::Runtime::Internal::Synchronization::queue_data"** %12, align 8, !tbaa !82
  store i64 %0, i64* %11, align 8, !tbaa !110
  store i8 1, i8* %6, align 8, !tbaa !93
  %31 = getelementptr inbounds %"struct.Halide::Runtime::Internal::Synchronization::hash_bucket", %"struct.Halide::Runtime::Internal::Synchronization::hash_bucket"* %14, i64 0, i32 1
  %32 = load %"struct.Halide::Runtime::Internal::Synchronization::queue_data"*, %"struct.Halide::Runtime::Internal::Synchronization::queue_data"** %31, align 8, !tbaa !112
  %33 = icmp eq %"struct.Halide::Runtime::Internal::Synchronization::queue_data"* %32, null
  %34 = getelementptr inbounds %"struct.Halide::Runtime::Internal::Synchronization::hash_bucket", %"struct.Halide::Runtime::Internal::Synchronization::hash_bucket"* %14, i64 0, i32 2
  %35 = load %"struct.Halide::Runtime::Internal::Synchronization::queue_data"*, %"struct.Halide::Runtime::Internal::Synchronization::queue_data"** %34, align 8
  %36 = getelementptr inbounds %"struct.Halide::Runtime::Internal::Synchronization::queue_data", %"struct.Halide::Runtime::Internal::Synchronization::queue_data"* %35, i64 0, i32 2
  %37 = select i1 %33, %"struct.Halide::Runtime::Internal::Synchronization::queue_data"** %31, %"struct.Halide::Runtime::Internal::Synchronization::queue_data"** %36
  store %"struct.Halide::Runtime::Internal::Synchronization::queue_data"* %3, %"struct.Halide::Runtime::Internal::Synchronization::queue_data"** %37, align 8, !tbaa !10
  store %"struct.Halide::Runtime::Internal::Synchronization::queue_data"* %3, %"struct.Halide::Runtime::Internal::Synchronization::queue_data"** %34, align 8, !tbaa !88
  %38 = getelementptr inbounds %"struct.Halide::Runtime::Internal::Synchronization::hash_bucket", %"struct.Halide::Runtime::Internal::Synchronization::hash_bucket"* %14, i64 0, i32 0, i32 0
  %39 = atomicrmw and i64* %38, i64 -2 release
  %40 = and i64 %39, 2
  %41 = icmp ne i64 %40, 0
  %42 = icmp ult i64 %39, 4
  %43 = or i1 %42, %41
  br i1 %43, label %46, label %44

44:                                               ; preds = %30
  %45 = getelementptr inbounds %"struct.Halide::Runtime::Internal::Synchronization::hash_bucket", %"struct.Halide::Runtime::Internal::Synchronization::hash_bucket"* %14, i64 0, i32 0
  call void @_ZN6Halide7Runtime8Internal15Synchronization9word_lock11unlock_fullEv(%"class.Halide::Runtime::Internal::Synchronization::word_lock"* nonnull dereferenceable(8) %45) #12
  br label %46

46:                                               ; preds = %44, %30
  %47 = getelementptr inbounds %"struct.Halide::Runtime::Internal::Synchronization::parking_control", %"struct.Halide::Runtime::Internal::Synchronization::parking_control"* %1, i64 0, i32 1
  %48 = load void (i8*)*, void (i8*)** %47, align 8, !tbaa !41
  call void %48(i8* nonnull %19) #12
  %49 = call i32 @pthread_mutex_lock(%struct.pthread_mutex_t* nonnull %7) #12
  %50 = load i8, i8* %6, align 8, !tbaa !93, !range !17
  %51 = icmp eq i8 %50, 0
  br i1 %51, label %.loopexit, label %.preheader

.preheader:                                       ; preds = %.preheader, %46
  %52 = call i32 @pthread_cond_wait(%struct.pthread_mutex_t* nonnull %9, %struct.pthread_mutex_t* nonnull %7) #12
  %53 = load i8, i8* %6, align 8, !tbaa !93, !range !17
  %54 = icmp eq i8 %53, 0
  br i1 %54, label %.loopexit, label %.preheader, !llvm.loop !101

.loopexit:                                        ; preds = %.preheader, %46
  %55 = call i32 @pthread_mutex_unlock(%struct.pthread_mutex_t* nonnull %7) #12
  br label %56

56:                                               ; preds = %.loopexit, %28, %21
  %57 = phi i64* [ %13, %.loopexit ], [ %16, %21 ], [ %16, %28 ]
  %58 = load i64, i64* %57, align 8, !tbaa !113
  call void @llvm.lifetime.end.p0i8(i64 16, i8* nonnull %15) #10
  %59 = call i32 @pthread_cond_destroy(%struct.pthread_mutex_t* nonnull %9) #12
  %60 = call i32 @pthread_mutex_destroy(%struct.pthread_mutex_t* nonnull %7) #12
  call void @llvm.lifetime.end.p0i8(i64 160, i8* nonnull %5) #10
  ret i64 %58
}

; Function Attrs: nounwind willreturn mustprogress
define linkonce i64 @_ZN6Halide7Runtime8Internal15Synchronization22parking_control_unparkEPvib(i8* %0, i32 %1, i1 zeroext %2) #2 {
  ret i64 0
}

; Function Attrs: nounwind
define linkonce zeroext i1 @_ZN6Halide7Runtime8Internal15Synchronization34broadcast_parking_control_validateEPvRNS2_15validate_actionE(i8* %0, %"struct.Halide::Runtime::Internal::Synchronization::validate_action"* nonnull align 8 dereferenceable(16) %1) #4 {
  %3 = getelementptr inbounds i8, i8* %0, i64 32
  %4 = bitcast i8* %3 to i64**
  %5 = load i64*, i64** %4, align 8, !tbaa !102
  %6 = load atomic i64, i64* %5 monotonic, align 8
  %7 = getelementptr inbounds i8, i8* %0, i64 40
  %8 = bitcast i8* %7 to %"class.Halide::Runtime::Internal::Synchronization::word_lock"**
  %9 = load %"class.Halide::Runtime::Internal::Synchronization::word_lock"*, %"class.Halide::Runtime::Internal::Synchronization::word_lock"** %8, align 8, !tbaa !104
  %10 = ptrtoint %"class.Halide::Runtime::Internal::Synchronization::word_lock"* %9 to i64
  %11 = icmp eq i64 %6, %10
  br i1 %11, label %12, label %28

12:                                               ; preds = %2
  store atomic i64 0, i64* %5 monotonic, align 8
  %13 = load %"class.Halide::Runtime::Internal::Synchronization::word_lock"*, %"class.Halide::Runtime::Internal::Synchronization::word_lock"** %8, align 8, !tbaa !104
  %14 = getelementptr inbounds %"class.Halide::Runtime::Internal::Synchronization::word_lock", %"class.Halide::Runtime::Internal::Synchronization::word_lock"* %13, i64 0, i32 0
  %15 = load atomic i64, i64* %14 monotonic, align 8
  %16 = and i64 %15, 1
  %17 = icmp eq i64 %16, 0
  br i1 %17, label %.loopexit, label %.preheader

.preheader:                                       ; preds = %22, %12
  %18 = phi i64 [ %23, %22 ], [ %15, %12 ]
  %19 = or i64 %18, 2
  %20 = cmpxchg weak i64* %14, i64 %18, i64 %19 monotonic monotonic
  %21 = extractvalue { i64, i1 } %20, 1
  br i1 %21, label %.loopexit, label %22

22:                                               ; preds = %.preheader
  %23 = extractvalue { i64, i1 } %20, 0
  %24 = and i64 %23, 1
  %25 = icmp eq i64 %24, 0
  br i1 %25, label %.loopexit, label %.preheader

.loopexit:                                        ; preds = %22, %.preheader, %12
  %26 = phi i8 [ 1, %12 ], [ 1, %22 ], [ 0, %.preheader ]
  %27 = getelementptr inbounds %"struct.Halide::Runtime::Internal::Synchronization::validate_action", %"struct.Halide::Runtime::Internal::Synchronization::validate_action"* %1, i64 0, i32 0
  store i8 %26, i8* %27, align 8, !tbaa !111
  br label %28

28:                                               ; preds = %.loopexit, %2
  ret i1 %11
}

; Function Attrs: nounwind willreturn mustprogress
define linkonce void @_ZN6Halide7Runtime8Internal15Synchronization42broadcast_parking_control_requeue_callbackEPvRKNS2_15validate_actionEbb(i8* %0, %"struct.Halide::Runtime::Internal::Synchronization::validate_action"* nonnull align 8 dereferenceable(16) %1, i1 zeroext %2, i1 zeroext %3) #2 {
  %5 = getelementptr inbounds %"struct.Halide::Runtime::Internal::Synchronization::validate_action", %"struct.Halide::Runtime::Internal::Synchronization::validate_action"* %1, i64 0, i32 0
  %6 = load i8, i8* %5, align 8, !tbaa !111, !range !17
  %7 = icmp ne i8 %6, 0
  %8 = and i1 %7, %3
  br i1 %8, label %9, label %15

9:                                                ; preds = %4
  %10 = getelementptr inbounds i8, i8* %0, i64 40
  %11 = bitcast i8* %10 to %"class.Halide::Runtime::Internal::Synchronization::word_lock"**
  %12 = load %"class.Halide::Runtime::Internal::Synchronization::word_lock"*, %"class.Halide::Runtime::Internal::Synchronization::word_lock"** %11, align 8, !tbaa !104
  %13 = getelementptr inbounds %"class.Halide::Runtime::Internal::Synchronization::word_lock", %"class.Halide::Runtime::Internal::Synchronization::word_lock"* %12, i64 0, i32 0
  %14 = atomicrmw or i64* %13, i64 2 monotonic
  br label %15

15:                                               ; preds = %9, %4
  ret void
}

; Function Attrs: nounwind
define linkonce i32 @_ZN6Halide7Runtime8Internal15Synchronization14unpark_requeueEyyRNS2_15parking_controlEy(i64 %0, i64 %1, %"struct.Halide::Runtime::Internal::Synchronization::parking_control"* nonnull align 8 dereferenceable(32) %2, i64 %3) local_unnamed_addr #4 {
  %5 = alloca %"struct.Halide::Runtime::Internal::Synchronization::bucket_pair", align 8
  %6 = alloca %"struct.Halide::Runtime::Internal::Synchronization::validate_action", align 8
  %7 = bitcast %"struct.Halide::Runtime::Internal::Synchronization::bucket_pair"* %5 to i8*
  call void @llvm.lifetime.start.p0i8(i64 16, i8* nonnull %7) #10
  call void @_ZN6Halide7Runtime8Internal15Synchronization16lock_bucket_pairEyy(%"struct.Halide::Runtime::Internal::Synchronization::bucket_pair"* nonnull sret(%"struct.Halide::Runtime::Internal::Synchronization::bucket_pair") align 8 %5, i64 %0, i64 %1) #13
  %8 = getelementptr inbounds %"struct.Halide::Runtime::Internal::Synchronization::validate_action", %"struct.Halide::Runtime::Internal::Synchronization::validate_action"* %6, i64 0, i32 0
  call void @llvm.lifetime.start.p0i8(i64 16, i8* nonnull %8) #10
  store i8 0, i8* %8, align 8, !tbaa !111
  %9 = getelementptr inbounds %"struct.Halide::Runtime::Internal::Synchronization::validate_action", %"struct.Halide::Runtime::Internal::Synchronization::validate_action"* %6, i64 0, i32 2
  store i64 0, i64* %9, align 8, !tbaa !108
  %10 = getelementptr inbounds %"struct.Halide::Runtime::Internal::Synchronization::parking_control", %"struct.Halide::Runtime::Internal::Synchronization::parking_control"* %2, i64 0, i32 0
  %11 = load i1 (i8*, %"struct.Halide::Runtime::Internal::Synchronization::validate_action"*)*, i1 (i8*, %"struct.Halide::Runtime::Internal::Synchronization::validate_action"*)** %10, align 8, !tbaa !46
  %12 = bitcast %"struct.Halide::Runtime::Internal::Synchronization::parking_control"* %2 to i8*
  %13 = call zeroext i1 %11(i8* nonnull %12, %"struct.Halide::Runtime::Internal::Synchronization::validate_action"* nonnull align 8 dereferenceable(16) %6) #12
  br i1 %13, label %15, label %14

14:                                               ; preds = %4
  call void @_ZN6Halide7Runtime8Internal15Synchronization18unlock_bucket_pairERNS2_11bucket_pairE(%"struct.Halide::Runtime::Internal::Synchronization::bucket_pair"* nonnull align 8 dereferenceable(16) %5) #13
  br label %93

15:                                               ; preds = %4
  %16 = getelementptr inbounds %"struct.Halide::Runtime::Internal::Synchronization::bucket_pair", %"struct.Halide::Runtime::Internal::Synchronization::bucket_pair"* %5, i64 0, i32 0
  %17 = load %"struct.Halide::Runtime::Internal::Synchronization::hash_bucket"*, %"struct.Halide::Runtime::Internal::Synchronization::hash_bucket"** %16, align 8, !tbaa !114
  %18 = getelementptr inbounds %"struct.Halide::Runtime::Internal::Synchronization::hash_bucket", %"struct.Halide::Runtime::Internal::Synchronization::hash_bucket"* %17, i64 0, i32 1
  %19 = load %"struct.Halide::Runtime::Internal::Synchronization::queue_data"*, %"struct.Halide::Runtime::Internal::Synchronization::queue_data"** %18, align 8, !tbaa !10
  %20 = icmp eq %"struct.Halide::Runtime::Internal::Synchronization::queue_data"* %19, null
  br i1 %20, label %72, label %.preheader

.preheader:                                       ; preds = %49, %15
  %21 = phi %"struct.Halide::Runtime::Internal::Synchronization::queue_data"* [ %54, %49 ], [ null, %15 ]
  %22 = phi %"struct.Halide::Runtime::Internal::Synchronization::queue_data"* [ %53, %49 ], [ null, %15 ]
  %23 = phi %"struct.Halide::Runtime::Internal::Synchronization::queue_data"* [ %52, %49 ], [ null, %15 ]
  %24 = phi %"struct.Halide::Runtime::Internal::Synchronization::queue_data"* [ %30, %49 ], [ %19, %15 ]
  %25 = phi %"struct.Halide::Runtime::Internal::Synchronization::queue_data"* [ %51, %49 ], [ null, %15 ]
  %26 = phi %"struct.Halide::Runtime::Internal::Synchronization::queue_data"** [ %50, %49 ], [ %18, %15 ]
  %27 = getelementptr inbounds %"struct.Halide::Runtime::Internal::Synchronization::queue_data", %"struct.Halide::Runtime::Internal::Synchronization::queue_data"* %24, i64 0, i32 1
  %28 = load atomic i64, i64* %27 monotonic, align 8
  %29 = getelementptr inbounds %"struct.Halide::Runtime::Internal::Synchronization::queue_data", %"struct.Halide::Runtime::Internal::Synchronization::queue_data"* %24, i64 0, i32 2
  %30 = load %"struct.Halide::Runtime::Internal::Synchronization::queue_data"*, %"struct.Halide::Runtime::Internal::Synchronization::queue_data"** %29, align 8, !tbaa !82
  %31 = icmp eq i64 %28, %0
  br i1 %31, label %32, label %49

32:                                               ; preds = %.preheader
  store %"struct.Halide::Runtime::Internal::Synchronization::queue_data"* %30, %"struct.Halide::Runtime::Internal::Synchronization::queue_data"** %26, align 8, !tbaa !10
  %33 = load %"struct.Halide::Runtime::Internal::Synchronization::hash_bucket"*, %"struct.Halide::Runtime::Internal::Synchronization::hash_bucket"** %16, align 8, !tbaa !114
  %34 = getelementptr inbounds %"struct.Halide::Runtime::Internal::Synchronization::hash_bucket", %"struct.Halide::Runtime::Internal::Synchronization::hash_bucket"* %33, i64 0, i32 2
  %35 = load %"struct.Halide::Runtime::Internal::Synchronization::queue_data"*, %"struct.Halide::Runtime::Internal::Synchronization::queue_data"** %34, align 8, !tbaa !88
  %36 = icmp eq %"struct.Halide::Runtime::Internal::Synchronization::queue_data"* %35, %24
  br i1 %36, label %37, label %38

37:                                               ; preds = %32
  store %"struct.Halide::Runtime::Internal::Synchronization::queue_data"* %25, %"struct.Halide::Runtime::Internal::Synchronization::queue_data"** %34, align 8, !tbaa !88
  br label %38

38:                                               ; preds = %37, %32
  %39 = load i8, i8* %8, align 8, !tbaa !111, !range !17
  %40 = icmp ne i8 %39, 0
  %41 = icmp eq %"struct.Halide::Runtime::Internal::Synchronization::queue_data"* %21, null
  %42 = and i1 %41, %40
  br i1 %42, label %49, label %43

43:                                               ; preds = %38
  %44 = icmp eq %"struct.Halide::Runtime::Internal::Synchronization::queue_data"* %23, null
  br i1 %44, label %47, label %45

45:                                               ; preds = %43
  %46 = getelementptr inbounds %"struct.Halide::Runtime::Internal::Synchronization::queue_data", %"struct.Halide::Runtime::Internal::Synchronization::queue_data"* %22, i64 0, i32 2
  store %"struct.Halide::Runtime::Internal::Synchronization::queue_data"* %24, %"struct.Halide::Runtime::Internal::Synchronization::queue_data"** %46, align 8, !tbaa !82
  br label %47

47:                                               ; preds = %45, %43
  %48 = phi %"struct.Halide::Runtime::Internal::Synchronization::queue_data"* [ %23, %45 ], [ %24, %43 ]
  store atomic i64 %1, i64* %27 monotonic, align 8
  br label %49

49:                                               ; preds = %47, %38, %.preheader
  %50 = phi %"struct.Halide::Runtime::Internal::Synchronization::queue_data"** [ %26, %38 ], [ %26, %47 ], [ %29, %.preheader ]
  %51 = phi %"struct.Halide::Runtime::Internal::Synchronization::queue_data"* [ %25, %38 ], [ %25, %47 ], [ %24, %.preheader ]
  %52 = phi %"struct.Halide::Runtime::Internal::Synchronization::queue_data"* [ %23, %38 ], [ %48, %47 ], [ %23, %.preheader ]
  %53 = phi %"struct.Halide::Runtime::Internal::Synchronization::queue_data"* [ %22, %38 ], [ %24, %47 ], [ %22, %.preheader ]
  %54 = phi %"struct.Halide::Runtime::Internal::Synchronization::queue_data"* [ %24, %38 ], [ %21, %47 ], [ %21, %.preheader ]
  %55 = icmp eq %"struct.Halide::Runtime::Internal::Synchronization::queue_data"* %30, null
  br i1 %55, label %56, label %.preheader, !llvm.loop !116

56:                                               ; preds = %49
  %57 = icmp eq %"struct.Halide::Runtime::Internal::Synchronization::queue_data"* %52, null
  br i1 %57, label %72, label %58

58:                                               ; preds = %56
  %59 = getelementptr inbounds %"struct.Halide::Runtime::Internal::Synchronization::queue_data", %"struct.Halide::Runtime::Internal::Synchronization::queue_data"* %53, i64 0, i32 2
  store %"struct.Halide::Runtime::Internal::Synchronization::queue_data"* null, %"struct.Halide::Runtime::Internal::Synchronization::queue_data"** %59, align 8, !tbaa !82
  %60 = getelementptr inbounds %"struct.Halide::Runtime::Internal::Synchronization::bucket_pair", %"struct.Halide::Runtime::Internal::Synchronization::bucket_pair"* %5, i64 0, i32 1
  %61 = load %"struct.Halide::Runtime::Internal::Synchronization::hash_bucket"*, %"struct.Halide::Runtime::Internal::Synchronization::hash_bucket"** %60, align 8, !tbaa !117
  %62 = getelementptr inbounds %"struct.Halide::Runtime::Internal::Synchronization::hash_bucket", %"struct.Halide::Runtime::Internal::Synchronization::hash_bucket"* %61, i64 0, i32 1
  %63 = load %"struct.Halide::Runtime::Internal::Synchronization::queue_data"*, %"struct.Halide::Runtime::Internal::Synchronization::queue_data"** %62, align 8, !tbaa !112
  %64 = icmp eq %"struct.Halide::Runtime::Internal::Synchronization::queue_data"* %63, null
  br i1 %64, label %69, label %65

65:                                               ; preds = %58
  %66 = getelementptr inbounds %"struct.Halide::Runtime::Internal::Synchronization::hash_bucket", %"struct.Halide::Runtime::Internal::Synchronization::hash_bucket"* %61, i64 0, i32 2
  %67 = load %"struct.Halide::Runtime::Internal::Synchronization::queue_data"*, %"struct.Halide::Runtime::Internal::Synchronization::queue_data"** %66, align 8, !tbaa !88
  %68 = getelementptr inbounds %"struct.Halide::Runtime::Internal::Synchronization::queue_data", %"struct.Halide::Runtime::Internal::Synchronization::queue_data"* %67, i64 0, i32 2
  br label %69

69:                                               ; preds = %65, %58
  %70 = phi %"struct.Halide::Runtime::Internal::Synchronization::queue_data"** [ %68, %65 ], [ %62, %58 ]
  store %"struct.Halide::Runtime::Internal::Synchronization::queue_data"* %52, %"struct.Halide::Runtime::Internal::Synchronization::queue_data"** %70, align 8, !tbaa !10
  %71 = getelementptr inbounds %"struct.Halide::Runtime::Internal::Synchronization::hash_bucket", %"struct.Halide::Runtime::Internal::Synchronization::hash_bucket"* %61, i64 0, i32 2
  store %"struct.Halide::Runtime::Internal::Synchronization::queue_data"* %53, %"struct.Halide::Runtime::Internal::Synchronization::queue_data"** %71, align 8, !tbaa !88
  br label %72

72:                                               ; preds = %69, %56, %15
  %73 = phi i1 [ true, %69 ], [ false, %56 ], [ false, %15 ]
  %74 = phi %"struct.Halide::Runtime::Internal::Synchronization::queue_data"* [ %54, %69 ], [ %54, %56 ], [ null, %15 ]
  %75 = getelementptr inbounds %"struct.Halide::Runtime::Internal::Synchronization::parking_control", %"struct.Halide::Runtime::Internal::Synchronization::parking_control"* %2, i64 0, i32 3
  %76 = load void (i8*, %"struct.Halide::Runtime::Internal::Synchronization::validate_action"*, i1, i1)*, void (i8*, %"struct.Halide::Runtime::Internal::Synchronization::validate_action"*, i1, i1)** %75, align 8, !tbaa !43
  %77 = icmp ne %"struct.Halide::Runtime::Internal::Synchronization::queue_data"* %74, null
  call void %76(i8* nonnull %12, %"struct.Halide::Runtime::Internal::Synchronization::validate_action"* nonnull align 8 dereferenceable(16) %6, i1 zeroext %77, i1 zeroext %73) #12
  br i1 %77, label %78, label %86

78:                                               ; preds = %72
  %79 = getelementptr inbounds %"struct.Halide::Runtime::Internal::Synchronization::queue_data", %"struct.Halide::Runtime::Internal::Synchronization::queue_data"* %74, i64 0, i32 3
  store i64 %3, i64* %79, align 8, !tbaa !92
  %80 = getelementptr inbounds %"struct.Halide::Runtime::Internal::Synchronization::queue_data", %"struct.Halide::Runtime::Internal::Synchronization::queue_data"* %74, i64 0, i32 0, i32 0
  %81 = call i32 @pthread_mutex_lock(%struct.pthread_mutex_t* nonnull %80) #12
  call void @_ZN6Halide7Runtime8Internal15Synchronization18unlock_bucket_pairERNS2_11bucket_pairE(%"struct.Halide::Runtime::Internal::Synchronization::bucket_pair"* nonnull align 8 dereferenceable(16) %5) #13
  %82 = getelementptr inbounds %"struct.Halide::Runtime::Internal::Synchronization::queue_data", %"struct.Halide::Runtime::Internal::Synchronization::queue_data"* %74, i64 0, i32 0, i32 2
  store i8 0, i8* %82, align 8, !tbaa !93
  %83 = getelementptr inbounds %"struct.Halide::Runtime::Internal::Synchronization::queue_data", %"struct.Halide::Runtime::Internal::Synchronization::queue_data"* %74, i64 0, i32 0, i32 1
  %84 = call i32 @pthread_cond_signal(%struct.pthread_mutex_t* nonnull %83) #12
  %85 = call i32 @pthread_mutex_unlock(%struct.pthread_mutex_t* nonnull %80) #12
  br label %87

86:                                               ; preds = %72
  call void @_ZN6Halide7Runtime8Internal15Synchronization18unlock_bucket_pairERNS2_11bucket_pairE(%"struct.Halide::Runtime::Internal::Synchronization::bucket_pair"* nonnull align 8 dereferenceable(16) %5) #13
  br label %87

87:                                               ; preds = %86, %78
  %88 = load i8, i8* %8, align 8
  %89 = and i8 %88, 1
  %90 = icmp ne i8 %89, 0
  %91 = and i1 %77, %90
  %92 = zext i1 %91 to i32
  br label %93

93:                                               ; preds = %87, %14
  %94 = phi i32 [ %92, %87 ], [ 0, %14 ]
  call void @llvm.lifetime.end.p0i8(i64 16, i8* nonnull %8) #10
  call void @llvm.lifetime.end.p0i8(i64 16, i8* nonnull %7) #10
  ret i32 %94
}

; Function Attrs: nounwind
define linkonce void @_ZN6Halide7Runtime8Internal15Synchronization16lock_bucket_pairEyy(%"struct.Halide::Runtime::Internal::Synchronization::bucket_pair"* noalias sret(%"struct.Halide::Runtime::Internal::Synchronization::bucket_pair") align 8 %0, i64 %1, i64 %2) local_unnamed_addr #4 {
  %4 = mul i64 %1, -7046029254386353131
  %5 = lshr i64 %4, 54
  %6 = mul i64 %2, -7046029254386353131
  %7 = lshr i64 %6, 54
  %8 = icmp eq i64 %5, %7
  br i1 %8, label %9, label %16

9:                                                ; preds = %3
  %10 = getelementptr inbounds [1024 x %"struct.Halide::Runtime::Internal::Synchronization::hash_bucket"], [1024 x %"struct.Halide::Runtime::Internal::Synchronization::hash_bucket"]* bitcast ([24576 x i8]* @_ZN6Halide7Runtime8Internal15Synchronization13table_storageE to [1024 x %"struct.Halide::Runtime::Internal::Synchronization::hash_bucket"]*), i64 0, i64 %5
  %11 = getelementptr inbounds %"struct.Halide::Runtime::Internal::Synchronization::hash_bucket", %"struct.Halide::Runtime::Internal::Synchronization::hash_bucket"* %10, i64 0, i32 0, i32 0
  %12 = cmpxchg weak i64* %11, i64 0, i64 1 acquire monotonic
  %13 = extractvalue { i64, i1 } %12, 1
  br i1 %13, label %46, label %14

14:                                               ; preds = %9
  %15 = getelementptr inbounds %"struct.Halide::Runtime::Internal::Synchronization::hash_bucket", %"struct.Halide::Runtime::Internal::Synchronization::hash_bucket"* %10, i64 0, i32 0
  tail call void @_ZN6Halide7Runtime8Internal15Synchronization9word_lock9lock_fullEv(%"class.Halide::Runtime::Internal::Synchronization::word_lock"* nonnull dereferenceable(8) %15) #12
  br label %46

16:                                               ; preds = %3
  %17 = icmp ult i64 %5, %7
  br i1 %17, label %18, label %32

18:                                               ; preds = %16
  %19 = getelementptr inbounds [1024 x %"struct.Halide::Runtime::Internal::Synchronization::hash_bucket"], [1024 x %"struct.Halide::Runtime::Internal::Synchronization::hash_bucket"]* bitcast ([24576 x i8]* @_ZN6Halide7Runtime8Internal15Synchronization13table_storageE to [1024 x %"struct.Halide::Runtime::Internal::Synchronization::hash_bucket"]*), i64 0, i64 %5
  %20 = getelementptr inbounds [1024 x %"struct.Halide::Runtime::Internal::Synchronization::hash_bucket"], [1024 x %"struct.Halide::Runtime::Internal::Synchronization::hash_bucket"]* bitcast ([24576 x i8]* @_ZN6Halide7Runtime8Internal15Synchronization13table_storageE to [1024 x %"struct.Halide::Runtime::Internal::Synchronization::hash_bucket"]*), i64 0, i64 %7
  %21 = getelementptr inbounds %"struct.Halide::Runtime::Internal::Synchronization::hash_bucket", %"struct.Halide::Runtime::Internal::Synchronization::hash_bucket"* %19, i64 0, i32 0, i32 0
  %22 = cmpxchg weak i64* %21, i64 0, i64 1 acquire monotonic
  %23 = extractvalue { i64, i1 } %22, 1
  br i1 %23, label %26, label %24

24:                                               ; preds = %18
  %25 = getelementptr inbounds %"struct.Halide::Runtime::Internal::Synchronization::hash_bucket", %"struct.Halide::Runtime::Internal::Synchronization::hash_bucket"* %19, i64 0, i32 0
  tail call void @_ZN6Halide7Runtime8Internal15Synchronization9word_lock9lock_fullEv(%"class.Halide::Runtime::Internal::Synchronization::word_lock"* nonnull dereferenceable(8) %25) #12
  br label %26

26:                                               ; preds = %24, %18
  %27 = getelementptr inbounds %"struct.Halide::Runtime::Internal::Synchronization::hash_bucket", %"struct.Halide::Runtime::Internal::Synchronization::hash_bucket"* %20, i64 0, i32 0, i32 0
  %28 = cmpxchg weak i64* %27, i64 0, i64 1 acquire monotonic
  %29 = extractvalue { i64, i1 } %28, 1
  br i1 %29, label %46, label %30

30:                                               ; preds = %26
  %31 = getelementptr inbounds %"struct.Halide::Runtime::Internal::Synchronization::hash_bucket", %"struct.Halide::Runtime::Internal::Synchronization::hash_bucket"* %20, i64 0, i32 0
  tail call void @_ZN6Halide7Runtime8Internal15Synchronization9word_lock9lock_fullEv(%"class.Halide::Runtime::Internal::Synchronization::word_lock"* nonnull dereferenceable(8) %31) #12
  br label %46

32:                                               ; preds = %16
  %33 = getelementptr inbounds [1024 x %"struct.Halide::Runtime::Internal::Synchronization::hash_bucket"], [1024 x %"struct.Halide::Runtime::Internal::Synchronization::hash_bucket"]* bitcast ([24576 x i8]* @_ZN6Halide7Runtime8Internal15Synchronization13table_storageE to [1024 x %"struct.Halide::Runtime::Internal::Synchronization::hash_bucket"]*), i64 0, i64 %7
  %34 = getelementptr inbounds [1024 x %"struct.Halide::Runtime::Internal::Synchronization::hash_bucket"], [1024 x %"struct.Halide::Runtime::Internal::Synchronization::hash_bucket"]* bitcast ([24576 x i8]* @_ZN6Halide7Runtime8Internal15Synchronization13table_storageE to [1024 x %"struct.Halide::Runtime::Internal::Synchronization::hash_bucket"]*), i64 0, i64 %5
  %35 = getelementptr inbounds %"struct.Halide::Runtime::Internal::Synchronization::hash_bucket", %"struct.Halide::Runtime::Internal::Synchronization::hash_bucket"* %33, i64 0, i32 0, i32 0
  %36 = cmpxchg weak i64* %35, i64 0, i64 1 acquire monotonic
  %37 = extractvalue { i64, i1 } %36, 1
  br i1 %37, label %40, label %38

38:                                               ; preds = %32
  %39 = getelementptr inbounds %"struct.Halide::Runtime::Internal::Synchronization::hash_bucket", %"struct.Halide::Runtime::Internal::Synchronization::hash_bucket"* %33, i64 0, i32 0
  tail call void @_ZN6Halide7Runtime8Internal15Synchronization9word_lock9lock_fullEv(%"class.Halide::Runtime::Internal::Synchronization::word_lock"* nonnull dereferenceable(8) %39) #12
  br label %40

40:                                               ; preds = %38, %32
  %41 = getelementptr inbounds %"struct.Halide::Runtime::Internal::Synchronization::hash_bucket", %"struct.Halide::Runtime::Internal::Synchronization::hash_bucket"* %34, i64 0, i32 0, i32 0
  %42 = cmpxchg weak i64* %41, i64 0, i64 1 acquire monotonic
  %43 = extractvalue { i64, i1 } %42, 1
  br i1 %43, label %46, label %44

44:                                               ; preds = %40
  %45 = getelementptr inbounds %"struct.Halide::Runtime::Internal::Synchronization::hash_bucket", %"struct.Halide::Runtime::Internal::Synchronization::hash_bucket"* %34, i64 0, i32 0
  tail call void @_ZN6Halide7Runtime8Internal15Synchronization9word_lock9lock_fullEv(%"class.Halide::Runtime::Internal::Synchronization::word_lock"* nonnull dereferenceable(8) %45) #12
  br label %46

46:                                               ; preds = %44, %40, %30, %26, %14, %9
  %47 = phi %"struct.Halide::Runtime::Internal::Synchronization::hash_bucket"* [ %10, %9 ], [ %10, %14 ], [ %19, %26 ], [ %19, %30 ], [ %34, %40 ], [ %34, %44 ]
  %48 = phi %"struct.Halide::Runtime::Internal::Synchronization::hash_bucket"* [ %10, %9 ], [ %10, %14 ], [ %20, %26 ], [ %20, %30 ], [ %33, %40 ], [ %33, %44 ]
  %49 = getelementptr inbounds %"struct.Halide::Runtime::Internal::Synchronization::bucket_pair", %"struct.Halide::Runtime::Internal::Synchronization::bucket_pair"* %0, i64 0, i32 0
  store %"struct.Halide::Runtime::Internal::Synchronization::hash_bucket"* %47, %"struct.Halide::Runtime::Internal::Synchronization::hash_bucket"** %49, align 8, !tbaa !10
  %50 = getelementptr inbounds %"struct.Halide::Runtime::Internal::Synchronization::bucket_pair", %"struct.Halide::Runtime::Internal::Synchronization::bucket_pair"* %0, i64 0, i32 1
  store %"struct.Halide::Runtime::Internal::Synchronization::hash_bucket"* %48, %"struct.Halide::Runtime::Internal::Synchronization::hash_bucket"** %50, align 8, !tbaa !10
  ret void
}

; Function Attrs: nounwind mustprogress
define linkonce void @_ZN6Halide7Runtime8Internal15Synchronization18unlock_bucket_pairERNS2_11bucket_pairE(%"struct.Halide::Runtime::Internal::Synchronization::bucket_pair"* nonnull align 8 dereferenceable(16) %0) local_unnamed_addr #0 {
  %2 = getelementptr inbounds %"struct.Halide::Runtime::Internal::Synchronization::bucket_pair", %"struct.Halide::Runtime::Internal::Synchronization::bucket_pair"* %0, i64 0, i32 0
  %3 = load %"struct.Halide::Runtime::Internal::Synchronization::hash_bucket"*, %"struct.Halide::Runtime::Internal::Synchronization::hash_bucket"** %2, align 8, !tbaa !114
  %4 = getelementptr inbounds %"struct.Halide::Runtime::Internal::Synchronization::bucket_pair", %"struct.Halide::Runtime::Internal::Synchronization::bucket_pair"* %0, i64 0, i32 1
  %5 = load %"struct.Halide::Runtime::Internal::Synchronization::hash_bucket"*, %"struct.Halide::Runtime::Internal::Synchronization::hash_bucket"** %4, align 8, !tbaa !117
  %6 = icmp eq %"struct.Halide::Runtime::Internal::Synchronization::hash_bucket"* %3, %5
  br i1 %6, label %7, label %16

7:                                                ; preds = %1
  %8 = getelementptr inbounds %"struct.Halide::Runtime::Internal::Synchronization::hash_bucket", %"struct.Halide::Runtime::Internal::Synchronization::hash_bucket"* %3, i64 0, i32 0, i32 0
  %9 = atomicrmw and i64* %8, i64 -2 release
  %10 = and i64 %9, 2
  %11 = icmp ne i64 %10, 0
  %12 = icmp ult i64 %9, 4
  %13 = or i1 %12, %11
  br i1 %13, label %56, label %14

14:                                               ; preds = %7
  %15 = getelementptr inbounds %"struct.Halide::Runtime::Internal::Synchronization::hash_bucket", %"struct.Halide::Runtime::Internal::Synchronization::hash_bucket"* %3, i64 0, i32 0
  tail call void @_ZN6Halide7Runtime8Internal15Synchronization9word_lock11unlock_fullEv(%"class.Halide::Runtime::Internal::Synchronization::word_lock"* nonnull dereferenceable(8) %15) #12
  br label %56

16:                                               ; preds = %1
  %17 = icmp ugt %"struct.Halide::Runtime::Internal::Synchronization::hash_bucket"* %3, %5
  br i1 %17, label %18, label %37

18:                                               ; preds = %16
  %19 = getelementptr inbounds %"struct.Halide::Runtime::Internal::Synchronization::hash_bucket", %"struct.Halide::Runtime::Internal::Synchronization::hash_bucket"* %3, i64 0, i32 0, i32 0
  %20 = atomicrmw and i64* %19, i64 -2 release
  %21 = and i64 %20, 2
  %22 = icmp ne i64 %21, 0
  %23 = icmp ult i64 %20, 4
  %24 = or i1 %23, %22
  br i1 %24, label %27, label %25

25:                                               ; preds = %18
  %26 = getelementptr inbounds %"struct.Halide::Runtime::Internal::Synchronization::hash_bucket", %"struct.Halide::Runtime::Internal::Synchronization::hash_bucket"* %3, i64 0, i32 0
  tail call void @_ZN6Halide7Runtime8Internal15Synchronization9word_lock11unlock_fullEv(%"class.Halide::Runtime::Internal::Synchronization::word_lock"* nonnull dereferenceable(8) %26) #12
  br label %27

27:                                               ; preds = %25, %18
  %28 = load %"struct.Halide::Runtime::Internal::Synchronization::hash_bucket"*, %"struct.Halide::Runtime::Internal::Synchronization::hash_bucket"** %4, align 8, !tbaa !117
  %29 = getelementptr inbounds %"struct.Halide::Runtime::Internal::Synchronization::hash_bucket", %"struct.Halide::Runtime::Internal::Synchronization::hash_bucket"* %28, i64 0, i32 0, i32 0
  %30 = atomicrmw and i64* %29, i64 -2 release
  %31 = and i64 %30, 2
  %32 = icmp ne i64 %31, 0
  %33 = icmp ult i64 %30, 4
  %34 = or i1 %33, %32
  br i1 %34, label %56, label %35

35:                                               ; preds = %27
  %36 = getelementptr inbounds %"struct.Halide::Runtime::Internal::Synchronization::hash_bucket", %"struct.Halide::Runtime::Internal::Synchronization::hash_bucket"* %28, i64 0, i32 0
  tail call void @_ZN6Halide7Runtime8Internal15Synchronization9word_lock11unlock_fullEv(%"class.Halide::Runtime::Internal::Synchronization::word_lock"* nonnull dereferenceable(8) %36) #12
  br label %56

37:                                               ; preds = %16
  %38 = getelementptr inbounds %"struct.Halide::Runtime::Internal::Synchronization::hash_bucket", %"struct.Halide::Runtime::Internal::Synchronization::hash_bucket"* %5, i64 0, i32 0, i32 0
  %39 = atomicrmw and i64* %38, i64 -2 release
  %40 = and i64 %39, 2
  %41 = icmp ne i64 %40, 0
  %42 = icmp ult i64 %39, 4
  %43 = or i1 %42, %41
  br i1 %43, label %46, label %44

44:                                               ; preds = %37
  %45 = getelementptr inbounds %"struct.Halide::Runtime::Internal::Synchronization::hash_bucket", %"struct.Halide::Runtime::Internal::Synchronization::hash_bucket"* %5, i64 0, i32 0
  tail call void @_ZN6Halide7Runtime8Internal15Synchronization9word_lock11unlock_fullEv(%"class.Halide::Runtime::Internal::Synchronization::word_lock"* nonnull dereferenceable(8) %45) #12
  br label %46

46:                                               ; preds = %44, %37
  %47 = load %"struct.Halide::Runtime::Internal::Synchronization::hash_bucket"*, %"struct.Halide::Runtime::Internal::Synchronization::hash_bucket"** %2, align 8, !tbaa !114
  %48 = getelementptr inbounds %"struct.Halide::Runtime::Internal::Synchronization::hash_bucket", %"struct.Halide::Runtime::Internal::Synchronization::hash_bucket"* %47, i64 0, i32 0, i32 0
  %49 = atomicrmw and i64* %48, i64 -2 release
  %50 = and i64 %49, 2
  %51 = icmp ne i64 %50, 0
  %52 = icmp ult i64 %49, 4
  %53 = or i1 %52, %51
  br i1 %53, label %56, label %54

54:                                               ; preds = %46
  %55 = getelementptr inbounds %"struct.Halide::Runtime::Internal::Synchronization::hash_bucket", %"struct.Halide::Runtime::Internal::Synchronization::hash_bucket"* %47, i64 0, i32 0
  tail call void @_ZN6Halide7Runtime8Internal15Synchronization9word_lock11unlock_fullEv(%"class.Halide::Runtime::Internal::Synchronization::word_lock"* nonnull dereferenceable(8) %55) #12
  br label %56

56:                                               ; preds = %54, %46, %35, %27, %14, %7
  ret void
}

; Function Attrs: nounwind mustprogress
define linkonce i32 @_ZN6Halide7Runtime8Internal27default_desired_num_threadsEv() local_unnamed_addr #0 {
  %1 = tail call i8* @getenv(i8* getelementptr inbounds ([15 x i8], [15 x i8]* @.str.1, i64 0, i64 0)) #12
  %2 = icmp eq i8* %1, null
  br i1 %2, label %3, label %6

3:                                                ; preds = %0
  %4 = tail call i8* @getenv(i8* getelementptr inbounds ([14 x i8], [14 x i8]* @.str.2, i64 0, i64 0)) #12
  %5 = icmp eq i8* %4, null
  br i1 %5, label %9, label %6

6:                                                ; preds = %3, %0
  %7 = phi i8* [ %4, %3 ], [ %1, %0 ]
  %8 = tail call i32 @atoi(i8* nonnull %7) #12
  br label %11

9:                                                ; preds = %3
  %10 = tail call i32 @halide_host_cpu_count() #12
  br label %11

11:                                               ; preds = %9, %6
  %12 = phi i32 [ %8, %6 ], [ %10, %9 ]
  ret i32 %12
}

; Function Attrs: nounwind willreturn mustprogress
define linkonce i32 @_ZN6Halide7Runtime8Internal17clamp_num_threadsEi(i32 %0) local_unnamed_addr #2 {
  %2 = icmp sgt i32 %0, 256
  br i1 %2, label %6, label %3

3:                                                ; preds = %1
  %4 = icmp sgt i32 %0, 1
  %5 = select i1 %4, i32 %0, i32 1
  ret i32 %5

6:                                                ; preds = %1
  ret i32 256
}

; Function Attrs: nounwind mustprogress
define linkonce void @_ZN6Halide7Runtime8Internal13worker_threadEPv(i8* %0) #0 {
  tail call void @halide_mutex_lock(%struct.halide_mutex* getelementptr inbounds (%"struct.Halide::Runtime::Internal::work_queue_t", %"struct.Halide::Runtime::Internal::work_queue_t"* @_ZN6Halide7Runtime8Internal10work_queueE, i64 0, i32 0)) #13
  %2 = bitcast i8* %0 to %"struct.Halide::Runtime::Internal::work"*
  tail call void @_ZN6Halide7Runtime8Internal28worker_thread_already_lockedEPNS1_4workE(%"struct.Halide::Runtime::Internal::work"* %2) #13
  tail call void @halide_mutex_unlock(%struct.halide_mutex* getelementptr inbounds (%"struct.Halide::Runtime::Internal::work_queue_t", %"struct.Halide::Runtime::Internal::work_queue_t"* @_ZN6Halide7Runtime8Internal10work_queueE, i64 0, i32 0)) #13
  ret void
}

; Function Attrs: nounwind mustprogress
define weak %struct.halide_thread* @halide_spawn_thread(void (i8*)* %0, i8* %1) local_unnamed_addr #0 {
  %3 = tail call i8* @malloc(i64 24) #12
  %4 = bitcast i8* %3 to void (i8*)**
  store void (i8*)* %0, void (i8*)** %4, align 8, !tbaa !118
  %5 = getelementptr inbounds i8, i8* %3, i64 8
  %6 = bitcast i8* %5 to i8**
  store i8* %1, i8** %6, align 8, !tbaa !120
  %7 = getelementptr inbounds i8, i8* %3, i64 16
  %8 = bitcast i8* %7 to i64*
  store i64 0, i64* %8, align 8, !tbaa !121
  %9 = tail call i32 @pthread_create(i64* nonnull %8, i8* null, i8* (i8*)* nonnull @_ZN6Halide7Runtime8Internal19spawn_thread_helperEPv, i8* %3) #12
  %10 = bitcast i8* %3 to %struct.halide_thread*
  ret %struct.halide_thread* %10
}

; Function Attrs: nounwind mustprogress
define linkonce i8* @_ZN6Halide7Runtime8Internal19spawn_thread_helperEPv(i8* %0) #0 {
  %2 = bitcast i8* %0 to void (i8*)**
  %3 = load void (i8*)*, void (i8*)** %2, align 8, !tbaa !118
  %4 = getelementptr inbounds i8, i8* %0, i64 8
  %5 = bitcast i8* %4 to i8**
  %6 = load i8*, i8** %5, align 8, !tbaa !120
  tail call void %3(i8* %6) #12
  ret i8* null
}

declare i32 @pthread_create(i64*, i8*, i8* (i8*)*, i8*) local_unnamed_addr #1

declare i8* @getenv(i8*) local_unnamed_addr #1

declare i32 @atoi(i8*) local_unnamed_addr #1

; Function Attrs: nounwind mustprogress
define weak i32 @halide_default_do_parallel_tasks(i8* %0, i32 %1, %struct.halide_parallel_task_t* %2, i8* %3) #0 {
  %5 = sext i32 %1 to i64
  %6 = alloca %"struct.Halide::Runtime::Internal::work", i64 %5, align 8
  %7 = icmp sgt i32 %1, 0
  br i1 %7, label %.preheader, label %.loopexit3

.loopexit3:                                       ; preds = %31, %4
  %8 = phi i32 [ %1, %4 ], [ %33, %31 ]
  %9 = icmp eq i32 %8, 0
  br i1 %9, label %53, label %37

.preheader:                                       ; preds = %31, %4
  %10 = phi i64 [ %34, %31 ], [ 0, %4 ]
  %11 = phi i32 [ %33, %31 ], [ %1, %4 ]
  %12 = phi %struct.halide_parallel_task_t* [ %32, %31 ], [ %2, %4 ]
  %13 = getelementptr inbounds %struct.halide_parallel_task_t, %struct.halide_parallel_task_t* %12, i64 0, i32 6
  %14 = load i32, i32* %13, align 8, !tbaa !122
  %15 = icmp slt i32 %14, 1
  br i1 %15, label %16, label %18

16:                                               ; preds = %.preheader
  %17 = add nsw i32 %11, -1
  br label %31

18:                                               ; preds = %.preheader
  %19 = getelementptr inbounds %struct.halide_parallel_task_t, %struct.halide_parallel_task_t* %12, i64 1
  %20 = getelementptr inbounds %"struct.Halide::Runtime::Internal::work", %"struct.Halide::Runtime::Internal::work"* %6, i64 %10
  %21 = bitcast %"struct.Halide::Runtime::Internal::work"* %20 to i8*
  %22 = bitcast %struct.halide_parallel_task_t* %12 to i8*
  call void @llvm.memcpy.p0i8.p0i8.i64(i8* nonnull align 8 dereferenceable(56) %21, i8* nonnull align 8 dereferenceable(56) %22, i64 56, i1 false), !tbaa.struct !123
  %23 = getelementptr inbounds %"struct.Halide::Runtime::Internal::work", %"struct.Halide::Runtime::Internal::work"* %6, i64 %10, i32 1
  store i32 (i8*, i32, i8*)* null, i32 (i8*, i32, i8*)** %23, align 8, !tbaa !32
  %24 = getelementptr inbounds %"struct.Halide::Runtime::Internal::work", %"struct.Halide::Runtime::Internal::work"* %6, i64 %10, i32 7
  store i8* %0, i8** %24, align 8, !tbaa !33
  %25 = getelementptr inbounds %"struct.Halide::Runtime::Internal::work", %"struct.Halide::Runtime::Internal::work"* %6, i64 %10, i32 9
  store i32 0, i32* %25, align 4, !tbaa !34
  %26 = getelementptr inbounds %"struct.Halide::Runtime::Internal::work", %"struct.Halide::Runtime::Internal::work"* %6, i64 %10, i32 8
  store i32 0, i32* %26, align 8, !tbaa !35
  %27 = getelementptr inbounds %"struct.Halide::Runtime::Internal::work", %"struct.Halide::Runtime::Internal::work"* %6, i64 %10, i32 10
  store i32 0, i32* %27, align 8, !tbaa !36
  %28 = getelementptr inbounds %"struct.Halide::Runtime::Internal::work", %"struct.Halide::Runtime::Internal::work"* %6, i64 %10, i32 11
  store i8 0, i8* %28, align 4, !tbaa !37
  %29 = getelementptr inbounds %"struct.Halide::Runtime::Internal::work", %"struct.Halide::Runtime::Internal::work"* %6, i64 %10, i32 5
  %30 = bitcast %"struct.Halide::Runtime::Internal::work"** %29 to i8**
  store i8* %3, i8** %30, align 8, !tbaa !40
  br label %31

31:                                               ; preds = %18, %16
  %32 = phi %struct.halide_parallel_task_t* [ %12, %16 ], [ %19, %18 ]
  %33 = phi i32 [ %17, %16 ], [ %11, %18 ]
  %34 = add nuw nsw i64 %10, 1
  %35 = sext i32 %33 to i64
  %36 = icmp slt i64 %34, %35
  br i1 %36, label %.preheader, label %.loopexit3, !llvm.loop !124

37:                                               ; preds = %.loopexit3
  tail call void @halide_mutex_lock(%struct.halide_mutex* getelementptr inbounds (%"struct.Halide::Runtime::Internal::work_queue_t", %"struct.Halide::Runtime::Internal::work_queue_t"* @_ZN6Halide7Runtime8Internal10work_queueE, i64 0, i32 0)) #13
  %38 = bitcast i8* %3 to %"struct.Halide::Runtime::Internal::work"*
  call void @_ZN6Halide7Runtime8Internal27enqueue_work_already_lockedEiPNS1_4workES3_(i32 %8, %"struct.Halide::Runtime::Internal::work"* nonnull %6, %"struct.Halide::Runtime::Internal::work"* %38) #13
  %39 = icmp sgt i32 %8, 0
  br i1 %39, label %40, label %.loopexit

40:                                               ; preds = %37
  %41 = zext i32 %8 to i64
  br label %43

.loopexit:                                        ; preds = %43, %37
  %42 = phi i32 [ 0, %37 ], [ %50, %43 ]
  call void @halide_mutex_unlock(%struct.halide_mutex* getelementptr inbounds (%"struct.Halide::Runtime::Internal::work_queue_t", %"struct.Halide::Runtime::Internal::work_queue_t"* @_ZN6Halide7Runtime8Internal10work_queueE, i64 0, i32 0)) #13
  br label %53

43:                                               ; preds = %43, %40
  %44 = phi i64 [ 0, %40 ], [ %51, %43 ]
  %45 = phi i32 [ 0, %40 ], [ %50, %43 ]
  %46 = getelementptr inbounds %"struct.Halide::Runtime::Internal::work", %"struct.Halide::Runtime::Internal::work"* %6, i64 %44
  call void @_ZN6Halide7Runtime8Internal28worker_thread_already_lockedEPNS1_4workE(%"struct.Halide::Runtime::Internal::work"* nonnull %46) #13
  %47 = getelementptr inbounds %"struct.Halide::Runtime::Internal::work", %"struct.Halide::Runtime::Internal::work"* %6, i64 %44, i32 9
  %48 = load i32, i32* %47, align 4, !tbaa !34
  %49 = icmp eq i32 %48, 0
  %50 = select i1 %49, i32 %45, i32 %48
  %51 = add nuw nsw i64 %44, 1
  %52 = icmp eq i64 %51, %41
  br i1 %52, label %.loopexit, label %43, !llvm.loop !125

53:                                               ; preds = %.loopexit, %.loopexit3
  %54 = phi i32 [ %42, %.loopexit ], [ 0, %.loopexit3 ]
  ret i32 %54
}

; Function Attrs: argmemonly nofree nosync nounwind willreturn
declare void @llvm.memcpy.p0i8.p0i8.i64(i8* noalias nocapture writeonly, i8* noalias nocapture readonly, i64, i1 immarg) #3

; Function Attrs: nounwind willreturn mustprogress
define weak i32 @halide_default_semaphore_init(%struct.halide_semaphore_t* %0, i32 %1) #2 {
  %3 = bitcast %struct.halide_semaphore_t* %0 to i32*
  store atomic i32 %1, i32* %3 release, align 4
  ret i32 %1
}

; Function Attrs: nounwind mustprogress
define weak i32 @halide_default_semaphore_release(%struct.halide_semaphore_t* %0, i32 %1) #0 {
  %3 = bitcast %struct.halide_semaphore_t* %0 to i32*
  %4 = atomicrmw add i32* %3, i32 %1 acq_rel
  %5 = icmp eq i32 %4, 0
  %6 = icmp ne i32 %1, 0
  %7 = and i1 %6, %5
  br i1 %7, label %8, label %9

8:                                                ; preds = %2
  tail call void @halide_mutex_lock(%struct.halide_mutex* getelementptr inbounds (%"struct.Halide::Runtime::Internal::work_queue_t", %"struct.Halide::Runtime::Internal::work_queue_t"* @_ZN6Halide7Runtime8Internal10work_queueE, i64 0, i32 0)) #13
  tail call void @halide_cond_broadcast(%struct.halide_mutex* getelementptr inbounds (%"struct.Halide::Runtime::Internal::work_queue_t", %"struct.Halide::Runtime::Internal::work_queue_t"* @_ZN6Halide7Runtime8Internal10work_queueE, i64 0, i32 8)) #13
  tail call void @halide_cond_broadcast(%struct.halide_mutex* getelementptr inbounds (%"struct.Halide::Runtime::Internal::work_queue_t", %"struct.Halide::Runtime::Internal::work_queue_t"* @_ZN6Halide7Runtime8Internal10work_queueE, i64 0, i32 10)) #13
  tail call void @halide_mutex_unlock(%struct.halide_mutex* getelementptr inbounds (%"struct.Halide::Runtime::Internal::work_queue_t", %"struct.Halide::Runtime::Internal::work_queue_t"* @_ZN6Halide7Runtime8Internal10work_queueE, i64 0, i32 0)) #13
  br label %9

9:                                                ; preds = %8, %2
  %10 = add nsw i32 %4, %1
  ret i32 %10
}

; Function Attrs: nounwind mustprogress
define weak void @halide_thread_pool_cleanup() #0 {
  tail call void @halide_shutdown_thread_pool() #13
  ret void
}

; Function Attrs: nounwind mustprogress
define weak void @halide_shutdown_thread_pool() local_unnamed_addr #0 {
  %1 = load i8, i8* getelementptr inbounds (%"struct.Halide::Runtime::Internal::work_queue_t", %"struct.Halide::Runtime::Internal::work_queue_t"* @_ZN6Halide7Runtime8Internal10work_queueE, i64 0, i32 15), align 1, !tbaa !48, !range !17
  %2 = icmp eq i8 %1, 0
  br i1 %2, label %14, label %3

3:                                                ; preds = %0
  tail call void @halide_mutex_lock(%struct.halide_mutex* getelementptr inbounds (%"struct.Halide::Runtime::Internal::work_queue_t", %"struct.Halide::Runtime::Internal::work_queue_t"* @_ZN6Halide7Runtime8Internal10work_queueE, i64 0, i32 0)) #13
  store i8 1, i8* getelementptr inbounds (%"struct.Halide::Runtime::Internal::work_queue_t", %"struct.Halide::Runtime::Internal::work_queue_t"* @_ZN6Halide7Runtime8Internal10work_queueE, i64 0, i32 14), align 8, !tbaa !66
  tail call void @halide_cond_broadcast(%struct.halide_mutex* getelementptr inbounds (%"struct.Halide::Runtime::Internal::work_queue_t", %"struct.Halide::Runtime::Internal::work_queue_t"* @_ZN6Halide7Runtime8Internal10work_queueE, i64 0, i32 10)) #13
  tail call void @halide_cond_broadcast(%struct.halide_mutex* getelementptr inbounds (%"struct.Halide::Runtime::Internal::work_queue_t", %"struct.Halide::Runtime::Internal::work_queue_t"* @_ZN6Halide7Runtime8Internal10work_queueE, i64 0, i32 8)) #13
  tail call void @halide_cond_broadcast(%struct.halide_mutex* getelementptr inbounds (%"struct.Halide::Runtime::Internal::work_queue_t", %"struct.Halide::Runtime::Internal::work_queue_t"* @_ZN6Halide7Runtime8Internal10work_queueE, i64 0, i32 9)) #13
  tail call void @halide_mutex_unlock(%struct.halide_mutex* getelementptr inbounds (%"struct.Halide::Runtime::Internal::work_queue_t", %"struct.Halide::Runtime::Internal::work_queue_t"* @_ZN6Halide7Runtime8Internal10work_queueE, i64 0, i32 0)) #13
  %4 = load i32, i32* getelementptr inbounds (%"struct.Halide::Runtime::Internal::work_queue_t", %"struct.Halide::Runtime::Internal::work_queue_t"* @_ZN6Halide7Runtime8Internal10work_queueE, i64 0, i32 4), align 8, !tbaa !56
  %5 = icmp sgt i32 %4, 0
  br i1 %5, label %.preheader, label %.loopexit

.loopexit:                                        ; preds = %.preheader, %3
  %6 = tail call i8* @memset(i8* nonnull bitcast (i32* getelementptr inbounds (%"struct.Halide::Runtime::Internal::work_queue_t", %"struct.Halide::Runtime::Internal::work_queue_t"* @_ZN6Halide7Runtime8Internal10work_queueE, i64 0, i32 2) to i8*), i32 0, i64 2116) #12
  br label %14

.preheader:                                       ; preds = %.preheader, %3
  %7 = phi i64 [ %10, %.preheader ], [ 0, %3 ]
  %8 = getelementptr inbounds %"struct.Halide::Runtime::Internal::work_queue_t", %"struct.Halide::Runtime::Internal::work_queue_t"* @_ZN6Halide7Runtime8Internal10work_queueE, i64 0, i32 13, i64 %7
  %9 = load %struct.halide_thread*, %struct.halide_thread** %8, align 8, !tbaa !10
  tail call void @halide_join_thread(%struct.halide_thread* %9) #13
  %10 = add nuw nsw i64 %7, 1
  %11 = load i32, i32* getelementptr inbounds (%"struct.Halide::Runtime::Internal::work_queue_t", %"struct.Halide::Runtime::Internal::work_queue_t"* @_ZN6Halide7Runtime8Internal10work_queueE, i64 0, i32 4), align 8, !tbaa !56
  %12 = sext i32 %11 to i64
  %13 = icmp slt i64 %10, %12
  br i1 %13, label %.preheader, label %.loopexit, !llvm.loop !126

14:                                               ; preds = %.loopexit, %0
  ret void
}

declare i8* @memset(i8*, i32, i64) local_unnamed_addr #1

; Function Attrs: nounwind mustprogress
define weak void @halide_join_thread(%struct.halide_thread* %0) local_unnamed_addr #0 {
  %2 = alloca i8*, align 8
  %3 = bitcast %struct.halide_thread* %0 to %"struct.Halide::Runtime::Internal::spawned_thread"*
  %4 = bitcast i8** %2 to i8*
  call void @llvm.lifetime.start.p0i8(i64 8, i8* nonnull %4) #10
  store i8* null, i8** %2, align 8, !tbaa !10
  %5 = getelementptr inbounds %"struct.Halide::Runtime::Internal::spawned_thread", %"struct.Halide::Runtime::Internal::spawned_thread"* %3, i64 0, i32 2
  %6 = load i64, i64* %5, align 8, !tbaa !121
  %7 = call i32 @pthread_join(i64 %6, i8** nonnull %2) #12
  %8 = bitcast %struct.halide_thread* %0 to i8*
  call void @free(i8* %8) #12
  call void @llvm.lifetime.end.p0i8(i64 8, i8* nonnull %4) #10
  ret void
}

declare i32 @pthread_join(i64, i8**) local_unnamed_addr #1

; Function Attrs: nounwind willreturn mustprogress
define linkonce zeroext i1 @_ZN6Halide7Runtime8Internal15Synchronization24parking_control_validateEPvRNS2_15validate_actionE(i8* %0, %"struct.Halide::Runtime::Internal::Synchronization::validate_action"* nonnull align 8 dereferenceable(16) %1) #2 {
  ret i1 true
}

; Function Attrs: nounwind willreturn mustprogress
define linkonce i64 @_ZN6Halide7Runtime8Internal15Synchronization29signal_parking_control_unparkEPvib(i8* %0, i32 %1, i1 zeroext %2) #2 {
  br i1 %2, label %8, label %4

4:                                                ; preds = %3
  %5 = getelementptr inbounds i8, i8* %0, i64 32
  %6 = bitcast i8* %5 to i64**
  %7 = load i64*, i64** %6, align 8, !tbaa !127
  store atomic i64 0, i64* %7 monotonic, align 8
  br label %8

8:                                                ; preds = %4, %3
  ret i64 0
}

; Function Attrs: nounwind
define weak void @halide_cond_signal(%struct.halide_mutex* %0) local_unnamed_addr #4 {
  %2 = alloca %"struct.Halide::Runtime::Internal::Synchronization::wait_parking_control", align 8
  %3 = getelementptr %struct.halide_mutex, %struct.halide_mutex* %0, i64 0, i32 0, i64 0
  %4 = load atomic i64, i64* %3 monotonic, align 8
  %5 = icmp eq i64 %4, 0
  br i1 %5, label %18, label %6

6:                                                ; preds = %1
  %7 = bitcast %"struct.Halide::Runtime::Internal::Synchronization::wait_parking_control"* %2 to i8*
  call void @llvm.lifetime.start.p0i8(i64 48, i8* nonnull %7) #10
  %8 = inttoptr i64 %4 to %"class.Halide::Runtime::Internal::Synchronization::word_lock"*
  %9 = getelementptr inbounds %"struct.Halide::Runtime::Internal::Synchronization::wait_parking_control", %"struct.Halide::Runtime::Internal::Synchronization::wait_parking_control"* %2, i64 0, i32 0, i32 0
  store i1 (i8*, %"struct.Halide::Runtime::Internal::Synchronization::validate_action"*)* @_ZN6Halide7Runtime8Internal15Synchronization24parking_control_validateEPvRNS2_15validate_actionE, i1 (i8*, %"struct.Halide::Runtime::Internal::Synchronization::validate_action"*)** %9, align 8, !tbaa !46
  %10 = getelementptr inbounds %"struct.Halide::Runtime::Internal::Synchronization::wait_parking_control", %"struct.Halide::Runtime::Internal::Synchronization::wait_parking_control"* %2, i64 0, i32 0, i32 1
  store void (i8*)* @_ZN6Halide7Runtime8Internal15Synchronization28parking_control_before_sleepEPv, void (i8*)** %10, align 8, !tbaa !41
  %11 = getelementptr inbounds %"struct.Halide::Runtime::Internal::Synchronization::wait_parking_control", %"struct.Halide::Runtime::Internal::Synchronization::wait_parking_control"* %2, i64 0, i32 0, i32 2
  %12 = getelementptr inbounds %"struct.Halide::Runtime::Internal::Synchronization::wait_parking_control", %"struct.Halide::Runtime::Internal::Synchronization::wait_parking_control"* %2, i64 0, i32 0, i32 3
  store void (i8*, %"struct.Halide::Runtime::Internal::Synchronization::validate_action"*, i1, i1)* @_ZN6Halide7Runtime8Internal15Synchronization32parking_control_requeue_callbackEPvRKNS2_15validate_actionEbb, void (i8*, %"struct.Halide::Runtime::Internal::Synchronization::validate_action"*, i1, i1)** %12, align 8, !tbaa !43
  %13 = getelementptr inbounds %"struct.Halide::Runtime::Internal::Synchronization::wait_parking_control", %"struct.Halide::Runtime::Internal::Synchronization::wait_parking_control"* %2, i64 0, i32 1
  store i64* %3, i64** %13, align 8, !tbaa !127
  %14 = getelementptr inbounds %"struct.Halide::Runtime::Internal::Synchronization::wait_parking_control", %"struct.Halide::Runtime::Internal::Synchronization::wait_parking_control"* %2, i64 0, i32 2
  store %"class.Halide::Runtime::Internal::Synchronization::word_lock"* %8, %"class.Halide::Runtime::Internal::Synchronization::word_lock"** %14, align 8, !tbaa !129
  store i64 (i8*, i32, i1)* @_ZN6Halide7Runtime8Internal15Synchronization29signal_parking_control_unparkEPvib, i64 (i8*, i32, i1)** %11, align 8, !tbaa !47
  %15 = ptrtoint %struct.halide_mutex* %0 to i64
  %16 = getelementptr inbounds %"struct.Halide::Runtime::Internal::Synchronization::wait_parking_control", %"struct.Halide::Runtime::Internal::Synchronization::wait_parking_control"* %2, i64 0, i32 0
  %17 = call i64 @_ZN6Halide7Runtime8Internal15Synchronization10unpark_oneEyRNS2_15parking_controlE(i64 %15, %"struct.Halide::Runtime::Internal::Synchronization::parking_control"* nonnull align 8 dereferenceable(32) %16) #12
  call void @llvm.lifetime.end.p0i8(i64 48, i8* nonnull %7) #10
  br label %18

18:                                               ; preds = %6, %1
  ret void
}

; Function Attrs: nounwind mustprogress
define weak %struct.halide_mutex_array* @halide_mutex_array_create(i32 %0) local_unnamed_addr #0 {
  %2 = tail call i8* @halide_malloc(i8* null, i64 8) #12
  %3 = bitcast i8* %2 to %struct.halide_mutex_array*
  %4 = icmp eq i8* %2, null
  br i1 %4, label %14, label %5

5:                                                ; preds = %1
  %6 = sext i32 %0 to i64
  %7 = shl nsw i64 %6, 3
  %8 = tail call i8* @halide_malloc(i8* null, i64 %7) #12
  %9 = bitcast i8* %2 to i8**
  store i8* %8, i8** %9, align 8, !tbaa !130
  %10 = icmp eq i8* %8, null
  br i1 %10, label %11, label %12

11:                                               ; preds = %5
  tail call void @halide_free(i8* null, i8* nonnull %2) #12
  br label %14

12:                                               ; preds = %5
  %13 = tail call i8* @memset(i8* nonnull %8, i32 0, i64 %7) #12
  br label %14

14:                                               ; preds = %12, %11, %1
  %15 = phi %struct.halide_mutex_array* [ null, %11 ], [ %3, %12 ], [ null, %1 ]
  ret %struct.halide_mutex_array* %15
}

; Function Attrs: nounwind mustprogress
define weak void @halide_mutex_array_destroy(i8* %0, i8* %1) local_unnamed_addr #0 {
  %3 = bitcast i8* %1 to i8**
  %4 = load i8*, i8** %3, align 8, !tbaa !130
  tail call void @halide_free(i8* %0, i8* %4) #12
  tail call void @halide_free(i8* %0, i8* %1) #12
  ret void
}

; Function Attrs: nounwind mustprogress
define weak i32 @halide_mutex_array_lock(%struct.halide_mutex_array* %0, i32 %1) local_unnamed_addr #0 {
  %3 = getelementptr inbounds %struct.halide_mutex_array, %struct.halide_mutex_array* %0, i64 0, i32 0
  %4 = load %struct.halide_mutex*, %struct.halide_mutex** %3, align 8, !tbaa !130
  %5 = sext i32 %1 to i64
  %6 = getelementptr inbounds %struct.halide_mutex, %struct.halide_mutex* %4, i64 %5
  tail call void @halide_mutex_lock(%struct.halide_mutex* %6) #13
  ret i32 0
}

; Function Attrs: nounwind mustprogress
define weak i32 @halide_mutex_array_unlock(%struct.halide_mutex_array* %0, i32 %1) local_unnamed_addr #0 {
  %3 = getelementptr inbounds %struct.halide_mutex_array, %struct.halide_mutex_array* %0, i64 0, i32 0
  %4 = load %struct.halide_mutex*, %struct.halide_mutex** %3, align 8, !tbaa !130
  %5 = sext i32 %1 to i64
  %6 = getelementptr inbounds %struct.halide_mutex, %struct.halide_mutex* %4, i64 %5
  tail call void @halide_mutex_unlock(%struct.halide_mutex* %6) #13
  ret i32 0
}

; Function Attrs: nounwind mustprogress
define weak i32 @halide_set_num_threads(i32 %0) local_unnamed_addr #0 {
  %2 = icmp slt i32 %0, 0
  br i1 %2, label %3, label %4

3:                                                ; preds = %1
  tail call void @halide_error(i8* null, i8* getelementptr inbounds ([38 x i8], [38 x i8]* @.str.4, i64 0, i64 0)) #12
  tail call void @halide_mutex_lock(%struct.halide_mutex* getelementptr inbounds (%"struct.Halide::Runtime::Internal::work_queue_t", %"struct.Halide::Runtime::Internal::work_queue_t"* @_ZN6Halide7Runtime8Internal10work_queueE, i64 0, i32 0)) #13
  br label %8

4:                                                ; preds = %1
  tail call void @halide_mutex_lock(%struct.halide_mutex* getelementptr inbounds (%"struct.Halide::Runtime::Internal::work_queue_t", %"struct.Halide::Runtime::Internal::work_queue_t"* @_ZN6Halide7Runtime8Internal10work_queueE, i64 0, i32 0)) #13
  %5 = icmp eq i32 %0, 0
  br i1 %5, label %6, label %8

6:                                                ; preds = %4
  %7 = tail call i32 @_ZN6Halide7Runtime8Internal27default_desired_num_threadsEv() #13
  br label %8

8:                                                ; preds = %6, %4, %3
  %9 = phi i32 [ %7, %6 ], [ %0, %4 ], [ %0, %3 ]
  %10 = load i32, i32* getelementptr inbounds (%"struct.Halide::Runtime::Internal::work_queue_t", %"struct.Halide::Runtime::Internal::work_queue_t"* @_ZN6Halide7Runtime8Internal10work_queueE, i64 0, i32 1), align 8, !tbaa !54
  %11 = tail call i32 @_ZN6Halide7Runtime8Internal17clamp_num_threadsEi(i32 %9) #13
  store i32 %11, i32* getelementptr inbounds (%"struct.Halide::Runtime::Internal::work_queue_t", %"struct.Halide::Runtime::Internal::work_queue_t"* @_ZN6Halide7Runtime8Internal10work_queueE, i64 0, i32 1), align 8, !tbaa !54
  tail call void @halide_mutex_unlock(%struct.halide_mutex* getelementptr inbounds (%"struct.Halide::Runtime::Internal::work_queue_t", %"struct.Halide::Runtime::Internal::work_queue_t"* @_ZN6Halide7Runtime8Internal10work_queueE, i64 0, i32 0)) #13
  ret i32 %10
}

; Function Attrs: nounwind willreturn mustprogress
define weak i32 (i8*, i32 (i8*, i32, i8*)*, i32, i8*)* @halide_set_custom_do_task(i32 (i8*, i32 (i8*, i32, i8*)*, i32, i8*)* %0) local_unnamed_addr #2 {
  %2 = load i32 (i8*, i32 (i8*, i32, i8*)*, i32, i8*)*, i32 (i8*, i32 (i8*, i32, i8*)*, i32, i8*)** @_ZN6Halide7Runtime8Internal14custom_do_taskE, align 8, !tbaa !10
  store i32 (i8*, i32 (i8*, i32, i8*)*, i32, i8*)* %0, i32 (i8*, i32 (i8*, i32, i8*)*, i32, i8*)** @_ZN6Halide7Runtime8Internal14custom_do_taskE, align 8, !tbaa !10
  ret i32 (i8*, i32 (i8*, i32, i8*)*, i32, i8*)* %2
}

; Function Attrs: nounwind willreturn mustprogress
define weak i32 (i8*, i32 (i8*, i32, i32, i8*, i8*)*, i32, i32, i8*, i8*)* @halide_set_custom_do_loop_task(i32 (i8*, i32 (i8*, i32, i32, i8*, i8*)*, i32, i32, i8*, i8*)* %0) local_unnamed_addr #2 {
  %2 = load i32 (i8*, i32 (i8*, i32, i32, i8*, i8*)*, i32, i32, i8*, i8*)*, i32 (i8*, i32 (i8*, i32, i32, i8*, i8*)*, i32, i32, i8*, i8*)** @_ZN6Halide7Runtime8Internal19custom_do_loop_taskE, align 8, !tbaa !10
  store i32 (i8*, i32 (i8*, i32, i32, i8*, i8*)*, i32, i32, i8*, i8*)* %0, i32 (i8*, i32 (i8*, i32, i32, i8*, i8*)*, i32, i32, i8*, i8*)** @_ZN6Halide7Runtime8Internal19custom_do_loop_taskE, align 8, !tbaa !10
  ret i32 (i8*, i32 (i8*, i32, i32, i8*, i8*)*, i32, i32, i8*, i8*)* %2
}

; Function Attrs: nounwind willreturn mustprogress
define weak i32 (i8*, i32 (i8*, i32, i8*)*, i32, i32, i8*)* @halide_set_custom_do_par_for(i32 (i8*, i32 (i8*, i32, i8*)*, i32, i32, i8*)* %0) local_unnamed_addr #2 {
  %2 = load i32 (i8*, i32 (i8*, i32, i8*)*, i32, i32, i8*)*, i32 (i8*, i32 (i8*, i32, i8*)*, i32, i32, i8*)** @_ZN6Halide7Runtime8Internal17custom_do_par_forE, align 8, !tbaa !10
  store i32 (i8*, i32 (i8*, i32, i8*)*, i32, i32, i8*)* %0, i32 (i8*, i32 (i8*, i32, i8*)*, i32, i32, i8*)** @_ZN6Halide7Runtime8Internal17custom_do_par_forE, align 8, !tbaa !10
  ret i32 (i8*, i32 (i8*, i32, i8*)*, i32, i32, i8*)* %2
}

; Function Attrs: nounwind willreturn mustprogress
define weak void @halide_set_custom_parallel_runtime(i32 (i8*, i32 (i8*, i32, i8*)*, i32, i32, i8*)* %0, i32 (i8*, i32 (i8*, i32, i8*)*, i32, i8*)* %1, i32 (i8*, i32 (i8*, i32, i32, i8*, i8*)*, i32, i32, i8*, i8*)* %2, i32 (i8*, i32, %struct.halide_parallel_task_t*, i8*)* %3, i32 (%struct.halide_semaphore_t*, i32)* %4, i1 (%struct.halide_semaphore_t*, i32)* %5, i32 (%struct.halide_semaphore_t*, i32)* %6) local_unnamed_addr #2 {
  store i32 (i8*, i32 (i8*, i32, i8*)*, i32, i32, i8*)* %0, i32 (i8*, i32 (i8*, i32, i8*)*, i32, i32, i8*)** @_ZN6Halide7Runtime8Internal17custom_do_par_forE, align 8, !tbaa !10
  store i32 (i8*, i32 (i8*, i32, i8*)*, i32, i8*)* %1, i32 (i8*, i32 (i8*, i32, i8*)*, i32, i8*)** @_ZN6Halide7Runtime8Internal14custom_do_taskE, align 8, !tbaa !10
  store i32 (i8*, i32 (i8*, i32, i32, i8*, i8*)*, i32, i32, i8*, i8*)* %2, i32 (i8*, i32 (i8*, i32, i32, i8*, i8*)*, i32, i32, i8*, i8*)** @_ZN6Halide7Runtime8Internal19custom_do_loop_taskE, align 8, !tbaa !10
  store i32 (i8*, i32, %struct.halide_parallel_task_t*, i8*)* %3, i32 (i8*, i32, %struct.halide_parallel_task_t*, i8*)** @_ZN6Halide7Runtime8Internal24custom_do_parallel_tasksE, align 8, !tbaa !10
  store i32 (%struct.halide_semaphore_t*, i32)* %4, i32 (%struct.halide_semaphore_t*, i32)** @_ZN6Halide7Runtime8Internal21custom_semaphore_initE, align 8, !tbaa !10
  store i1 (%struct.halide_semaphore_t*, i32)* %5, i1 (%struct.halide_semaphore_t*, i32)** @_ZN6Halide7Runtime8Internal28custom_semaphore_try_acquireE, align 8, !tbaa !10
  store i32 (%struct.halide_semaphore_t*, i32)* %6, i32 (%struct.halide_semaphore_t*, i32)** @_ZN6Halide7Runtime8Internal24custom_semaphore_releaseE, align 8, !tbaa !10
  ret void
}

; Function Attrs: nounwind mustprogress
define weak i32 @halide_do_par_for(i8* %0, i32 (i8*, i32, i8*)* %1, i32 %2, i32 %3, i8* noalias %4) local_unnamed_addr #0 {
  %6 = load i32 (i8*, i32 (i8*, i32, i8*)*, i32, i32, i8*)*, i32 (i8*, i32 (i8*, i32, i8*)*, i32, i32, i8*)** @_ZN6Halide7Runtime8Internal17custom_do_par_forE, align 8, !tbaa !10
  %7 = tail call i32 %6(i8* %0, i32 (i8*, i32, i8*)* %1, i32 %2, i32 %3, i8* %4) #12
  ret i32 %7
}

; Function Attrs: nounwind mustprogress
define weak i32 @halide_do_parallel_tasks(i8* %0, i32 %1, %struct.halide_parallel_task_t* %2, i8* %3) local_unnamed_addr #0 {
  %5 = load i32 (i8*, i32, %struct.halide_parallel_task_t*, i8*)*, i32 (i8*, i32, %struct.halide_parallel_task_t*, i8*)** @_ZN6Halide7Runtime8Internal24custom_do_parallel_tasksE, align 8, !tbaa !10
  %6 = tail call i32 %5(i8* %0, i32 %1, %struct.halide_parallel_task_t* %2, i8* %3) #12
  ret i32 %6
}

; Function Attrs: nounwind mustprogress
define weak i32 @halide_semaphore_init(%struct.halide_semaphore_t* %0, i32 %1) local_unnamed_addr #0 {
  %3 = load i32 (%struct.halide_semaphore_t*, i32)*, i32 (%struct.halide_semaphore_t*, i32)** @_ZN6Halide7Runtime8Internal21custom_semaphore_initE, align 8, !tbaa !10
  %4 = tail call i32 %3(%struct.halide_semaphore_t* %0, i32 %1) #12
  ret i32 %4
}

; Function Attrs: nounwind mustprogress
define weak i32 @halide_semaphore_release(%struct.halide_semaphore_t* %0, i32 %1) local_unnamed_addr #0 {
  %3 = load i32 (%struct.halide_semaphore_t*, i32)*, i32 (%struct.halide_semaphore_t*, i32)** @_ZN6Halide7Runtime8Internal24custom_semaphore_releaseE, align 8, !tbaa !10
  %4 = tail call i32 %3(%struct.halide_semaphore_t* %0, i32 %1) #12
  ret i32 %4
}

; Function Attrs: nounwind mustprogress
define weak zeroext i1 @halide_semaphore_try_acquire(%struct.halide_semaphore_t* %0, i32 %1) local_unnamed_addr #0 {
  %3 = load i1 (%struct.halide_semaphore_t*, i32)*, i1 (%struct.halide_semaphore_t*, i32)** @_ZN6Halide7Runtime8Internal28custom_semaphore_try_acquireE, align 8, !tbaa !10
  %4 = tail call zeroext i1 %3(%struct.halide_semaphore_t* %0, i32 %1) #12
  ret i1 %4
}

; Function Attrs: nounwind mustprogress
define weak i8* @halide_default_get_symbol(i8* %0) #0 {
  %2 = tail call i8* @dlsym(i8* null, i8* %0) #12
  ret i8* %2
}

declare i8* @dlsym(i8*, i8*) local_unnamed_addr #1

; Function Attrs: nounwind mustprogress
define weak i8* @halide_default_load_library(i8* %0) #0 {
  %2 = tail call i8* @dlopen(i8* %0, i32 1) #12
  %3 = icmp eq i8* %2, null
  br i1 %3, label %4, label %6

4:                                                ; preds = %1
  %5 = tail call i8* @dlerror() #12
  br label %6

6:                                                ; preds = %4, %1
  ret i8* %2
}

declare i8* @dlopen(i8*, i32) local_unnamed_addr #1

declare i8* @dlerror() local_unnamed_addr #1

; Function Attrs: nounwind mustprogress
define weak i8* @halide_default_get_library_symbol(i8* %0, i8* %1) #0 {
  %3 = tail call i8* @dlsym(i8* %0, i8* %1) #12
  ret i8* %3
}

; Function Attrs: nounwind willreturn mustprogress
define weak i8* (i8*)* @halide_set_custom_get_symbol(i8* (i8*)* %0) local_unnamed_addr #2 {
  %2 = load i8* (i8*)*, i8* (i8*)** @_ZN6Halide7Runtime8Internal17custom_get_symbolE, align 8, !tbaa !10
  store i8* (i8*)* %0, i8* (i8*)** @_ZN6Halide7Runtime8Internal17custom_get_symbolE, align 8, !tbaa !10
  ret i8* (i8*)* %2
}

; Function Attrs: nounwind willreturn mustprogress
define weak i8* (i8*)* @halide_set_custom_load_library(i8* (i8*)* %0) local_unnamed_addr #2 {
  %2 = load i8* (i8*)*, i8* (i8*)** @_ZN6Halide7Runtime8Internal19custom_load_libraryE, align 8, !tbaa !10
  store i8* (i8*)* %0, i8* (i8*)** @_ZN6Halide7Runtime8Internal19custom_load_libraryE, align 8, !tbaa !10
  ret i8* (i8*)* %2
}

; Function Attrs: nounwind willreturn mustprogress
define weak i8* (i8*, i8*)* @halide_set_custom_get_library_symbol(i8* (i8*, i8*)* %0) local_unnamed_addr #2 {
  %2 = load i8* (i8*, i8*)*, i8* (i8*, i8*)** @_ZN6Halide7Runtime8Internal25custom_get_library_symbolE, align 8, !tbaa !10
  store i8* (i8*, i8*)* %0, i8* (i8*, i8*)** @_ZN6Halide7Runtime8Internal25custom_get_library_symbolE, align 8, !tbaa !10
  ret i8* (i8*, i8*)* %2
}

; Function Attrs: nounwind mustprogress
define weak i8* @halide_get_symbol(i8* %0) local_unnamed_addr #0 {
  %2 = load i8* (i8*)*, i8* (i8*)** @_ZN6Halide7Runtime8Internal17custom_get_symbolE, align 8, !tbaa !10
  %3 = tail call i8* %2(i8* %0) #12
  ret i8* %3
}

; Function Attrs: nounwind mustprogress
define weak i8* @halide_load_library(i8* %0) local_unnamed_addr #0 {
  %2 = load i8* (i8*)*, i8* (i8*)** @_ZN6Halide7Runtime8Internal19custom_load_libraryE, align 8, !tbaa !10
  %3 = tail call i8* %2(i8* %0) #12
  ret i8* %3
}

; Function Attrs: nounwind mustprogress
define weak i8* @halide_get_library_symbol(i8* %0, i8* %1) local_unnamed_addr #0 {
  %3 = load i8* (i8*, i8*)*, i8* (i8*, i8*)** @_ZN6Halide7Runtime8Internal25custom_get_library_symbolE, align 8, !tbaa !10
  %4 = tail call i8* %3(i8* %0, i8* %1) #12
  ret i8* %4
}

declare i8* @memcpy(i8*, i8*, i64) local_unnamed_addr #1

; Function Attrs: nounwind willreturn mustprogress
define weak void @halide_set_gpu_device(i32 %0) local_unnamed_addr #2 {
  store i32 %0, i32* @_ZN6Halide7Runtime8Internal17halide_gpu_deviceE, align 4, !tbaa !76
  store i8 1, i8* @_ZN6Halide7Runtime8Internal29halide_gpu_device_initializedE, align 1, !tbaa !15
  ret void
}

; Function Attrs: nounwind
define weak i32 @halide_get_gpu_device(i8* %0) local_unnamed_addr #4 {
  br label %2

2:                                                ; preds = %2, %1
  %3 = atomicrmw volatile xchg i8* @_ZN6Halide7Runtime8Internal22halide_gpu_device_lockE, i8 1 acquire
  %4 = icmp eq i8 %3, 0
  br i1 %4, label %5, label %2, !llvm.loop !132

5:                                                ; preds = %2
  %6 = load i8, i8* @_ZN6Halide7Runtime8Internal29halide_gpu_device_initializedE, align 1, !tbaa !15, !range !17
  %7 = icmp eq i8 %6, 0
  br i1 %7, label %10, label %8

8:                                                ; preds = %5
  %9 = load i32, i32* @_ZN6Halide7Runtime8Internal17halide_gpu_deviceE, align 4, !tbaa !76
  br label %17

10:                                               ; preds = %5
  %11 = tail call i8* @getenv(i8* getelementptr inbounds ([14 x i8], [14 x i8]* @.str.8, i64 0, i64 0)) #12
  %12 = icmp eq i8* %11, null
  br i1 %12, label %15, label %13

13:                                               ; preds = %10
  %14 = tail call i32 @atoi(i8* nonnull %11) #12
  br label %15

15:                                               ; preds = %13, %10
  %16 = phi i32 [ %14, %13 ], [ -1, %10 ]
  store i32 %16, i32* @_ZN6Halide7Runtime8Internal17halide_gpu_deviceE, align 4, !tbaa !76
