; ModuleID = 'camera_pipe/samples/batch_1_0/0/camera_pipe_batch_01_sample_00.bc'
source_filename = "/home/sb54/Hydride/hexagon-benchmarks/halide_standalone_autoscheduler/src/runtime/posix_allocator.cpp"
target datalayout = "e-m:e-i64:64-f80:128-n8:16:32:64-S128"
target triple = "x86_64--linux-gnu"

%struct.timespec = type { i64, i64 }
%"struct.Halide::Runtime::Internal::work_queue_t" = type { %struct.halide_mutex, i32, i32, %"struct.Halide::Runtime::Internal::work"*, i32, i32, i32, [4 x i8], %struct.halide_mutex, %struct.halide_mutex, %struct.halide_mutex, i32, i32, [256 x %struct.halide_thread*], i8, i8, i32 }
%"struct.Halide::Runtime::Internal::work" = type { %struct.halide_parallel_task_t, i32 (i8*, i32, i8*)*, %"struct.Halide::Runtime::Internal::work"*, %"struct.Halide::Runtime::Internal::work"*, i32, %"struct.Halide::Runtime::Internal::work"*, i32, i8*, i32, i32, i32, i8 }
%struct.halide_parallel_task_t = type { i32 (i8*, i32, i32, i8*, i8*)*, i8*, i8*, %struct.halide_semaphore_acquire_t*, i32, i32, i32, i32, i8, [7 x i8] }
%struct.halide_semaphore_acquire_t = type { %struct.halide_semaphore_t*, i32, [4 x i8] }
%struct.halide_semaphore_t = type { [2 x i64] }
%struct.halide_mutex = type { [1 x i64] }
%struct.halide_thread = type opaque
%"class.Halide::Runtime::Internal::TraceBuffer" = type { %"class.Halide::Runtime::Internal::SharedExclusiveSpinLock", i32, i32, [1048576 x i8] }
%"class.Halide::Runtime::Internal::SharedExclusiveSpinLock" = type { i32 }
%struct.halide_trace_event_t = type <{ i8*, i8*, i32*, i8*, %struct.halide_type_t, i32, i32, i32, i32, [4 x i8] }>
%struct.halide_type_t = type { i8, i8, i16 }
%"struct.Halide::Runtime::Internal::CacheEntry" = type { %"struct.Halide::Runtime::Internal::CacheEntry"*, %"struct.Halide::Runtime::Internal::CacheEntry"*, %"struct.Halide::Runtime::Internal::CacheEntry"*, i8*, i64, i8*, i32, i32, i32, i32, %struct.halide_dimension_t*, %struct.halide_buffer_t* }
%struct.halide_dimension_t = type { i32, i32, i32, i32 }
%struct.halide_buffer_t = type { i64, %struct.halide_device_interface_t*, i8*, i64, %struct.halide_type_t, i32, %struct.halide_dimension_t*, i8* }
%struct.halide_device_interface_t = type { i32 (i8*, %struct.halide_buffer_t*, %struct.halide_device_interface_t*)*, i32 (i8*, %struct.halide_buffer_t*)*, i32 (i8*, %struct.halide_buffer_t*)*, void (i8*, %struct.halide_device_interface_t*)*, i32 (i8*, %struct.halide_buffer_t*)*, i32 (i8*, %struct.halide_buffer_t*, %struct.halide_device_interface_t*)*, i32 (i8*, %struct.halide_buffer_t*, %struct.halide_device_interface_t*)*, i32 (i8*, %struct.halide_buffer_t*)*, i32 (i8*, %struct.halide_buffer_t*, %struct.halide_device_interface_t*, %struct.halide_buffer_t*)*, i32 (i8*, %struct.halide_buffer_t*, %struct.halide_buffer_t*)*, i32 (i8*, %struct.halide_buffer_t*, i32, i32, %struct.halide_buffer_t*)*, i32 (i8*, %struct.halide_buffer_t*)*, i32 (i8*, %struct.halide_buffer_t*, i64, %struct.halide_device_interface_t*)*, i32 (i8*, %struct.halide_buffer_t*)*, i32 (i8*, i32*, i32*)*, %struct.halide_device_interface_impl_t* }
%struct.halide_device_interface_impl_t = type { void ()*, void ()*, i32 (i8*, %struct.halide_buffer_t*)*, i32 (i8*, %struct.halide_buffer_t*)*, i32 (i8*, %struct.halide_buffer_t*)*, i32 (i8*)*, i32 (i8*, %struct.halide_buffer_t*)*, i32 (i8*, %struct.halide_buffer_t*)*, i32 (i8*, %struct.halide_buffer_t*)*, i32 (i8*, %struct.halide_buffer_t*)*, i32 (i8*, %struct.halide_buffer_t*, %struct.halide_device_interface_t*, %struct.halide_buffer_t*)*, i32 (i8*, %struct.halide_buffer_t*, %struct.halide_buffer_t*)*, i32 (i8*, %struct.halide_buffer_t*, i32, i32, %struct.halide_buffer_t*)*, i32 (i8*, %struct.halide_buffer_t*)*, i32 (i8*, %struct.halide_buffer_t*, i64)*, i32 (i8*, %struct.halide_buffer_t*)* }
%struct.halide_profiler_state = type { %struct.halide_mutex, i32, i32, i32, i32, %struct.halide_profiler_pipeline_stats*, void (i32*, i32*)*, %struct.halide_thread* }
%struct.halide_profiler_pipeline_stats = type { i64, i64, i64, i64, i64, i64, i8*, %struct.halide_profiler_func_stats*, i8*, i32, i32, i32, i32, i32, [4 x i8] }
%struct.halide_profiler_func_stats = type { i64, i64, i64, i64, i64, i64, i64, i8*, i32, [4 x i8] }
%struct.halide_filter_argument_t = type { i8*, i32, i32, %struct.halide_type_t, %struct.halide_scalar_value_t*, %struct.halide_scalar_value_t*, %struct.halide_scalar_value_t*, %struct.halide_scalar_value_t*, i64** }
%struct.halide_scalar_value_t = type { %union.anon.27 }
%union.anon.27 = type { double }
%struct.halide_filter_metadata_t = type { i32, i32, %struct.halide_filter_argument_t*, i8*, i8* }
%"struct.Halide::Runtime::Internal::Synchronization::mutex_parking_control" = type { %"struct.Halide::Runtime::Internal::Synchronization::parking_control", i64* }
%"struct.Halide::Runtime::Internal::Synchronization::parking_control" = type { i1 (i8*, %"struct.Halide::Runtime::Internal::Synchronization::validate_action"*)*, void (i8*)*, i64 (i8*, i32, i1)*, void (i8*, %"struct.Halide::Runtime::Internal::Synchronization::validate_action"*, i1, i1)* }
%"struct.Halide::Runtime::Internal::Synchronization::validate_action" = type { i8, [7 x i8], i64 }
%"struct.Halide::Runtime::Internal::Synchronization::hash_bucket" = type { %"class.Halide::Runtime::Internal::Synchronization::word_lock", %"struct.Halide::Runtime::Internal::Synchronization::queue_data"*, %"struct.Halide::Runtime::Internal::Synchronization::queue_data"* }
%"class.Halide::Runtime::Internal::Synchronization::word_lock" = type { i64 }
%"struct.Halide::Runtime::Internal::Synchronization::queue_data" = type { %"struct.Halide::Runtime::Internal::Synchronization::thread_parker", i64, %"struct.Halide::Runtime::Internal::Synchronization::queue_data"*, i64 }
%"struct.Halide::Runtime::Internal::Synchronization::thread_parker" = type <{ %struct.pthread_mutex_t, %struct.pthread_mutex_t, i8, [7 x i8] }>
%struct.pthread_mutex_t = type { [8 x i64] }
%"struct.Halide::Runtime::Internal::Synchronization::word_lock_queue_data" = type { %"struct.Halide::Runtime::Internal::Synchronization::thread_parker", %"struct.Halide::Runtime::Internal::Synchronization::word_lock_queue_data"*, %"struct.Halide::Runtime::Internal::Synchronization::word_lock_queue_data"*, %"struct.Halide::Runtime::Internal::Synchronization::word_lock_queue_data"* }
%"struct.Halide::Runtime::Internal::Synchronization::wait_parking_control" = type { %"struct.Halide::Runtime::Internal::Synchronization::parking_control", i64*, %"class.Halide::Runtime::Internal::Synchronization::word_lock"* }
%"struct.Halide::Runtime::Internal::Synchronization::bucket_pair" = type { %"struct.Halide::Runtime::Internal::Synchronization::hash_bucket"*, %"struct.Halide::Runtime::Internal::Synchronization::hash_bucket"* }
%"struct.Halide::Runtime::Internal::spawned_thread" = type { void (i8*)*, i8*, i64 }
%"struct.Halide::Runtime::Internal::halide_tiff_header" = type <{ i16, i16, i32, i16, [15 x %"struct.Halide::Runtime::Internal::tiff_tag"], i32, [2 x i32], [2 x i32] }>
%"struct.Halide::Runtime::Internal::tiff_tag" = type { i16, i16, i32, %"class.Halide::Runtime::Internal::SharedExclusiveSpinLock" }
%"struct.Halide::Runtime::Internal::CacheBlockHeader" = type { %"struct.Halide::Runtime::Internal::CacheEntry"*, i32, [4 x i8] }
%"struct.Halide::Runtime::Internal::device_copy" = type { i64, i64, i64, [16 x i64], [16 x i64], [16 x i64], i64 }
%struct.buffer_t = type { i64, i8*, [4 x i32], [4 x i32], [4 x i32], i32, i8, i8, [2 x i8] }
%"struct.Halide::Runtime::Internal::old_dev_wrapper" = type { i64, %struct.halide_device_interface_t* }
%"struct.Halide::Runtime::Internal::CpuFeatures" = type { [1 x i64], [1 x i64] }
%closure_t.43 = type { i32, i32, i32, i32, i32, i8*, %struct.halide_buffer_t*, i16*, %struct.halide_buffer_t*, i16*, %struct.halide_buffer_t*, i8*, %struct.halide_buffer_t*, i8*, %struct.halide_buffer_t* }
%closure_t.42 = type { i32, i32, i32, float, i32, float, i16*, %struct.halide_buffer_t*, float*, %struct.halide_buffer_t*, float*, %struct.halide_buffer_t* }
%closure_t = type { i32, float, float, float, i32, i8*, %struct.halide_buffer_t* }
%struct.halide_pseudostack_slot_t = type { i8*, i64 }

@_ZN6Halide7Runtime8Internal13custom_mallocE = linkonce local_unnamed_addr global i8* (i8*, i64)* @halide_default_malloc, align 8
@_ZN6Halide7Runtime8Internal11custom_freeE = linkonce local_unnamed_addr global void (i8*, i8*)* @halide_default_free, align 8
@_ZN6Halide7Runtime8Internal13error_handlerE = linkonce local_unnamed_addr global void (i8*, i8*)* @halide_default_error, align 8
@.str = private unnamed_addr constant [8 x i8] c"Error: \00", align 1
@_ZN6Halide7Runtime8Internal12custom_printE = linkonce local_unnamed_addr global void (i8*, i8*)* @halide_default_print, align 8
@halide_reference_clock_inited = linkonce local_unnamed_addr global i8 0, align 1
@halide_reference_clock = linkonce global %struct.timespec zeroinitializer, align 8
@_ZN6Halide7Runtime8Internal15Synchronization13table_storageE = linkonce global [24576 x i8] zeroinitializer, align 1
@_ZN6Halide7Runtime8Internal10work_queueE = linkonce global %"struct.Halide::Runtime::Internal::work_queue_t" { %struct.halide_mutex zeroinitializer, i32 0, i32 0, %"struct.Halide::Runtime::Internal::work"* null, i32 0, i32 0, i32 0, [4 x i8] undef, %struct.halide_mutex zeroinitializer, %struct.halide_mutex zeroinitializer, %struct.halide_mutex zeroinitializer, i32 0, i32 0, [256 x %struct.halide_thread*] zeroinitializer, i8 0, i8 0, i32 0 }, align 8
@_ZN6Halide7Runtime8Internal14custom_do_taskE = linkonce local_unnamed_addr global i32 (i8*, i32 (i8*, i32, i8*)*, i32, i8*)* @halide_default_do_task, align 8
@_ZN6Halide7Runtime8Internal19custom_do_loop_taskE = linkonce local_unnamed_addr global i32 (i8*, i32 (i8*, i32, i32, i8*, i8*)*, i32, i32, i8*, i8*)* @halide_default_do_loop_task, align 8
@_ZN6Halide7Runtime8Internal17custom_do_par_forE = linkonce local_unnamed_addr global i32 (i8*, i32 (i8*, i32, i8*)*, i32, i32, i8*)* @halide_default_do_par_for, align 8
@.str.5 = private unnamed_addr constant [140 x i8] c"/home/sb54/Hydride/hexagon-benchmarks/halide_standalone_autoscheduler/src/runtime/synchronization_common.h:381 Assert failed: next != NULL\0A\00", align 1
@.str.6 = private unnamed_addr constant [138 x i8] c"/home/sb54/Hydride/hexagon-benchmarks/halide_standalone_autoscheduler/src/runtime/synchronization_common.h:1096 Assert failed: val & 0x1\0A\00", align 1
@.str.7 = private unnamed_addr constant [199 x i8] c"/home/sb54/Hydride/hexagon-benchmarks/halide_standalone_autoscheduler/src/runtime/thread_pool_common.h:151 Assert failed: bytes == limit && \22Logic error in thread pool work queue initialization.\5Cn\22\0A\00", align 1
@.str.3 = private unnamed_addr constant [276 x i8] c"/home/sb54/Hydride/hexagon-benchmarks/halide_standalone_autoscheduler/src/runtime/thread_pool_common.h:498 Assert failed: (min_threads <= ((task_parent->task.min_threads * task_parent->active_workers) - task_parent->threads_reserved)) && \22Logic error: thread over commit.\5Cn\22\0A\00", align 1
@.str.1 = private unnamed_addr constant [15 x i8] c"HL_NUM_THREADS\00", align 1
@.str.2 = private unnamed_addr constant [14 x i8] c"HL_NUMTHREADS\00", align 1
@_ZN6Halide7Runtime8Internal24custom_do_parallel_tasksE = linkonce local_unnamed_addr global i32 (i8*, i32, %struct.halide_parallel_task_t*, i8*)* @halide_default_do_parallel_tasks, align 8
@_ZN6Halide7Runtime8Internal21custom_semaphore_initE = linkonce local_unnamed_addr global i32 (%struct.halide_semaphore_t*, i32)* @halide_default_semaphore_init, align 8
@_ZN6Halide7Runtime8Internal28custom_semaphore_try_acquireE = linkonce local_unnamed_addr global i1 (%struct.halide_semaphore_t*, i32)* @halide_default_semaphore_try_acquire, align 8
@_ZN6Halide7Runtime8Internal24custom_semaphore_releaseE = linkonce local_unnamed_addr global i32 (%struct.halide_semaphore_t*, i32)* @halide_default_semaphore_release, align 8
@llvm.global_dtors = appending global [4 x { i32, void ()*, i8* }] [{ i32, void ()*, i8* } { i32 65535, void ()* @halide_thread_pool_cleanup, i8* null }, { i32, void ()*, i8* } { i32 65535, void ()* @halide_trace_cleanup, i8* null }, { i32, void ()*, i8* } { i32 65535, void ()* @halide_cache_cleanup, i8* null }, { i32, void ()*, i8* } { i32 65535, void ()* @halide_profiler_shutdown, i8* null }]
@.str.4 = private unnamed_addr constant [38 x i8] c"halide_set_num_threads: must be >= 0.\00", align 1
@_ZN6Halide7Runtime8Internal17custom_get_symbolE = linkonce local_unnamed_addr global i8* (i8*)* @halide_default_get_symbol, align 8
@_ZN6Halide7Runtime8Internal19custom_load_libraryE = linkonce local_unnamed_addr global i8* (i8*)* @halide_default_load_library, align 8
@_ZN6Halide7Runtime8Internal25custom_get_library_symbolE = linkonce local_unnamed_addr global i8* (i8*, i8*)* @halide_default_get_library_symbol, align 8
@_ZN6Halide7Runtime8Internal17halide_gpu_deviceE = linkonce local_unnamed_addr global i32 0, align 4
@_ZN6Halide7Runtime8Internal22halide_gpu_device_lockE = linkonce global i32 0, align 4
@_ZN6Halide7Runtime8Internal29halide_gpu_device_initializedE = linkonce local_unnamed_addr global i8 0, align 1
@.str.8 = private unnamed_addr constant [14 x i8] c"HL_GPU_DEVICE\00", align 1
@_ZN6Halide7Runtime8Internal19halide_trace_bufferE = linkonce local_unnamed_addr global %"class.Halide::Runtime::Internal::TraceBuffer"* null, align 8
@_ZN6Halide7Runtime8Internal17halide_trace_fileE = linkonce local_unnamed_addr global i32 -1, align 4
@_ZN6Halide7Runtime8Internal22halide_trace_file_lockE = linkonce global i32 0, align 4
@_ZN6Halide7Runtime8Internal29halide_trace_file_initializedE = linkonce local_unnamed_addr global i8 0, align 1
@_ZN6Halide7Runtime8Internal35halide_trace_file_internally_openedE = linkonce local_unnamed_addr global i8* null, align 8
@_ZN6Halide7Runtime8Internal19halide_custom_traceE = linkonce local_unnamed_addr global i32 (i8*, %struct.halide_trace_event_t*)* @halide_default_trace, align 8
@_ZZ20halide_default_traceE3ids = internal global i32 1, align 4
@.str.32 = private unnamed_addr constant [157 x i8] c"/home/sb54/Hydride/hexagon-benchmarks/halide_standalone_autoscheduler/src/runtime/tracing.cpp:115 Assert failed: success && \22Could not write to trace file\22\0A\00", align 1
@.str.31 = private unnamed_addr constant [133 x i8] c"/home/sb54/Hydride/hexagon-benchmarks/halide_standalone_autoscheduler/src/runtime/tracing.cpp:86 Assert failed: size <= buffer_size\0A\00", align 1
@.str.2.11 = private unnamed_addr constant [153 x i8] c"/home/sb54/Hydride/hexagon-benchmarks/halide_standalone_autoscheduler/src/runtime/tracing.cpp:215 Assert failed: print_bits <= 64 && \22Tracing bad type\22\0A\00", align 1
@_ZZ20halide_default_traceE11event_types = private unnamed_addr constant [11 x i8*] [i8* getelementptr inbounds ([5 x i8], [5 x i8]* @.str.3.12, i32 0, i32 0), i8* getelementptr inbounds ([6 x i8], [6 x i8]* @.str.4.13, i32 0, i32 0), i8* getelementptr inbounds ([18 x i8], [18 x i8]* @.str.5.14, i32 0, i32 0), i8* getelementptr inbounds ([16 x i8], [16 x i8]* @.str.6.15, i32 0, i32 0), i8* getelementptr inbounds ([8 x i8], [8 x i8]* @.str.7.16, i32 0, i32 0), i8* getelementptr inbounds ([12 x i8], [12 x i8]* @.str.8.17, i32 0, i32 0), i8* getelementptr inbounds ([8 x i8], [8 x i8]* @.str.9.18, i32 0, i32 0), i8* getelementptr inbounds ([12 x i8], [12 x i8]* @.str.10, i32 0, i32 0), i8* getelementptr inbounds ([15 x i8], [15 x i8]* @.str.11, i32 0, i32 0), i8* getelementptr inbounds ([13 x i8], [13 x i8]* @.str.12, i32 0, i32 0), i8* getelementptr inbounds ([4 x i8], [4 x i8]* @.str.13, i32 0, i32 0)], align 8
@.str.17 = private unnamed_addr constant [2 x i8] c"<\00", align 1
@.str.20 = private unnamed_addr constant [3 x i8] c">)\00", align 1
@.str.18 = private unnamed_addr constant [5 x i8] c">, <\00", align 1
@.str.22 = private unnamed_addr constant [5 x i8] c" = <\00", align 1
@.str.23 = private unnamed_addr constant [4 x i8] c" = \00", align 1
@.str.24 = private unnamed_addr constant [155 x i8] c"/home/sb54/Hydride/hexagon-benchmarks/halide_standalone_autoscheduler/src/runtime/tracing.cpp:284 Assert failed: print_bits >= 16 && \22Tracing a bad type\22\0A\00", align 1
@.str.25 = private unnamed_addr constant [2 x i8] c">\00", align 1
@.str.26 = private unnamed_addr constant [9 x i8] c" tag = \22\00", align 1
@.str.27 = private unnamed_addr constant [2 x i8] c"\22\00", align 1
@.str.3.12 = private unnamed_addr constant [5 x i8] c"Load\00", align 1
@.str.4.13 = private unnamed_addr constant [6 x i8] c"Store\00", align 1
@.str.5.14 = private unnamed_addr constant [18 x i8] c"Begin realization\00", align 1
@.str.6.15 = private unnamed_addr constant [16 x i8] c"End realization\00", align 1
@.str.7.16 = private unnamed_addr constant [8 x i8] c"Produce\00", align 1
@.str.8.17 = private unnamed_addr constant [12 x i8] c"End produce\00", align 1
@.str.9.18 = private unnamed_addr constant [8 x i8] c"Consume\00", align 1
@.str.10 = private unnamed_addr constant [12 x i8] c"End consume\00", align 1
@.str.11 = private unnamed_addr constant [15 x i8] c"Begin pipeline\00", align 1
@.str.12 = private unnamed_addr constant [13 x i8] c"End pipeline\00", align 1
@.str.13 = private unnamed_addr constant [4 x i8] c"Tag\00", align 1
@.str.28 = private unnamed_addr constant [14 x i8] c"HL_TRACE_FILE\00", align 1
@.str.29 = private unnamed_addr constant [3 x i8] c"ab\00", align 1
@.str.30 = private unnamed_addr constant [152 x i8] c"/home/sb54/Hydride/hexagon-benchmarks/halide_standalone_autoscheduler/src/runtime/tracing.cpp:345 Assert failed: file && \22Failed to open trace file\5Cn\22\0A\00", align 1
@_ZN6Halide7Runtime8Internal30pixel_type_to_tiff_sample_typeE = linkonce local_unnamed_addr global [10 x i16] [i16 3, i16 3, i16 1, i16 2, i16 1, i16 2, i16 1, i16 2, i16 1, i16 2], align 2
@_ZN6Halide7Runtime8Internal31pixel_type_to_matlab_class_codeE = linkonce local_unnamed_addr global [10 x i8] c"\07\06\09\08\0B\0A\0D\0C\0F\0E", align 1
@_ZN6Halide7Runtime8Internal30pixel_type_to_matlab_type_codeE = linkonce local_unnamed_addr global [10 x i8] c"\07\09\02\01\04\03\06\05\0D\0C", align 1
@.str.35 = private unnamed_addr constant [59 x i8] c"Can't debug_to_file a Func with more than four dimensions\0A\00", align 1
@.str.1.36 = private unnamed_addr constant [3 x i8] c"wb\00", align 1
@.str.2.37 = private unnamed_addr constant [6 x i8] c".tiff\00", align 1
@.str.3.38 = private unnamed_addr constant [5 x i8] c".tif\00", align 1
@.str.4.39 = private unnamed_addr constant [5 x i8] c".mat\00", align 1
@_ZZ20halide_debug_to_fileE6header = private unnamed_addr constant [129 x i8] c"MATLAB 5.0 MAT-file, produced by Halide                                                                                     \00\01IM\00", align 1
@.str.5.40 = private unnamed_addr constant [53 x i8] c"Can't debug_to_file to a .mat file greater than 4GB\0A\00", align 1
@.str.6.41 = private unnamed_addr constant [39 x i8] c"Unexpectedly large final_padding_bytes\00", align 1
@_ZN6Halide7Runtime8Internal16memoization_lockE = linkonce global %struct.halide_mutex zeroinitializer, align 8
@_ZN6Halide7Runtime8Internal13cache_entriesE = linkonce local_unnamed_addr global [256 x %"struct.Halide::Runtime::Internal::CacheEntry"*] zeroinitializer, align 8
@_ZN6Halide7Runtime8Internal18most_recently_usedE = linkonce local_unnamed_addr global %"struct.Halide::Runtime::Internal::CacheEntry"* null, align 8
@_ZN6Halide7Runtime8Internal19least_recently_usedE = linkonce local_unnamed_addr global %"struct.Halide::Runtime::Internal::CacheEntry"* null, align 8
@_ZN6Halide7Runtime8Internal14max_cache_sizeE = linkonce local_unnamed_addr global i64 1048576, align 8
@_ZN6Halide7Runtime8Internal18current_cache_sizeE = linkonce local_unnamed_addr global i64 0, align 8
@.str.4.43 = private unnamed_addr constant [136 x i8] c"/home/sb54/Hydride/hexagon-benchmarks/halide_standalone_autoscheduler/src/runtime/cache.cpp:273 Assert failed: prev_hash_entry != NULL\0A\00", align 1
@.str.5.44 = private unnamed_addr constant [139 x i8] c"/home/sb54/Hydride/hexagon-benchmarks/halide_standalone_autoscheduler/src/runtime/cache.cpp:360 Assert failed: entry->more_recent != NULL\0A\00", align 1
@.str.6.45 = private unnamed_addr constant [141 x i8] c"/home/sb54/Hydride/hexagon-benchmarks/halide_standalone_autoscheduler/src/runtime/cache.cpp:364 Assert failed: least_recently_used == entry\0A\00", align 1
@.str.7.46 = private unnamed_addr constant [139 x i8] c"/home/sb54/Hydride/hexagon-benchmarks/halide_standalone_autoscheduler/src/runtime/cache.cpp:367 Assert failed: entry->more_recent != NULL\0A\00", align 1
@.str.9.47 = private unnamed_addr constant [135 x i8] c"/home/sb54/Hydride/hexagon-benchmarks/halide_standalone_autoscheduler/src/runtime/cache.cpp:458 Assert failed: no_host_pointers_equal\0A\00", align 1
@.str.12.48 = private unnamed_addr constant [136 x i8] c"/home/sb54/Hydride/hexagon-benchmarks/halide_standalone_autoscheduler/src/runtime/cache.cpp:536 Assert failed: entry->in_use_count > 0\0A\00", align 1
@.str.57 = private unnamed_addr constant [5 x i8] c"-nan\00", align 1
@.str.1.58 = private unnamed_addr constant [4 x i8] c"nan\00", align 1
@.str.2.59 = private unnamed_addr constant [5 x i8] c"-inf\00", align 1
@.str.3.60 = private unnamed_addr constant [4 x i8] c"inf\00", align 1
@.str.4.61 = private unnamed_addr constant [14 x i8] c"-0.000000e+00\00", align 1
@.str.5.62 = private unnamed_addr constant [13 x i8] c"0.000000e+00\00", align 1
@.str.6.63 = private unnamed_addr constant [10 x i8] c"-0.000000\00", align 1
@.str.7.64 = private unnamed_addr constant [9 x i8] c"0.000000\00", align 1
@.str.8.65 = private unnamed_addr constant [2 x i8] c"-\00", align 1
@.str.10.67 = private unnamed_addr constant [3 x i8] c"e+\00", align 1
@.str.11.68 = private unnamed_addr constant [3 x i8] c"e-\00", align 1
@.str.12.71 = private unnamed_addr constant [17 x i8] c"0123456789abcdef\00", align 1
@.str.17.72 = private unnamed_addr constant [14 x i8] c"bad_type_code\00", align 1
@.str.16.73 = private unnamed_addr constant [7 x i8] c"handle\00", align 1
@.str.15.74 = private unnamed_addr constant [6 x i8] c"float\00", align 1
@.str.14.75 = private unnamed_addr constant [5 x i8] c"uint\00", align 1
@.str.13.76 = private unnamed_addr constant [4 x i8] c"int\00", align 1
@.str.18.77 = private unnamed_addr constant [2 x i8] c"x\00", align 1
@.str.19.78 = private unnamed_addr constant [5 x i8] c"NULL\00", align 1
@.str.20.79 = private unnamed_addr constant [8 x i8] c"buffer(\00", align 1
@.str.22.82 = private unnamed_addr constant [4 x i8] c", {\00", align 1
@.str.23.83 = private unnamed_addr constant [2 x i8] c"}\00", align 1
@_ZN6Halide7Runtime8Internal17device_copy_mutexE = linkonce global %struct.halide_mutex zeroinitializer, align 8
@.str.9.88 = private unnamed_addr constant [20 x i8] c"halide_copy_to_host\00", align 1
@.str.10.89 = private unnamed_addr constant [22 x i8] c"halide_copy_to_device\00", align 1
@.str.12.90 = private unnamed_addr constant [61 x i8] c"halide_copy_to_device does not support switching interfaces\0A\00", align 1
@.str.18.91 = private unnamed_addr constant [21 x i8] c"halide_device_malloc\00", align 1
@.str.20.92 = private unnamed_addr constant [59 x i8] c"halide_device_malloc doesn't support switching interfaces\0A\00", align 1
@.str.17.93 = private unnamed_addr constant [19 x i8] c"halide_device_sync\00", align 1
@.str.21.96 = private unnamed_addr constant [19 x i8] c"halide_device_free\00", align 1
@.str.22.97 = private unnamed_addr constant [140 x i8] c"/home/sb54/Hydride/hexagon-benchmarks/halide_standalone_autoscheduler/src/runtime/device_interface.cpp:247 Assert failed: buf->device == 0\0A\00", align 1
@.str.23.98 = private unnamed_addr constant [30 x i8] c"halide_device_and_host_malloc\00", align 1
@.str.25.99 = private unnamed_addr constant [68 x i8] c"halide_device_and_host_malloc doesn't support switching interfaces\0A\00", align 1
@.str.26.100 = private unnamed_addr constant [42 x i8] c"allocating host and device memory failed\0A\00", align 1
@.str.27.101 = private unnamed_addr constant [28 x i8] c"halide_device_and_host_free\00", align 1
@.str.28.102 = private unnamed_addr constant [140 x i8] c"/home/sb54/Hydride/hexagon-benchmarks/halide_standalone_autoscheduler/src/runtime/device_interface.cpp:312 Assert failed: buf->device == 0\0A\00", align 1
@.str.29.103 = private unnamed_addr constant [38 x i8] c"halide_default_device_and_host_malloc\00", align 1
@.str.30.104 = private unnamed_addr constant [36 x i8] c"halide_default_device_and_host_free\00", align 1
@.str.31.105 = private unnamed_addr constant [26 x i8] c"halide_device_wrap_native\00", align 1
@.str.32.106 = private unnamed_addr constant [64 x i8] c"halide_device_wrap_native doesn't support switching interfaces\0A\00", align 1
@.str.33.107 = private unnamed_addr constant [28 x i8] c"halide_device_detach_native\00", align 1
@.str.34.108 = private unnamed_addr constant [140 x i8] c"/home/sb54/Hydride/hexagon-benchmarks/halide_standalone_autoscheduler/src/runtime/device_interface.cpp:399 Assert failed: buf->device == 0\0A\00", align 1
@.str.35.109 = private unnamed_addr constant [34 x i8] c"halide_default_device_wrap_native\00", align 1
@.str.36 = private unnamed_addr constant [36 x i8] c"halide_default_device_detach_native\00", align 1
@.str.42 = private unnamed_addr constant [64 x i8] c"halide_buffer_copy does not support switching device interfaces\00", align 1
@.str.58 = private unnamed_addr constant [44 x i8] c"device_interface does not support cropping\0A\00", align 1
@.str.59 = private unnamed_addr constant [43 x i8] c"device_interface does not support slicing\0A\00", align 1
@.str.60 = private unnamed_addr constant [52 x i8] c"destination buffer already has a device allocation\0A\00", align 1
@.str.61 = private unnamed_addr constant [48 x i8] c"src and dst must have identical dimensionality\0A\00", align 1
@.str.64 = private unnamed_addr constant [52 x i8] c"dst must have exactly one fewer dimension than src\0A\00", align 1
@.str.112 = private unnamed_addr constant [41 x i8] c"Bounds inference call to external stage \00", align 1
@.str.1.113 = private unnamed_addr constant [27 x i8] c" returned non-zero value: \00", align 1
@.str.2.114 = private unnamed_addr constant [24 x i8] c"Call to external stage \00", align 1
@.str.3.115 = private unnamed_addr constant [18 x i8] c"Bounds given for \00", align 1
@.str.4.116 = private unnamed_addr constant [5 x i8] c" in \00", align 1
@.str.5.117 = private unnamed_addr constant [8 x i8] c" (from \00", align 1
@.str.6.118 = private unnamed_addr constant [5 x i8] c" to \00", align 1
@.str.7.119 = private unnamed_addr constant [38 x i8] c") do not cover required region (from \00", align 1
@.str.9.121 = private unnamed_addr constant [11 x i8] c" has type \00", align 1
@.str.10.122 = private unnamed_addr constant [38 x i8] c" but type of the buffer passed in is \00", align 1
@.str.11.123 = private unnamed_addr constant [31 x i8] c" requires a buffer of exactly \00", align 1
@.str.12.124 = private unnamed_addr constant [43 x i8] c" dimensions, but the buffer passed in has \00", align 1
@.str.13.125 = private unnamed_addr constant [12 x i8] c" dimensions\00", align 1
@.str.14.126 = private unnamed_addr constant [17 x i8] c" is accessed at \00", align 1
@.str.15.127 = private unnamed_addr constant [28 x i8] c", which is before the min (\00", align 1
@.str.16.128 = private unnamed_addr constant [16 x i8] c") in dimension \00", align 1
@.str.17.129 = private unnamed_addr constant [28 x i8] c", which is beyond the max (\00", align 1
@.str.18.130 = private unnamed_addr constant [29 x i8] c"Total allocation for buffer \00", align 1
@.str.19.131 = private unnamed_addr constant [5 x i8] c" is \00", align 1
@.str.20.132 = private unnamed_addr constant [37 x i8] c", which exceeds the maximum size of \00", align 1
@.str.21.133 = private unnamed_addr constant [24 x i8] c"The extents for buffer \00", align 1
@.str.22.134 = private unnamed_addr constant [12 x i8] c" dimension \00", align 1
@.str.23.135 = private unnamed_addr constant [15 x i8] c" is negative (\00", align 1
@.str.24.136 = private unnamed_addr constant [31 x i8] c"Product of extents for buffer \00", align 1
@.str.25.137 = private unnamed_addr constant [29 x i8] c"Applying the constraints on \00", align 1
@.str.26.138 = private unnamed_addr constant [54 x i8] c" to the required region made it smaller in dimension \00", align 1
@.str.27.139 = private unnamed_addr constant [3 x i8] c". \00", align 1
@.str.28.140 = private unnamed_addr constant [16 x i8] c"Required size: \00", align 1
@.str.29.141 = private unnamed_addr constant [19 x i8] c"Constrained size: \00", align 1
@.str.30.142 = private unnamed_addr constant [2 x i8] c".\00", align 1
@.str.31.143 = private unnamed_addr constant [22 x i8] c"Constraint violated: \00", align 1
@.str.32.144 = private unnamed_addr constant [3 x i8] c" (\00", align 1
@.str.33.145 = private unnamed_addr constant [6 x i8] c") == \00", align 1
@.str.34.146 = private unnamed_addr constant [11 x i8] c"Parameter \00", align 1
@.str.35.147 = private unnamed_addr constant [23 x i8] c" but must be at least \00", align 1
@.str.36.148 = private unnamed_addr constant [22 x i8] c" but must be at most \00", align 1
@.str.37 = private unnamed_addr constant [44 x i8] c"Out of memory (halide_malloc returned NULL)\00", align 1
@.str.38 = private unnamed_addr constant [17 x i8] c"Buffer argument \00", align 1
@.str.39 = private unnamed_addr constant [9 x i8] c" is NULL\00", align 1
@.str.40 = private unnamed_addr constant [25 x i8] c"Failed to dump function \00", align 1
@.str.41 = private unnamed_addr constant [10 x i8] c" to file \00", align 1
@.str.42.149 = private unnamed_addr constant [13 x i8] c" with error \00", align 1
@.str.43 = private unnamed_addr constant [51 x i8] c"Failed to upgrade buffer_t to halide_buffer_t for \00", align 1
@.str.45 = private unnamed_addr constant [53 x i8] c"Failed to downgrade halide_buffer_t to buffer_t for \00", align 1
@.str.46 = private unnamed_addr constant [21 x i8] c"The host pointer of \00", align 1
@.str.47 = private unnamed_addr constant [22 x i8] c" is not aligned to a \00", align 1
@.str.48 = private unnamed_addr constant [17 x i8] c" bytes boundary.\00", align 1
@.str.49 = private unnamed_addr constant [55 x i8] c" is null, but the pipeline will access it on the host.\00", align 1
@.str.50 = private unnamed_addr constant [30 x i8] c"The folded storage dimension \00", align 1
@.str.51 = private unnamed_addr constant [5 x i8] c" of \00", align 1
@.str.52 = private unnamed_addr constant [36 x i8] c" was accessed out of order by loop \00", align 1
@.str.53 = private unnamed_addr constant [23 x i8] c"Cannot fold dimension \00", align 1
@.str.54 = private unnamed_addr constant [36 x i8] c" because an extern stage accesses [\00", align 1
@.str.55 = private unnamed_addr constant [3 x i8] c", \00", align 1
@.str.56 = private unnamed_addr constant [3 x i8] c"],\00", align 1
@.str.57.150 = private unnamed_addr constant [47 x i8] c" which is outside the range currently valid: [\00", align 1
@.str.58.151 = private unnamed_addr constant [3 x i8] c"].\00", align 1
@.str.59.152 = private unnamed_addr constant [47 x i8] c" which wraps around the boundary of the fold, \00", align 1
@.str.60.153 = private unnamed_addr constant [30 x i8] c"which occurs at multiples of \00", align 1
@.str.61.154 = private unnamed_addr constant [18 x i8] c"The fold factor (\00", align 1
@.str.62 = private unnamed_addr constant [16 x i8] c") of dimension \00", align 1
@.str.63 = private unnamed_addr constant [61 x i8] c" is too small to store the required region accessed by loop \00", align 1
@.str.64.155 = private unnamed_addr constant [3 x i8] c").\00", align 1
@.str.65 = private unnamed_addr constant [22 x i8] c"Requirement Failed: (\00", align 1
@.str.67 = private unnamed_addr constant [59 x i8] c"A schedule specialized with specialize_fail() was chosen: \00", align 1
@.str.68 = private unnamed_addr constant [55 x i8] c"Buffer has a non-zero device but no device interface.\0A\00", align 1
@.str.69 = private unnamed_addr constant [56 x i8] c"Buffer has a non-null devie_interface but device is 0.\0A\00", align 1
@.str.70 = private unnamed_addr constant [49 x i8] c"Buffer has both host and device dirty bits set.\0A\00", align 1
@.str.71 = private unnamed_addr constant [26 x i8] c"Buffer pointer passed to \00", align 1
@.str.72 = private unnamed_addr constant [11 x i8] c" is null.\0A\00", align 1
@.str.73 = private unnamed_addr constant [37 x i8] c"Integer division or modulo by zero.\0A\00", align 1
@.str.164 = private unnamed_addr constant [1 x i8] zeroinitializer, align 1
@.str.1.165 = private unnamed_addr constant [44 x i8] c"elem_size of buffer was not in [1, 2, 4, 8]\00", align 1
@.str.2.166 = private unnamed_addr constant [33 x i8] c"buffer has incorrect elem_size (\00", align 1
@.str.3.167 = private unnamed_addr constant [3 x i8] c") \00", align 1
@.str.4.168 = private unnamed_addr constant [20 x i8] c"for expected type (\00", align 1
@.str.5.169 = private unnamed_addr constant [2 x i8] c")\00", align 1
@.str.8.170 = private unnamed_addr constant [35 x i8] c"Printer buffer allocation failed.\0A\00", align 1
@.str.6.171 = private unnamed_addr constant [65 x i8] c"Internal error: buffer host mismatch in halide_upgrade_buffer_t.\00", align 1
@.str.7.172 = private unnamed_addr constant [37 x i8] c"buffer has more than four dimensions\00", align 1
@.str.30.174 = private unnamed_addr constant [7 x i8] c"<NULL>\00", align 1
@.str.7.175 = private unnamed_addr constant [2 x i8] c"\0A\00", align 1
@.str.8.176 = private unnamed_addr constant [14 x i8] c" total time: \00", align 1
@.str.9.177 = private unnamed_addr constant [4 x i8] c" ms\00", align 1
@.str.10.178 = private unnamed_addr constant [12 x i8] c"  samples: \00", align 1
@.str.11.179 = private unnamed_addr constant [9 x i8] c"  runs: \00", align 1
@.str.12.180 = private unnamed_addr constant [13 x i8] c"  time/run: \00", align 1
@.str.13.181 = private unnamed_addr constant [5 x i8] c" ms\0A\00", align 1
@.str.14.182 = private unnamed_addr constant [24 x i8] c" average threads used: \00", align 1
@.str.15.183 = private unnamed_addr constant [20 x i8] c" heap allocations: \00", align 1
@.str.16.184 = private unnamed_addr constant [20 x i8] c"  peak heap usage: \00", align 1
@.str.17.185 = private unnamed_addr constant [8 x i8] c" bytes\0A\00", align 1
@.str.18.186 = private unnamed_addr constant [3 x i8] c"  \00", align 1
@.str.19.187 = private unnamed_addr constant [3 x i8] c": \00", align 1
@.str.20.188 = private unnamed_addr constant [2 x i8] c" \00", align 1
@.str.21.189 = private unnamed_addr constant [3 x i8] c"ms\00", align 1
@.str.22.190 = private unnamed_addr constant [2 x i8] c"(\00", align 1
@.str.23.191 = private unnamed_addr constant [3 x i8] c"%)\00", align 1
@.str.24.192 = private unnamed_addr constant [10 x i8] c"threads: \00", align 1
@.str.25.193 = private unnamed_addr constant [8 x i8] c" peak: \00", align 1
@.str.26.194 = private unnamed_addr constant [7 x i8] c" num: \00", align 1
@.str.27.195 = private unnamed_addr constant [7 x i8] c" avg: \00", align 1
@.str.28.196 = private unnamed_addr constant [9 x i8] c" stack: \00", align 1
@_ZZ25halide_profiler_get_stateE1s = internal global %struct.halide_profiler_state { %struct.halide_mutex zeroinitializer, i32 1, i32 0, i32 0, i32 0, %struct.halide_profiler_pipeline_stats* null, void (i32*, i32*)* null, %struct.halide_thread* null }, align 8
@.str.197 = private unnamed_addr constant [131 x i8] c"/home/sb54/Hydride/hexagon-benchmarks/halide_standalone_autoscheduler/src/runtime/profiler.cpp:201 Assert failed: p_stats != NULL\0A\00", align 1
@.str.1.198 = private unnamed_addr constant [131 x i8] c"/home/sb54/Hydride/hexagon-benchmarks/halide_standalone_autoscheduler/src/runtime/profiler.cpp:228 Assert failed: p_stats != NULL\0A\00", align 1
@.str.2.199 = private unnamed_addr constant [128 x i8] c"/home/sb54/Hydride/hexagon-benchmarks/halide_standalone_autoscheduler/src/runtime/profiler.cpp:229 Assert failed: func_id >= 0\0A\00", align 1
@.str.3.200 = private unnamed_addr constant [144 x i8] c"/home/sb54/Hydride/hexagon-benchmarks/halide_standalone_autoscheduler/src/runtime/profiler.cpp:230 Assert failed: func_id < p_stats->num_funcs\0A\00", align 1
@.str.4.201 = private unnamed_addr constant [131 x i8] c"/home/sb54/Hydride/hexagon-benchmarks/halide_standalone_autoscheduler/src/runtime/profiler.cpp:264 Assert failed: p_stats != NULL\0A\00", align 1
@.str.5.202 = private unnamed_addr constant [128 x i8] c"/home/sb54/Hydride/hexagon-benchmarks/halide_standalone_autoscheduler/src/runtime/profiler.cpp:265 Assert failed: func_id >= 0\0A\00", align 1
@.str.6.203 = private unnamed_addr constant [144 x i8] c"/home/sb54/Hydride/hexagon-benchmarks/halide_standalone_autoscheduler/src/runtime/profiler.cpp:266 Assert failed: func_id < p_stats->num_funcs\0A\00", align 1
@_ZN6Halide7Runtime8Internal30custom_can_use_target_featuresE = linkonce local_unnamed_addr global i32 (i32, i64*)* @halide_default_can_use_target_features, align 8
@_ZZ38halide_default_can_use_target_featuresE11initialized = internal unnamed_addr global i1 false, align 1
@_ZZ38halide_default_can_use_target_featuresE20cpu_features_storage = internal global [2 x i64] zeroinitializer, align 8
@.str.208 = private unnamed_addr constant [81 x i8] c"Internal error: wrong structure size passed to halide_can_use_target_features()\0A\00", align 1
@str = private constant [10 x i8] c"processed\00", align 32
@str.213 = private constant [12 x i8] c"matrix_7000\00", align 32
@str.214 = private constant [12 x i8] c"matrix_3200\00", align 32
@str.215 = private constant [6 x i8] c"input\00", align 32
@str.216 = private constant [19 x i8] c"Input buffer input\00", align 32
@str.217 = private constant [25 x i8] c"Input buffer matrix_3200\00", align 32
@str.218 = private constant [25 x i8] c"Input buffer matrix_7000\00", align 32
@str.219 = private constant [24 x i8] c"Output buffer processed\00", align 32
@str.220 = private constant [15 x i8] c"input.stride.0\00", align 32
@str.221 = private constant [2 x i8] c"1\00", align 32
@str.222 = private constant [12 x i8] c"input.min.0\00", align 32
@str.223 = private constant [2 x i8] c"0\00", align 32
@str.224 = private constant [15 x i8] c"input.extent.0\00", align 32
@str.225 = private constant [5 x i8] c"2592\00", align 32
@str.226 = private constant [12 x i8] c"input.min.1\00", align 32
@str.227 = private constant [15 x i8] c"input.extent.1\00", align 32
@str.228 = private constant [5 x i8] c"1968\00", align 32
@str.229 = private constant [21 x i8] c"matrix_3200.stride.0\00", align 32
@str.230 = private constant [21 x i8] c"matrix_7000.stride.0\00", align 32
@str.231 = private constant [19 x i8] c"processed.stride.0\00", align 32
@str.232 = private constant [3 x i8] c"v1\00", align 32
@str.233 = private constant [3 x i8] c"v0\00", align 32
@str.234 = private constant [3 x i8] c"v2\00", align 32
@str.235 = private constant [3 x i8] c"f4\00", align 32
@str.236 = private constant [3 x i8] c"f3\00", align 32
@0 = private constant i64 0
@1 = private constant i64 2592
@2 = private constant i64 0
@3 = private constant i64 1968
@4 = private constant [4 x i64*] [i64* @0, i64* @1, i64* @2, i64* @3]
@5 = private constant i64 0
@6 = private constant i64 4
@7 = private constant i64 0
@8 = private constant i64 3
@9 = private constant [4 x i64*] [i64* @5, i64* @6, i64* @7, i64* @8]
@10 = private constant i64 0
@11 = private constant i64 4
@12 = private constant i64 0
@13 = private constant i64 3
@14 = private constant [4 x i64*] [i64* @10, i64* @11, i64* @12, i64* @13]
@str.237 = private constant [11 x i8] c"color_temp\00", align 32
@15 = private constant [2 x float] [float 3.200000e+03, float 0.000000e+00], align 8
@str.238 = private constant [6 x i8] c"gamma\00", align 32
@16 = private constant [2 x float] [float 2.000000e+00, float 0.000000e+00], align 8
@str.239 = private constant [9 x i8] c"contrast\00", align 32
@17 = private constant [2 x float] [float 5.000000e+01, float 0.000000e+00], align 8
@str.240 = private constant [17 x i8] c"sharpen_strength\00", align 32
@18 = private constant [2 x float] [float 1.000000e+00, float 0.000000e+00], align 8
@str.241 = private constant [11 x i8] c"blackLevel\00", align 32
@19 = private constant [2 x i32] [i32 25, i32 0], align 8
@str.242 = private constant [11 x i8] c"whiteLevel\00", align 32
@20 = private constant [2 x i32] [i32 1023, i32 0], align 8
@21 = private constant i64 0
@22 = private constant i64 2560
@23 = private constant i64 0
@24 = private constant i64 1920
@25 = private constant i64 0
@26 = private constant i64 3
@27 = private constant [6 x i64*] [i64* @21, i64* @22, i64* @23, i64* @24, i64* @25, i64* @26]
@28 = private constant [10 x %struct.halide_filter_argument_t] [%struct.halide_filter_argument_t { i8* getelementptr inbounds ([6 x i8], [6 x i8]* @str.215, i32 0, i32 0), i32 1, i32 2, %struct.halide_type_t { i8 1, i8 16, i16 1 }, %struct.halide_scalar_value_t* null, %struct.halide_scalar_value_t* null, %struct.halide_scalar_value_t* null, %struct.halide_scalar_value_t* null, i64** getelementptr inbounds ([4 x i64*], [4 x i64*]* @4, i32 0, i32 0) }, %struct.halide_filter_argument_t { i8* getelementptr inbounds ([12 x i8], [12 x i8]* @str.214, i32 0, i32 0), i32 1, i32 2, %struct.halide_type_t { i8 2, i8 32, i16 1 }, %struct.halide_scalar_value_t* null, %struct.halide_scalar_value_t* null, %struct.halide_scalar_value_t* null, %struct.halide_scalar_value_t* null, i64** getelementptr inbounds ([4 x i64*], [4 x i64*]* @9, i32 0, i32 0) }, %struct.halide_filter_argument_t { i8* getelementptr inbounds ([12 x i8], [12 x i8]* @str.213, i32 0, i32 0), i32 1, i32 2, %struct.halide_type_t { i8 2, i8 32, i16 1 }, %struct.halide_scalar_value_t* null, %struct.halide_scalar_value_t* null, %struct.halide_scalar_value_t* null, %struct.halide_scalar_value_t* null, i64** getelementptr inbounds ([4 x i64*], [4 x i64*]* @14, i32 0, i32 0) }, %struct.halide_filter_argument_t { i8* getelementptr inbounds ([11 x i8], [11 x i8]* @str.237, i32 0, i32 0), i32 0, i32 0, %struct.halide_type_t { i8 2, i8 32, i16 1 }, %struct.halide_scalar_value_t* null, %struct.halide_scalar_value_t* null, %struct.halide_scalar_value_t* null, %struct.halide_scalar_value_t* bitcast ([2 x float]* @15 to %struct.halide_scalar_value_t*), i64** null }, %struct.halide_filter_argument_t { i8* getelementptr inbounds ([6 x i8], [6 x i8]* @str.238, i32 0, i32 0), i32 0, i32 0, %struct.halide_type_t { i8 2, i8 32, i16 1 }, %struct.halide_scalar_value_t* null, %struct.halide_scalar_value_t* null, %struct.halide_scalar_value_t* null, %struct.halide_scalar_value_t* bitcast ([2 x float]* @16 to %struct.halide_scalar_value_t*), i64** null }, %struct.halide_filter_argument_t { i8* getelementptr inbounds ([9 x i8], [9 x i8]* @str.239, i32 0, i32 0), i32 0, i32 0, %struct.halide_type_t { i8 2, i8 32, i16 1 }, %struct.halide_scalar_value_t* null, %struct.halide_scalar_value_t* null, %struct.halide_scalar_value_t* null, %struct.halide_scalar_value_t* bitcast ([2 x float]* @17 to %struct.halide_scalar_value_t*), i64** null }, %struct.halide_filter_argument_t { i8* getelementptr inbounds ([17 x i8], [17 x i8]* @str.240, i32 0, i32 0), i32 0, i32 0, %struct.halide_type_t { i8 2, i8 32, i16 1 }, %struct.halide_scalar_value_t* null, %struct.halide_scalar_value_t* null, %struct.halide_scalar_value_t* null, %struct.halide_scalar_value_t* bitcast ([2 x float]* @18 to %struct.halide_scalar_value_t*), i64** null }, %struct.halide_filter_argument_t { i8* getelementptr inbounds ([11 x i8], [11 x i8]* @str.241, i32 0, i32 0), i32 0, i32 0, %struct.halide_type_t { i8 0, i8 32, i16 1 }, %struct.halide_scalar_value_t* null, %struct.halide_scalar_value_t* null, %struct.halide_scalar_value_t* null, %struct.halide_scalar_value_t* bitcast ([2 x i32]* @19 to %struct.halide_scalar_value_t*), i64** null }, %struct.halide_filter_argument_t { i8* getelementptr inbounds ([11 x i8], [11 x i8]* @str.242, i32 0, i32 0), i32 0, i32 0, %struct.halide_type_t { i8 0, i8 32, i16 1 }, %struct.halide_scalar_value_t* null, %struct.halide_scalar_value_t* null, %struct.halide_scalar_value_t* null, %struct.halide_scalar_value_t* bitcast ([2 x i32]* @20 to %struct.halide_scalar_value_t*), i64** null }, %struct.halide_filter_argument_t { i8* getelementptr inbounds ([10 x i8], [10 x i8]* @str, i32 0, i32 0), i32 2, i32 3, %struct.halide_type_t { i8 1, i8 8, i16 1 }, %struct.halide_scalar_value_t* null, %struct.halide_scalar_value_t* null, %struct.halide_scalar_value_t* null, %struct.halide_scalar_value_t* null, i64** getelementptr inbounds ([6 x i64*], [6 x i64*]* @27, i32 0, i32 0) }]
@str.243 = private constant [112 x i8] c"x86-64-linux-avx-avx2-avx512-avx512_skylake-disable_llvm_loop_unroll-disable_llvm_loop_vectorize-f16c-fma-sse41\00", align 64
@str.244 = private constant [31 x i8] c"camera_pipe_batch_01_sample_00\00", align 32
@camera_pipe_batch_01_sample_00_metadata_storage = private constant %struct.halide_filter_metadata_t { i32 1, i32 10, %struct.halide_filter_argument_t* getelementptr inbounds ([10 x %struct.halide_filter_argument_t], [10 x %struct.halide_filter_argument_t]* @28, i32 0, i32 0), i8* getelementptr inbounds ([112 x i8], [112 x i8]* @str.243, i32 0, i32 0), i8* getelementptr inbounds ([31 x i8], [31 x i8]* @str.244, i32 0, i32 0) }
@switch.table.halide_type_to_string = private unnamed_addr constant [4 x i8*] [i8* getelementptr inbounds ([4 x i8], [4 x i8]* @.str.13.76, i64 0, i64 0), i8* getelementptr inbounds ([5 x i8], [5 x i8]* @.str.14.75, i64 0, i64 0), i8* getelementptr inbounds ([6 x i8], [6 x i8]* @.str.15.74, i64 0, i64 0), i8* getelementptr inbounds ([7 x i8], [7 x i8]* @.str.16.73, i64 0, i64 0)]

; Function Attrs: nounwind
define weak i8* @halide_default_malloc(i8*, i64) #0 {
  %3 = add i64 %1, 64
  %4 = tail call i8* @malloc(i64 %3) #13
  %5 = icmp eq i8* %4, null
  br i1 %5, label %13, label %6

; <label>:6:                                      ; preds = %2
  %7 = ptrtoint i8* %4 to i64
  %8 = add i64 %7, 71
  %9 = and i64 %8, -64
  %10 = inttoptr i64 %9 to i8*
  %11 = inttoptr i64 %9 to i8**
  %12 = getelementptr inbounds i8*, i8** %11, i64 -1
  store i8* %4, i8** %12, align 8, !tbaa !7
  br label %13

; <label>:13:                                     ; preds = %6, %2
  %14 = phi i8* [ %10, %6 ], [ null, %2 ]
  ret i8* %14
}

; Function Attrs: nounwind
declare noalias i8* @malloc(i64) local_unnamed_addr #1

; Function Attrs: nounwind
define weak void @halide_default_free(i8*, i8*) #0 {
  %3 = getelementptr inbounds i8, i8* %1, i64 -8
  %4 = bitcast i8* %3 to i8**
  %5 = load i8*, i8** %4, align 8, !tbaa !7
  tail call void @free(i8* %5) #13
  ret void
}

; Function Attrs: nounwind
declare void @free(i8* nocapture) local_unnamed_addr #1

; Function Attrs: norecurse nounwind
define weak i8* (i8*, i64)* @halide_set_custom_malloc(i8* (i8*, i64)*) local_unnamed_addr #2 {
  %2 = load i8* (i8*, i64)*, i8* (i8*, i64)** @_ZN6Halide7Runtime8Internal13custom_mallocE, align 8, !tbaa !7
  store i8* (i8*, i64)* %0, i8* (i8*, i64)** @_ZN6Halide7Runtime8Internal13custom_mallocE, align 8, !tbaa !7
  ret i8* (i8*, i64)* %2
}

; Function Attrs: norecurse nounwind
define weak void (i8*, i8*)* @halide_set_custom_free(void (i8*, i8*)*) local_unnamed_addr #2 {
  %2 = load void (i8*, i8*)*, void (i8*, i8*)** @_ZN6Halide7Runtime8Internal11custom_freeE, align 8, !tbaa !7
  store void (i8*, i8*)* %0, void (i8*, i8*)** @_ZN6Halide7Runtime8Internal11custom_freeE, align 8, !tbaa !7
  ret void (i8*, i8*)* %2
}

; Function Attrs: nounwind
define weak i8* @halide_malloc(i8*, i64) local_unnamed_addr #0 {
  %3 = load i8* (i8*, i64)*, i8* (i8*, i64)** @_ZN6Halide7Runtime8Internal13custom_mallocE, align 8, !tbaa !7
  %4 = tail call i8* %3(i8* %0, i64 %1) #13
  ret i8* %4
}

; Function Attrs: nounwind
define weak void @halide_free(i8*, i8*) local_unnamed_addr #0 {
  %3 = load void (i8*, i8*)*, void (i8*, i8*)** @_ZN6Halide7Runtime8Internal11custom_freeE, align 8, !tbaa !7
  tail call void %3(i8* %0, i8* %1) #13
  ret void
}

; Function Attrs: nounwind
define weak void @halide_default_error(i8*, i8*) #0 {
  %3 = alloca [4096 x i8], align 1
  %4 = getelementptr inbounds [4096 x i8], [4096 x i8]* %3, i64 0, i64 0
  call void @llvm.lifetime.start.p0i8(i64 4096, i8* nonnull %4) #11
  %5 = getelementptr inbounds [4096 x i8], [4096 x i8]* %3, i64 0, i64 4094
  %6 = call i8* @halide_string_to_string(i8* nonnull %4, i8* nonnull %5, i8* getelementptr inbounds ([8 x i8], [8 x i8]* @.str, i64 0, i64 0)) #13
  %7 = call i8* @halide_string_to_string(i8* %6, i8* nonnull %5, i8* %1) #13
  %8 = getelementptr inbounds i8, i8* %7, i64 -1
  %9 = load i8, i8* %8, align 1, !tbaa !11
  %10 = icmp eq i8 %9, 10
  br i1 %10, label %13, label %11

; <label>:11:                                     ; preds = %2
  store i8 10, i8* %7, align 1, !tbaa !11
  %12 = getelementptr inbounds i8, i8* %7, i64 1
  store i8 0, i8* %12, align 1, !tbaa !11
  br label %13

; <label>:13:                                     ; preds = %11, %2
  %14 = phi i8* [ %12, %11 ], [ %7, %2 ]
  %15 = ptrtoint i8* %14 to i64
  %16 = ptrtoint [4096 x i8]* %3 to i64
  %17 = sub i64 1, %16
  %18 = add i64 %17, %15
  call void @halide_msan_annotate_memory_is_initialized(i8* %0, i8* nonnull %4, i64 %18) #13
  call void @halide_print(i8* %0, i8* nonnull %4) #13
  call void @abort() #13
  call void @llvm.lifetime.end.p0i8(i64 4096, i8* nonnull %4) #11
  ret void
}

; Function Attrs: argmemonly nounwind
declare void @llvm.lifetime.start.p0i8(i64, i8* nocapture) #3

; Function Attrs: argmemonly nounwind
declare void @llvm.lifetime.end.p0i8(i64, i8* nocapture) #3

; Function Attrs: nounwind
define weak void @halide_error(i8*, i8*) local_unnamed_addr #0 {
  %3 = load void (i8*, i8*)*, void (i8*, i8*)** @_ZN6Halide7Runtime8Internal13error_handlerE, align 8, !tbaa !7
  tail call void %3(i8* %0, i8* %1) #13
  ret void
}

; Function Attrs: norecurse nounwind
define weak void (i8*, i8*)* @halide_set_error_handler(void (i8*, i8*)*) local_unnamed_addr #2 {
  %2 = load void (i8*, i8*)*, void (i8*, i8*)** @_ZN6Halide7Runtime8Internal13error_handlerE, align 8, !tbaa !7
  store void (i8*, i8*)* %0, void (i8*, i8*)** @_ZN6Halide7Runtime8Internal13error_handlerE, align 8, !tbaa !7
  ret void (i8*, i8*)* %2
}

; Function Attrs: nounwind
define weak void @halide_print(i8*, i8*) local_unnamed_addr #0 {
  %3 = load void (i8*, i8*)*, void (i8*, i8*)** @_ZN6Halide7Runtime8Internal12custom_printE, align 8, !tbaa !7
  tail call void %3(i8* %0, i8* %1) #13
  ret void
}

; Function Attrs: norecurse nounwind
define weak void (i8*, i8*)* @halide_set_custom_print(void (i8*, i8*)*) local_unnamed_addr #2 {
  %2 = load void (i8*, i8*)*, void (i8*, i8*)** @_ZN6Halide7Runtime8Internal12custom_printE, align 8, !tbaa !7
  store void (i8*, i8*)* %0, void (i8*, i8*)** @_ZN6Halide7Runtime8Internal12custom_printE, align 8, !tbaa !7
  ret void (i8*, i8*)* %2
}

; Function Attrs: nounwind
define weak i32 @halide_start_clock(i8*) local_unnamed_addr #0 {
  %2 = load i8, i8* @halide_reference_clock_inited, align 1, !tbaa !12, !range !14
  %3 = icmp eq i8 %2, 0
  br i1 %3, label %4, label %6

; <label>:4:                                      ; preds = %1
  %5 = tail call i32 (i32, ...) @syscall(i32 228, i32 0, %struct.timespec* nonnull @halide_reference_clock) #13
  store i8 1, i8* @halide_reference_clock_inited, align 1, !tbaa !12
  br label %6

; <label>:6:                                      ; preds = %4, %1
  ret i32 0
}

declare i32 @syscall(i32, ...) local_unnamed_addr #4

; Function Attrs: nounwind
define weak i64 @halide_current_time_ns(i8*) local_unnamed_addr #0 {
  %2 = alloca <2 x i64>, align 16
  %3 = bitcast <2 x i64>* %2 to i8*
  call void @llvm.lifetime.start.p0i8(i64 16, i8* nonnull %3) #11
  %4 = call i32 (i32, ...) @syscall(i32 228, i32 0, <2 x i64>* nonnull %2) #13
  %5 = load <2 x i64>, <2 x i64>* %2, align 16, !tbaa !15
  %6 = load <2 x i64>, <2 x i64>* bitcast (%struct.timespec* @halide_reference_clock to <2 x i64>*), align 8, !tbaa !15
  %7 = sub <2 x i64> %5, %6
  %8 = extractelement <2 x i64> %7, i32 0
  %9 = mul nsw i64 %8, 1000000000
  %10 = extractelement <2 x i64> %7, i32 1
  %11 = add nsw i64 %9, %10
  call void @llvm.lifetime.end.p0i8(i64 16, i8* nonnull %3) #11
  ret i64 %11
}

; Function Attrs: nounwind
define weak void @halide_sleep_ms(i8*, i32) local_unnamed_addr #0 {
  %3 = mul nsw i32 %1, 1000
  %4 = tail call i32 @usleep(i32 %3) #13
  ret void
}

declare i32 @usleep(i32) local_unnamed_addr #4

; Function Attrs: nounwind
define weak void @halide_default_print(i8*, i8*) #0 {
  %3 = tail call i64 @strlen(i8* %1) #13
  %4 = tail call i64 @write(i32 1, i8* %1, i64 %3) #13
  ret void
}

; Function Attrs: argmemonly nounwind readonly
declare i64 @strlen(i8* nocapture) local_unnamed_addr #5

declare i64 @write(i32, i8* nocapture readonly, i64) local_unnamed_addr #4

; Function Attrs: nounwind
define weak i32 @halide_host_cpu_count() local_unnamed_addr #0 {
  %1 = tail call i64 @sysconf(i32 84) #13
  %2 = trunc i64 %1 to i32
  ret i32 %2
}

declare i64 @sysconf(i32) local_unnamed_addr #4

; Function Attrs: nounwind
define linkonce void @_ZN6Halide7Runtime8Internal19halide_thread_yieldEv() local_unnamed_addr #0 {
  %1 = tail call i32 @sched_yield() #13
  ret void
}

declare i32 @sched_yield() local_unnamed_addr #4

; Function Attrs: nounwind
define weak i32 @halide_default_do_task(i8*, i32 (i8*, i32, i8*)*, i32, i8*) #0 {
  %5 = tail call i32 %1(i8* %0, i32 %2, i8* %3) #13
  ret i32 %5
}

; Function Attrs: nounwind
define weak i32 @halide_default_do_loop_task(i8*, i32 (i8*, i32, i32, i8*, i8*)*, i32, i32, i8*, i8*) #0 {
  %7 = tail call i32 %1(i8* %0, i32 %2, i32 %3, i8* %4, i8* %5) #13
  ret i32 %7
}

; Function Attrs: nounwind
define weak i32 @halide_default_do_par_for(i8*, i32 (i8*, i32, i8*)*, i32, i32, i8*) #0 {
  %6 = alloca %"struct.Halide::Runtime::Internal::work", align 8
  %7 = icmp slt i32 %3, 1
  br i1 %7, label %28, label %8

; <label>:8:                                      ; preds = %5
  %9 = bitcast %"struct.Halide::Runtime::Internal::work"* %6 to i8*
  call void @llvm.lifetime.start.p0i8(i64 128, i8* nonnull %9) #11
  %10 = getelementptr inbounds %"struct.Halide::Runtime::Internal::work", %"struct.Halide::Runtime::Internal::work"* %6, i64 0, i32 0, i32 0
  store i32 (i8*, i32, i32, i8*, i8*)* null, i32 (i8*, i32, i32, i8*, i8*)** %10, align 8, !tbaa !17
  %11 = getelementptr inbounds %"struct.Halide::Runtime::Internal::work", %"struct.Halide::Runtime::Internal::work"* %6, i64 0, i32 0, i32 5
  store i32 %2, i32* %11, align 4, !tbaa !21
  %12 = getelementptr inbounds %"struct.Halide::Runtime::Internal::work", %"struct.Halide::Runtime::Internal::work"* %6, i64 0, i32 0, i32 6
  store i32 %3, i32* %12, align 8, !tbaa !22
  %13 = getelementptr inbounds %"struct.Halide::Runtime::Internal::work", %"struct.Halide::Runtime::Internal::work"* %6, i64 0, i32 0, i32 8
  store i8 0, i8* %13, align 8, !tbaa !23
  %14 = getelementptr inbounds %"struct.Halide::Runtime::Internal::work", %"struct.Halide::Runtime::Internal::work"* %6, i64 0, i32 0, i32 3
  store %struct.halide_semaphore_acquire_t* null, %struct.halide_semaphore_acquire_t** %14, align 8, !tbaa !24
  %15 = getelementptr inbounds %"struct.Halide::Runtime::Internal::work", %"struct.Halide::Runtime::Internal::work"* %6, i64 0, i32 0, i32 4
  store i32 0, i32* %15, align 8, !tbaa !25
  %16 = getelementptr inbounds %"struct.Halide::Runtime::Internal::work", %"struct.Halide::Runtime::Internal::work"* %6, i64 0, i32 0, i32 1
  store i8* %4, i8** %16, align 8, !tbaa !26
  %17 = getelementptr inbounds %"struct.Halide::Runtime::Internal::work", %"struct.Halide::Runtime::Internal::work"* %6, i64 0, i32 0, i32 7
  store i32 0, i32* %17, align 4, !tbaa !27
  %18 = getelementptr inbounds %"struct.Halide::Runtime::Internal::work", %"struct.Halide::Runtime::Internal::work"* %6, i64 0, i32 0, i32 2
  store i8* null, i8** %18, align 8, !tbaa !28
  %19 = getelementptr inbounds %"struct.Halide::Runtime::Internal::work", %"struct.Halide::Runtime::Internal::work"* %6, i64 0, i32 1
  store i32 (i8*, i32, i8*)* %1, i32 (i8*, i32, i8*)** %19, align 8, !tbaa !29
  %20 = getelementptr inbounds %"struct.Halide::Runtime::Internal::work", %"struct.Halide::Runtime::Internal::work"* %6, i64 0, i32 7
  store i8* %0, i8** %20, align 8, !tbaa !30
  %21 = getelementptr inbounds %"struct.Halide::Runtime::Internal::work", %"struct.Halide::Runtime::Internal::work"* %6, i64 0, i32 9
  %22 = getelementptr inbounds %"struct.Halide::Runtime::Internal::work", %"struct.Halide::Runtime::Internal::work"* %6, i64 0, i32 8
  %23 = getelementptr inbounds %"struct.Halide::Runtime::Internal::work", %"struct.Halide::Runtime::Internal::work"* %6, i64 0, i32 3
  %24 = bitcast i32* %22 to i8*
  call void @llvm.memset.p0i8.i64(i8* nonnull %24, i8 0, i64 13, i32 8, i1 false)
  store %"struct.Halide::Runtime::Internal::work"* %6, %"struct.Halide::Runtime::Internal::work"** %23, align 8, !tbaa !31
  %25 = getelementptr inbounds %"struct.Halide::Runtime::Internal::work", %"struct.Halide::Runtime::Internal::work"* %6, i64 0, i32 4
  store i32 0, i32* %25, align 8, !tbaa !32
  %26 = getelementptr inbounds %"struct.Halide::Runtime::Internal::work", %"struct.Halide::Runtime::Internal::work"* %6, i64 0, i32 5
  store %"struct.Halide::Runtime::Internal::work"* null, %"struct.Halide::Runtime::Internal::work"** %26, align 8, !tbaa !33
  call void @halide_mutex_lock(%struct.halide_mutex* getelementptr inbounds (%"struct.Halide::Runtime::Internal::work_queue_t", %"struct.Halide::Runtime::Internal::work_queue_t"* @_ZN6Halide7Runtime8Internal10work_queueE, i64 0, i32 0)) #14
  call void @_ZN6Halide7Runtime8Internal27enqueue_work_already_lockedEiPNS1_4workES3_(i32 1, %"struct.Halide::Runtime::Internal::work"* nonnull %6, %"struct.Halide::Runtime::Internal::work"* null) #14
  call void @_ZN6Halide7Runtime8Internal28worker_thread_already_lockedEPNS1_4workE(%"struct.Halide::Runtime::Internal::work"* nonnull %6) #14
  call void @halide_mutex_unlock(%struct.halide_mutex* getelementptr inbounds (%"struct.Halide::Runtime::Internal::work_queue_t", %"struct.Halide::Runtime::Internal::work_queue_t"* @_ZN6Halide7Runtime8Internal10work_queueE, i64 0, i32 0)) #14
  %27 = load i32, i32* %21, align 4, !tbaa !34
  call void @llvm.lifetime.end.p0i8(i64 128, i8* nonnull %9) #11
  br label %28

; <label>:28:                                     ; preds = %8, %5
  %29 = phi i32 [ %27, %8 ], [ 0, %5 ]
  ret i32 %29
}

; Function Attrs: nounwind
define weak void @halide_mutex_lock(%struct.halide_mutex*) local_unnamed_addr #0 {
  %2 = alloca %"struct.Halide::Runtime::Internal::Synchronization::mutex_parking_control", align 8
  %3 = getelementptr inbounds %struct.halide_mutex, %struct.halide_mutex* %0, i64 0, i32 0, i64 0
  %4 = cmpxchg weak i64* %3, i64 0, i64 1 acquire monotonic
  %5 = extractvalue { i64, i1 } %4, 1
  br i1 %5, label %.loopexit, label %6

; <label>:6:                                      ; preds = %1
  %7 = load atomic i64, i64* %3 monotonic, align 8
  %8 = bitcast %"struct.Halide::Runtime::Internal::Synchronization::mutex_parking_control"* %2 to i8*
  %9 = getelementptr inbounds %"struct.Halide::Runtime::Internal::Synchronization::mutex_parking_control", %"struct.Halide::Runtime::Internal::Synchronization::mutex_parking_control"* %2, i64 0, i32 0, i32 0
  %10 = getelementptr inbounds %"struct.Halide::Runtime::Internal::Synchronization::mutex_parking_control", %"struct.Halide::Runtime::Internal::Synchronization::mutex_parking_control"* %2, i64 0, i32 0, i32 1
  %11 = getelementptr inbounds %"struct.Halide::Runtime::Internal::Synchronization::mutex_parking_control", %"struct.Halide::Runtime::Internal::Synchronization::mutex_parking_control"* %2, i64 0, i32 0, i32 2
  %12 = getelementptr inbounds %"struct.Halide::Runtime::Internal::Synchronization::mutex_parking_control", %"struct.Halide::Runtime::Internal::Synchronization::mutex_parking_control"* %2, i64 0, i32 0, i32 3
  %13 = getelementptr inbounds %"struct.Halide::Runtime::Internal::Synchronization::mutex_parking_control", %"struct.Halide::Runtime::Internal::Synchronization::mutex_parking_control"* %2, i64 0, i32 1
  %14 = ptrtoint %struct.halide_mutex* %0 to i64
  %15 = getelementptr inbounds %"struct.Halide::Runtime::Internal::Synchronization::mutex_parking_control", %"struct.Halide::Runtime::Internal::Synchronization::mutex_parking_control"* %2, i64 0, i32 0
  br label %16

; <label>:16:                                     ; preds = %.backedge, %6
  %17 = phi i64 [ %7, %6 ], [ %.be, %.backedge ]
  %18 = phi i32 [ 40, %6 ], [ %.be5, %.backedge ]
  br label %19

; <label>:19:                                     ; preds = %23, %16
  %20 = phi i64 [ %27, %23 ], [ %17, %16 ]
  %21 = and i64 %20, 1
  %22 = icmp eq i64 %21, 0
  br i1 %22, label %23, label %28

; <label>:23:                                     ; preds = %19
  %24 = or i64 %20, 1
  %25 = cmpxchg weak i64* %3, i64 %20, i64 %24 acquire monotonic
  %26 = extractvalue { i64, i1 } %25, 1
  %27 = extractvalue { i64, i1 } %25, 0
  br i1 %26, label %.loopexit, label %19

; <label>:28:                                     ; preds = %19
  %29 = and i64 %20, 2
  %30 = icmp eq i64 %29, 0
  br i1 %30, label %31, label %45

; <label>:31:                                     ; preds = %28
  %32 = icmp sgt i32 %18, 0
  br i1 %32, label %33, label %38

; <label>:33:                                     ; preds = %31
  %34 = icmp eq i32 %18, 1
  br i1 %34, label %38, label %35

; <label>:35:                                     ; preds = %33
  %36 = add nsw i32 %18, -1
  call void @_ZN6Halide7Runtime8Internal19halide_thread_yieldEv() #13
  %37 = load atomic i64, i64* %3 monotonic, align 8
  br label %.backedge

; <label>:38:                                     ; preds = %33, %31
  %39 = phi i32 [ 0, %33 ], [ %18, %31 ]
  %40 = or i64 %20, 2
  %41 = cmpxchg weak i64* %3, i64 %20, i64 %40 monotonic monotonic
  %42 = extractvalue { i64, i1 } %41, 1
  br i1 %42, label %45, label %43

; <label>:43:                                     ; preds = %38
  %44 = extractvalue { i64, i1 } %41, 0
  br label %.backedge

; <label>:45:                                     ; preds = %38, %28
  call void @llvm.lifetime.start.p0i8(i64 40, i8* nonnull %8) #11
  store void (i8*)* @_ZN6Halide7Runtime8Internal15Synchronization28parking_control_before_sleepEPv, void (i8*)** %10, align 8, !tbaa !35
  store void (i8*, %"struct.Halide::Runtime::Internal::Synchronization::validate_action"*, i1, i1)* @_ZN6Halide7Runtime8Internal15Synchronization32parking_control_requeue_callbackEPvRKNS2_15validate_actionEbb, void (i8*, %"struct.Halide::Runtime::Internal::Synchronization::validate_action"*, i1, i1)** %12, align 8, !tbaa !37
  store i64* %3, i64** %13, align 8, !tbaa !38
  store i1 (i8*, %"struct.Halide::Runtime::Internal::Synchronization::validate_action"*)* @_ZN6Halide7Runtime8Internal15Synchronization30mutex_parking_control_validateEPvRNS2_15validate_actionE, i1 (i8*, %"struct.Halide::Runtime::Internal::Synchronization::validate_action"*)** %9, align 8, !tbaa !40
  store i64 (i8*, i32, i1)* @_ZN6Halide7Runtime8Internal15Synchronization28mutex_parking_control_unparkEPvib, i64 (i8*, i32, i1)** %11, align 8, !tbaa !41
  %46 = call i64 @_ZN6Halide7Runtime8Internal15Synchronization4parkEyRNS2_15parking_controlE(i64 %14, %"struct.Halide::Runtime::Internal::Synchronization::parking_control"* nonnull dereferenceable(32) %15) #13
  %47 = icmp eq i64 %46, %14
  br i1 %47, label %50, label %48

; <label>:48:                                     ; preds = %45
  %49 = load atomic i64, i64* %3 monotonic, align 8
  call void @llvm.lifetime.end.p0i8(i64 40, i8* nonnull %8) #11
  br label %.backedge

.backedge:                                        ; preds = %48, %43, %35
  %.be = phi i64 [ %44, %43 ], [ %49, %48 ], [ %37, %35 ]
  %.be5 = phi i32 [ %39, %43 ], [ 40, %48 ], [ %36, %35 ]
  br label %16

; <label>:50:                                     ; preds = %45
  call void @llvm.lifetime.end.p0i8(i64 40, i8* nonnull %8) #11
  br label %.loopexit

.loopexit:                                        ; preds = %50, %23, %1
  ret void
}

; Function Attrs: nounwind
define linkonce void @_ZN6Halide7Runtime8Internal27enqueue_work_already_lockedEiPNS1_4workES3_(i32, %"struct.Halide::Runtime::Internal::work"*, %"struct.Halide::Runtime::Internal::work"*) local_unnamed_addr #0 {
  %4 = load i8, i8* getelementptr inbounds (%"struct.Halide::Runtime::Internal::work_queue_t", %"struct.Halide::Runtime::Internal::work_queue_t"* @_ZN6Halide7Runtime8Internal10work_queueE, i64 0, i32 15), align 1, !tbaa !42, !range !14
  %5 = icmp eq i8 %4, 0
  br i1 %5, label %.preheader21, label %25

.preheader21:                                     ; preds = %3
  br label %6

; <label>:6:                                      ; preds = %10, %.preheader21
  %7 = phi i8* [ %11, %10 ], [ bitcast (i32* getelementptr inbounds (%"struct.Halide::Runtime::Internal::work_queue_t", %"struct.Halide::Runtime::Internal::work_queue_t"* @_ZN6Halide7Runtime8Internal10work_queueE, i64 0, i32 2) to i8*), %.preheader21 ]
  %8 = load i8, i8* %7, align 1, !tbaa !11
  %9 = icmp eq i8 %8, 0
  br i1 %9, label %10, label %13

; <label>:10:                                     ; preds = %6
  %11 = getelementptr inbounds i8, i8* %7, i64 1
  %12 = icmp ult i8* %11, bitcast (%"struct.Halide::Runtime::Internal::work_queue_t"* getelementptr inbounds (%"struct.Halide::Runtime::Internal::work_queue_t", %"struct.Halide::Runtime::Internal::work_queue_t"* @_ZN6Halide7Runtime8Internal10work_queueE, i64 1) to i8*)
  br i1 %12, label %6, label %13

; <label>:13:                                     ; preds = %10, %6
  %14 = phi i8* [ %11, %10 ], [ %7, %6 ]
  %15 = icmp eq i8* %14, bitcast (%"struct.Halide::Runtime::Internal::work_queue_t"* getelementptr inbounds (%"struct.Halide::Runtime::Internal::work_queue_t", %"struct.Halide::Runtime::Internal::work_queue_t"* @_ZN6Halide7Runtime8Internal10work_queueE, i64 1) to i8*)
  br i1 %15, label %17, label %16

; <label>:16:                                     ; preds = %13
  tail call void @halide_print(i8* null, i8* getelementptr inbounds ([199 x i8], [199 x i8]* @.str.7, i64 0, i64 0)) #13
  tail call void @abort() #13
  br label %17

; <label>:17:                                     ; preds = %16, %13
  %18 = load i32, i32* getelementptr inbounds (%"struct.Halide::Runtime::Internal::work_queue_t", %"struct.Halide::Runtime::Internal::work_queue_t"* @_ZN6Halide7Runtime8Internal10work_queueE, i64 0, i32 1), align 8, !tbaa !46
  %19 = icmp eq i32 %18, 0
  br i1 %19, label %20, label %22

; <label>:20:                                     ; preds = %17
  %21 = tail call i32 @_ZN6Halide7Runtime8Internal27default_desired_num_threadsEv() #14
  store i32 %21, i32* getelementptr inbounds (%"struct.Halide::Runtime::Internal::work_queue_t", %"struct.Halide::Runtime::Internal::work_queue_t"* @_ZN6Halide7Runtime8Internal10work_queueE, i64 0, i32 1), align 8, !tbaa !46
  br label %22

; <label>:22:                                     ; preds = %20, %17
  %23 = phi i32 [ %18, %17 ], [ %21, %20 ]
  %24 = tail call i32 @_ZN6Halide7Runtime8Internal17clamp_num_threadsEi(i32 %23) #14
  store i32 %24, i32* getelementptr inbounds (%"struct.Halide::Runtime::Internal::work_queue_t", %"struct.Halide::Runtime::Internal::work_queue_t"* @_ZN6Halide7Runtime8Internal10work_queueE, i64 0, i32 1), align 8, !tbaa !46
  store i8 1, i8* getelementptr inbounds (%"struct.Halide::Runtime::Internal::work_queue_t", %"struct.Halide::Runtime::Internal::work_queue_t"* @_ZN6Halide7Runtime8Internal10work_queueE, i64 0, i32 15), align 1, !tbaa !42
  br label %25

; <label>:25:                                     ; preds = %22, %3
  %26 = icmp sgt i32 %0, 0
  br i1 %26, label %27, label %31

; <label>:27:                                     ; preds = %25
  %28 = zext i32 %0 to i64
  br label %38

; <label>:29:                                     ; preds = %64
  %30 = and i8 %48, 1
  br label %31

; <label>:31:                                     ; preds = %29, %25
  %32 = phi i32 [ -1, %25 ], [ %65, %29 ]
  %33 = phi i8 [ 0, %25 ], [ %30, %29 ]
  %34 = phi i8 [ 0, %25 ], [ %54, %29 ]
  %35 = phi i8 [ 0, %25 ], [ %49, %29 ]
  %36 = phi i32 [ 0, %25 ], [ %50, %29 ]
  %37 = icmp eq %"struct.Halide::Runtime::Internal::work"* %2, null
  br i1 %37, label %68, label %99

; <label>:38:                                     ; preds = %64, %27
  %39 = phi i64 [ 0, %27 ], [ %66, %64 ]
  %40 = phi i32 [ 0, %27 ], [ %50, %64 ]
  %41 = phi i8 [ 0, %27 ], [ %49, %64 ]
  %42 = phi i8 [ 0, %27 ], [ %54, %64 ]
  %43 = phi i8 [ 0, %27 ], [ %48, %64 ]
  %44 = phi i32 [ -1, %27 ], [ %65, %64 ]
  %45 = getelementptr inbounds %"struct.Halide::Runtime::Internal::work", %"struct.Halide::Runtime::Internal::work"* %1, i64 %39, i32 0, i32 7
  %46 = load i32, i32* %45, align 4, !tbaa !27
  %47 = icmp eq i32 %46, 0
  %48 = select i1 %47, i8 1, i8 %43
  %49 = select i1 %47, i8 %41, i8 1
  %50 = add nsw i32 %46, %40
  %51 = getelementptr inbounds %"struct.Halide::Runtime::Internal::work", %"struct.Halide::Runtime::Internal::work"* %1, i64 %39, i32 0, i32 4
  %52 = load i32, i32* %51, align 8, !tbaa !25
  %53 = icmp eq i32 %52, 0
  %54 = select i1 %53, i8 %42, i8 1
  %55 = getelementptr inbounds %"struct.Halide::Runtime::Internal::work", %"struct.Halide::Runtime::Internal::work"* %1, i64 %39, i32 0, i32 8
  %56 = load i8, i8* %55, align 8, !tbaa !23, !range !14
  %57 = icmp eq i8 %56, 0
  br i1 %57, label %60, label %58

; <label>:58:                                     ; preds = %38
  %59 = add nsw i32 %44, 1
  br label %64

; <label>:60:                                     ; preds = %38
  %61 = getelementptr inbounds %"struct.Halide::Runtime::Internal::work", %"struct.Halide::Runtime::Internal::work"* %1, i64 %39, i32 0, i32 6
  %62 = load i32, i32* %61, align 8, !tbaa !22
  %63 = add nsw i32 %62, %44
  br label %64

; <label>:64:                                     ; preds = %60, %58
  %65 = phi i32 [ %59, %58 ], [ %63, %60 ]
  %66 = add nuw nsw i64 %39, 1
  %67 = icmp eq i64 %66, %28
  br i1 %67, label %29, label %38

; <label>:68:                                     ; preds = %31
  %69 = or i8 %35, %34
  %70 = and i8 %69, 1
  %71 = icmp eq i8 %70, 0
  %72 = xor i1 %71, true
  %73 = zext i1 %72 to i32
  %74 = add nsw i32 %36, %73
  %75 = load i32, i32* getelementptr inbounds (%"struct.Halide::Runtime::Internal::work_queue_t", %"struct.Halide::Runtime::Internal::work_queue_t"* @_ZN6Halide7Runtime8Internal10work_queueE, i64 0, i32 4), align 8, !tbaa !47
  %76 = icmp slt i32 %75, 256
  br i1 %76, label %.preheader, label %.loopexit

.preheader:                                       ; preds = %68
  br label %77

; <label>:77:                                     ; preds = %87, %.preheader
  %78 = phi i32 [ %92, %87 ], [ %75, %.preheader ]
  %79 = load i32, i32* getelementptr inbounds (%"struct.Halide::Runtime::Internal::work_queue_t", %"struct.Halide::Runtime::Internal::work_queue_t"* @_ZN6Halide7Runtime8Internal10work_queueE, i64 0, i32 1), align 8, !tbaa !46
  %80 = add nsw i32 %79, -1
  %81 = icmp slt i32 %78, %80
  br i1 %81, label %87, label %82

; <label>:82:                                     ; preds = %77
  %83 = add nsw i32 %78, 1
  %84 = load i32, i32* getelementptr inbounds (%"struct.Halide::Runtime::Internal::work_queue_t", %"struct.Halide::Runtime::Internal::work_queue_t"* @_ZN6Halide7Runtime8Internal10work_queueE, i64 0, i32 16), align 4, !tbaa !48
  %85 = sub i32 %83, %84
  %86 = icmp slt i32 %85, %74
  br i1 %86, label %87, label %.loopexit

; <label>:87:                                     ; preds = %82, %77
  %88 = load i32, i32* getelementptr inbounds (%"struct.Halide::Runtime::Internal::work_queue_t", %"struct.Halide::Runtime::Internal::work_queue_t"* @_ZN6Halide7Runtime8Internal10work_queueE, i64 0, i32 5), align 4, !tbaa !49
  %89 = add nsw i32 %88, 1
  store i32 %89, i32* getelementptr inbounds (%"struct.Halide::Runtime::Internal::work_queue_t", %"struct.Halide::Runtime::Internal::work_queue_t"* @_ZN6Halide7Runtime8Internal10work_queueE, i64 0, i32 5), align 4, !tbaa !49
  %90 = tail call %struct.halide_thread* @halide_spawn_thread(void (i8*)* nonnull @_ZN6Halide7Runtime8Internal13worker_threadEPv, i8* null) #14
  %91 = load i32, i32* getelementptr inbounds (%"struct.Halide::Runtime::Internal::work_queue_t", %"struct.Halide::Runtime::Internal::work_queue_t"* @_ZN6Halide7Runtime8Internal10work_queueE, i64 0, i32 4), align 8, !tbaa !47
  %92 = add nsw i32 %91, 1
  store i32 %92, i32* getelementptr inbounds (%"struct.Halide::Runtime::Internal::work_queue_t", %"struct.Halide::Runtime::Internal::work_queue_t"* @_ZN6Halide7Runtime8Internal10work_queueE, i64 0, i32 4), align 8, !tbaa !47
  %93 = sext i32 %91 to i64
  %94 = getelementptr inbounds %"struct.Halide::Runtime::Internal::work_queue_t", %"struct.Halide::Runtime::Internal::work_queue_t"* @_ZN6Halide7Runtime8Internal10work_queueE, i64 0, i32 13, i64 %93
  store %struct.halide_thread* %90, %struct.halide_thread** %94, align 8, !tbaa !7
  %95 = icmp slt i32 %91, 255
  br i1 %95, label %77, label %.loopexit

.loopexit:                                        ; preds = %87, %82, %68
  br i1 %71, label %117, label %96

; <label>:96:                                     ; preds = %.loopexit
  %97 = load i32, i32* getelementptr inbounds (%"struct.Halide::Runtime::Internal::work_queue_t", %"struct.Halide::Runtime::Internal::work_queue_t"* @_ZN6Halide7Runtime8Internal10work_queueE, i64 0, i32 16), align 4, !tbaa !48
  %98 = add nsw i32 %97, 1
  store i32 %98, i32* getelementptr inbounds (%"struct.Halide::Runtime::Internal::work_queue_t", %"struct.Halide::Runtime::Internal::work_queue_t"* @_ZN6Halide7Runtime8Internal10work_queueE, i64 0, i32 16), align 4, !tbaa !48
  br label %117

; <label>:99:                                     ; preds = %31
  %100 = getelementptr inbounds %"struct.Halide::Runtime::Internal::work", %"struct.Halide::Runtime::Internal::work"* %2, i64 0, i32 0, i32 7
  %101 = load i32, i32* %100, align 4, !tbaa !27
  %102 = getelementptr inbounds %"struct.Halide::Runtime::Internal::work", %"struct.Halide::Runtime::Internal::work"* %2, i64 0, i32 8
  %103 = load i32, i32* %102, align 8, !tbaa !50
  %104 = mul nsw i32 %103, %101
  %105 = getelementptr inbounds %"struct.Halide::Runtime::Internal::work", %"struct.Halide::Runtime::Internal::work"* %2, i64 0, i32 6
  %106 = load i32, i32* %105, align 8, !tbaa !51
  %107 = sub nsw i32 %104, %106
  %108 = icmp sgt i32 %36, %107
  br i1 %108, label %109, label %110

; <label>:109:                                    ; preds = %99
  tail call void @halide_print(i8* null, i8* getelementptr inbounds ([276 x i8], [276 x i8]* @.str.3, i64 0, i64 0)) #13
  tail call void @abort() #13
  br label %110

; <label>:110:                                    ; preds = %109, %99
  %111 = or i8 %35, %34
  %112 = and i8 %111, 1
  %113 = icmp eq i8 %112, 0
  br i1 %113, label %117, label %114

; <label>:114:                                    ; preds = %110
  %115 = load i32, i32* %105, align 8, !tbaa !51
  %116 = add nsw i32 %115, 1
  store i32 %116, i32* %105, align 8, !tbaa !51
  br label %117

; <label>:117:                                    ; preds = %114, %110, %96, %.loopexit
  br i1 %26, label %118, label %122

; <label>:118:                                    ; preds = %117
  %119 = sext i32 %0 to i64
  %120 = load i64, i64* bitcast (%"struct.Halide::Runtime::Internal::work"** getelementptr inbounds (%"struct.Halide::Runtime::Internal::work_queue_t", %"struct.Halide::Runtime::Internal::work_queue_t"* @_ZN6Halide7Runtime8Internal10work_queueE, i64 0, i32 3) to i64*), align 8, !tbaa !52
  br label %127

; <label>:121:                                    ; preds = %127
  store %"struct.Halide::Runtime::Internal::work"* %131, %"struct.Halide::Runtime::Internal::work"** getelementptr inbounds (%"struct.Halide::Runtime::Internal::work_queue_t", %"struct.Halide::Runtime::Internal::work_queue_t"* @_ZN6Halide7Runtime8Internal10work_queueE, i64 0, i32 3), align 8, !tbaa !52
  br label %122

; <label>:122:                                    ; preds = %121, %117
  %123 = load i32, i32* getelementptr inbounds (%"struct.Halide::Runtime::Internal::work_queue_t", %"struct.Halide::Runtime::Internal::work_queue_t"* @_ZN6Halide7Runtime8Internal10work_queueE, i64 0, i32 12), align 4, !tbaa !53
  %124 = icmp eq i32 %123, 0
  br i1 %124, label %139, label %125

; <label>:125:                                    ; preds = %122
  %126 = load i32, i32* getelementptr inbounds (%"struct.Halide::Runtime::Internal::work_queue_t", %"struct.Halide::Runtime::Internal::work_queue_t"* @_ZN6Halide7Runtime8Internal10work_queueE, i64 0, i32 4), align 8, !tbaa !47
  br label %145

; <label>:127:                                    ; preds = %127, %118
  %128 = phi i64 [ %120, %118 ], [ %138, %127 ]
  %129 = phi i64 [ %119, %118 ], [ %130, %127 ]
  %130 = add nsw i64 %129, -1
  %131 = getelementptr inbounds %"struct.Halide::Runtime::Internal::work", %"struct.Halide::Runtime::Internal::work"* %1, i64 %130
  %132 = getelementptr inbounds %"struct.Halide::Runtime::Internal::work", %"struct.Halide::Runtime::Internal::work"* %1, i64 %130, i32 2
  %133 = bitcast %"struct.Halide::Runtime::Internal::work"** %132 to i64*
  store i64 %128, i64* %133, align 8, !tbaa !54
  %134 = getelementptr inbounds %"struct.Halide::Runtime::Internal::work", %"struct.Halide::Runtime::Internal::work"* %1, i64 %130, i32 3
  store %"struct.Halide::Runtime::Internal::work"* %1, %"struct.Halide::Runtime::Internal::work"** %134, align 8, !tbaa !31
  %135 = getelementptr inbounds %"struct.Halide::Runtime::Internal::work", %"struct.Halide::Runtime::Internal::work"* %1, i64 %130, i32 4
  store i32 %0, i32* %135, align 8, !tbaa !32
  %136 = getelementptr inbounds %"struct.Halide::Runtime::Internal::work", %"struct.Halide::Runtime::Internal::work"* %1, i64 %130, i32 6
  store i32 0, i32* %136, align 8, !tbaa !51
  %137 = icmp sgt i64 %129, 1
  %138 = ptrtoint %"struct.Halide::Runtime::Internal::work"* %131 to i64
  br i1 %137, label %127, label %121

; <label>:139:                                    ; preds = %122
  %140 = load i32, i32* getelementptr inbounds (%"struct.Halide::Runtime::Internal::work_queue_t", %"struct.Halide::Runtime::Internal::work_queue_t"* @_ZN6Halide7Runtime8Internal10work_queueE, i64 0, i32 11), align 8, !tbaa !55
  %141 = load i32, i32* getelementptr inbounds (%"struct.Halide::Runtime::Internal::work_queue_t", %"struct.Halide::Runtime::Internal::work_queue_t"* @_ZN6Halide7Runtime8Internal10work_queueE, i64 0, i32 4), align 8, !tbaa !47
  %142 = icmp slt i32 %140, %141
  %143 = icmp sgt i32 %32, %140
  %144 = or i1 %143, %142
  br i1 %144, label %145, label %147

; <label>:145:                                    ; preds = %139, %125
  %146 = phi i32 [ %126, %125 ], [ %141, %139 ]
  br label %147

; <label>:147:                                    ; preds = %145, %139
  %148 = phi i32 [ %146, %145 ], [ %32, %139 ]
  store i32 %148, i32* getelementptr inbounds (%"struct.Halide::Runtime::Internal::work_queue_t", %"struct.Halide::Runtime::Internal::work_queue_t"* @_ZN6Halide7Runtime8Internal10work_queueE, i64 0, i32 6), align 8, !tbaa !56
  tail call void @halide_cond_broadcast(%struct.halide_mutex* getelementptr inbounds (%"struct.Halide::Runtime::Internal::work_queue_t", %"struct.Halide::Runtime::Internal::work_queue_t"* @_ZN6Halide7Runtime8Internal10work_queueE, i64 0, i32 8)) #14
  %149 = load i32, i32* getelementptr inbounds (%"struct.Halide::Runtime::Internal::work_queue_t", %"struct.Halide::Runtime::Internal::work_queue_t"* @_ZN6Halide7Runtime8Internal10work_queueE, i64 0, i32 6), align 8, !tbaa !56
  %150 = load i32, i32* getelementptr inbounds (%"struct.Halide::Runtime::Internal::work_queue_t", %"struct.Halide::Runtime::Internal::work_queue_t"* @_ZN6Halide7Runtime8Internal10work_queueE, i64 0, i32 5), align 4, !tbaa !49
  %151 = icmp sgt i32 %149, %150
  br i1 %151, label %152, label %155

; <label>:152:                                    ; preds = %147
  tail call void @halide_cond_broadcast(%struct.halide_mutex* getelementptr inbounds (%"struct.Halide::Runtime::Internal::work_queue_t", %"struct.Halide::Runtime::Internal::work_queue_t"* @_ZN6Halide7Runtime8Internal10work_queueE, i64 0, i32 9)) #14
  %153 = icmp eq i8 %33, 0
  br i1 %153, label %155, label %154

; <label>:154:                                    ; preds = %152
  tail call void @halide_cond_broadcast(%struct.halide_mutex* getelementptr inbounds (%"struct.Halide::Runtime::Internal::work_queue_t", %"struct.Halide::Runtime::Internal::work_queue_t"* @_ZN6Halide7Runtime8Internal10work_queueE, i64 0, i32 10)) #14
  br label %155

; <label>:155:                                    ; preds = %154, %152, %147
  %156 = or i8 %35, %34
  %157 = and i8 %156, 1
  %158 = icmp eq i8 %157, 0
  br i1 %158, label %167, label %159

; <label>:159:                                    ; preds = %155
  br i1 %37, label %164, label %160

; <label>:160:                                    ; preds = %159
  %161 = getelementptr inbounds %"struct.Halide::Runtime::Internal::work", %"struct.Halide::Runtime::Internal::work"* %2, i64 0, i32 6
  %162 = load i32, i32* %161, align 8, !tbaa !51
  %163 = add nsw i32 %162, -1
  store i32 %163, i32* %161, align 8, !tbaa !51
  br label %167

; <label>:164:                                    ; preds = %159
  %165 = load i32, i32* getelementptr inbounds (%"struct.Halide::Runtime::Internal::work_queue_t", %"struct.Halide::Runtime::Internal::work_queue_t"* @_ZN6Halide7Runtime8Internal10work_queueE, i64 0, i32 16), align 4, !tbaa !48
  %166 = add nsw i32 %165, -1
  store i32 %166, i32* getelementptr inbounds (%"struct.Halide::Runtime::Internal::work_queue_t", %"struct.Halide::Runtime::Internal::work_queue_t"* @_ZN6Halide7Runtime8Internal10work_queueE, i64 0, i32 16), align 4, !tbaa !48
  br label %167

; <label>:167:                                    ; preds = %164, %160, %155
  ret void
}

; Function Attrs: nounwind
define linkonce void @_ZN6Halide7Runtime8Internal28worker_thread_already_lockedEPNS1_4workE(%"struct.Halide::Runtime::Internal::work"*) local_unnamed_addr #0 {
  %2 = getelementptr inbounds %"struct.Halide::Runtime::Internal::work", %"struct.Halide::Runtime::Internal::work"* %0, i64 0, i32 8
  %3 = icmp ne %"struct.Halide::Runtime::Internal::work"* %0, null
  %4 = getelementptr inbounds %"struct.Halide::Runtime::Internal::work", %"struct.Halide::Runtime::Internal::work"* %0, i64 0, i32 0, i32 6
  %5 = getelementptr inbounds %"struct.Halide::Runtime::Internal::work", %"struct.Halide::Runtime::Internal::work"* %0, i64 0, i32 9
  %6 = getelementptr inbounds %"struct.Halide::Runtime::Internal::work", %"struct.Halide::Runtime::Internal::work"* %0, i64 0, i32 3
  %7 = getelementptr inbounds %"struct.Halide::Runtime::Internal::work", %"struct.Halide::Runtime::Internal::work"* %0, i64 0, i32 5
  %8 = getelementptr inbounds %"struct.Halide::Runtime::Internal::work", %"struct.Halide::Runtime::Internal::work"* %0, i64 0, i32 11
  br label %9

; <label>:9:                                      ; preds = %.backedge, %1
  br i1 %3, label %10, label %13

; <label>:10:                                     ; preds = %9
  %11 = load i32, i32* %4, align 8, !tbaa !22
  %12 = icmp eq i32 %11, 0
  br i1 %12, label %16, label %21

; <label>:13:                                     ; preds = %9
  %14 = load i8, i8* getelementptr inbounds (%"struct.Halide::Runtime::Internal::work_queue_t", %"struct.Halide::Runtime::Internal::work_queue_t"* @_ZN6Halide7Runtime8Internal10work_queueE, i64 0, i32 14), align 8, !tbaa !57, !range !14
  %15 = icmp eq i8 %14, 0
  br i1 %15, label %19, label %400

; <label>:16:                                     ; preds = %10
  %17 = load i32, i32* %2, align 8, !tbaa !50
  %18 = icmp eq i32 %17, 0
  br i1 %18, label %400, label %21

; <label>:19:                                     ; preds = %13
  %20 = load %"struct.Halide::Runtime::Internal::work"*, %"struct.Halide::Runtime::Internal::work"** getelementptr inbounds (%"struct.Halide::Runtime::Internal::work_queue_t", %"struct.Halide::Runtime::Internal::work_queue_t"* @_ZN6Halide7Runtime8Internal10work_queueE, i64 0, i32 3), align 8, !tbaa !52
  br label %49

; <label>:21:                                     ; preds = %16, %10
  %22 = load %"struct.Halide::Runtime::Internal::work"*, %"struct.Halide::Runtime::Internal::work"** getelementptr inbounds (%"struct.Halide::Runtime::Internal::work_queue_t", %"struct.Halide::Runtime::Internal::work_queue_t"* @_ZN6Halide7Runtime8Internal10work_queueE, i64 0, i32 3), align 8, !tbaa !52
  %23 = load i32, i32* %5, align 4, !tbaa !34
  %24 = icmp eq i32 %23, 0
  br i1 %24, label %41, label %25

; <label>:25:                                     ; preds = %21
  %26 = load i32, i32* %2, align 8, !tbaa !50
  %27 = icmp eq i32 %26, 0
  br i1 %27, label %28, label %49

; <label>:28:                                     ; preds = %25
  %29 = icmp eq %"struct.Halide::Runtime::Internal::work"* %22, %0
  %30 = getelementptr inbounds %"struct.Halide::Runtime::Internal::work", %"struct.Halide::Runtime::Internal::work"* %22, i64 0, i32 2
  br i1 %29, label %.loopexit12, label %.preheader154

.preheader154:                                    ; preds = %28
  br label %31

; <label>:31:                                     ; preds = %31, %.preheader154
  %32 = phi %"struct.Halide::Runtime::Internal::work"** [ %35, %31 ], [ %30, %.preheader154 ]
  %33 = load %"struct.Halide::Runtime::Internal::work"*, %"struct.Halide::Runtime::Internal::work"** %32, align 8, !tbaa !54
  %34 = icmp eq %"struct.Halide::Runtime::Internal::work"* %33, %0
  %35 = getelementptr inbounds %"struct.Halide::Runtime::Internal::work", %"struct.Halide::Runtime::Internal::work"* %33, i64 0, i32 2
  br i1 %34, label %.loopexit12, label %31

.loopexit12:                                      ; preds = %31, %28
  %36 = phi %"struct.Halide::Runtime::Internal::work"** [ getelementptr inbounds (%"struct.Halide::Runtime::Internal::work_queue_t", %"struct.Halide::Runtime::Internal::work_queue_t"* @_ZN6Halide7Runtime8Internal10work_queueE, i64 0, i32 3), %28 ], [ %32, %31 ]
  %37 = phi %"struct.Halide::Runtime::Internal::work"** [ %30, %28 ], [ %35, %31 ]
  %38 = bitcast %"struct.Halide::Runtime::Internal::work"** %37 to i64*
  %39 = load i64, i64* %38, align 8, !tbaa !54
  %40 = bitcast %"struct.Halide::Runtime::Internal::work"** %36 to i64*
  store i64 %39, i64* %40, align 8, !tbaa !7
  store i32 0, i32* %4, align 8, !tbaa !22
  br label %.backedge

; <label>:41:                                     ; preds = %21
  %42 = load %"struct.Halide::Runtime::Internal::work"*, %"struct.Halide::Runtime::Internal::work"** %7, align 8, !tbaa !33
  %43 = icmp eq %"struct.Halide::Runtime::Internal::work"* %42, null
  br i1 %43, label %49, label %44

; <label>:44:                                     ; preds = %41
  %45 = getelementptr inbounds %"struct.Halide::Runtime::Internal::work", %"struct.Halide::Runtime::Internal::work"* %42, i64 0, i32 9
  %46 = load i32, i32* %45, align 4, !tbaa !34
  %47 = icmp eq i32 %46, 0
  br i1 %47, label %49, label %48

; <label>:48:                                     ; preds = %44
  store i32 %46, i32* %5, align 4, !tbaa !34
  tail call void @halide_cond_broadcast(%struct.halide_mutex* getelementptr inbounds (%"struct.Halide::Runtime::Internal::work_queue_t", %"struct.Halide::Runtime::Internal::work_queue_t"* @_ZN6Halide7Runtime8Internal10work_queueE, i64 0, i32 10)) #14
  br label %.backedge

; <label>:49:                                     ; preds = %44, %41, %25, %19
  %50 = phi %"struct.Halide::Runtime::Internal::work"* [ %22, %44 ], [ %22, %41 ], [ %22, %25 ], [ %20, %19 ]
  %51 = icmp eq %"struct.Halide::Runtime::Internal::work"* %50, null
  br i1 %51, label %.loopexit9, label %52

; <label>:52:                                     ; preds = %49
  br i1 %3, label %.preheader149, label %.preheader151

.preheader151:                                    ; preds = %52
  br label %127

.preheader149:                                    ; preds = %52
  br label %53

; <label>:53:                                     ; preds = %.loopexit3, %.preheader149
  %54 = phi %"struct.Halide::Runtime::Internal::work"* [ %125, %.loopexit3 ], [ %50, %.preheader149 ]
  %55 = phi %"struct.Halide::Runtime::Internal::work"** [ %124, %.loopexit3 ], [ getelementptr inbounds (%"struct.Halide::Runtime::Internal::work_queue_t", %"struct.Halide::Runtime::Internal::work_queue_t"* @_ZN6Halide7Runtime8Internal10work_queueE, i64 0, i32 3), %.preheader149 ]
  %56 = getelementptr inbounds %"struct.Halide::Runtime::Internal::work", %"struct.Halide::Runtime::Internal::work"* %54, i64 0, i32 5
  %57 = load %"struct.Halide::Runtime::Internal::work"*, %"struct.Halide::Runtime::Internal::work"** %56, align 8, !tbaa !33
  %58 = icmp eq %"struct.Halide::Runtime::Internal::work"* %57, null
  br i1 %58, label %74, label %59

; <label>:59:                                     ; preds = %53
  %60 = getelementptr inbounds %"struct.Halide::Runtime::Internal::work", %"struct.Halide::Runtime::Internal::work"* %57, i64 0, i32 8
  %61 = load i32, i32* %60, align 8, !tbaa !50
  %62 = icmp eq i32 %61, 0
  %63 = getelementptr inbounds %"struct.Halide::Runtime::Internal::work", %"struct.Halide::Runtime::Internal::work"* %57, i64 0, i32 0, i32 7
  %64 = load i32, i32* %63, align 4, !tbaa !27
  br i1 %62, label %70, label %65

; <label>:65:                                     ; preds = %59
  %66 = mul nsw i32 %64, %61
  %67 = getelementptr inbounds %"struct.Halide::Runtime::Internal::work", %"struct.Halide::Runtime::Internal::work"* %57, i64 0, i32 6
  %68 = load i32, i32* %67, align 8, !tbaa !51
  %69 = sub nsw i32 %66, %68
  br label %79

; <label>:70:                                     ; preds = %59
  %71 = getelementptr inbounds %"struct.Halide::Runtime::Internal::work", %"struct.Halide::Runtime::Internal::work"* %57, i64 0, i32 6
  %72 = load i32, i32* %71, align 8, !tbaa !51
  %73 = sub nsw i32 %64, %72
  br label %79

; <label>:74:                                     ; preds = %53
  %75 = load i32, i32* getelementptr inbounds (%"struct.Halide::Runtime::Internal::work_queue_t", %"struct.Halide::Runtime::Internal::work_queue_t"* @_ZN6Halide7Runtime8Internal10work_queueE, i64 0, i32 4), align 8, !tbaa !47
  %76 = add nsw i32 %75, 1
  %77 = load i32, i32* getelementptr inbounds (%"struct.Halide::Runtime::Internal::work_queue_t", %"struct.Halide::Runtime::Internal::work_queue_t"* @_ZN6Halide7Runtime8Internal10work_queueE, i64 0, i32 16), align 4, !tbaa !48
  %78 = sub i32 %76, %77
  br label %79

; <label>:79:                                     ; preds = %74, %70, %65
  %80 = phi i32 [ %78, %74 ], [ %73, %70 ], [ %69, %65 ]
  %81 = getelementptr inbounds %"struct.Halide::Runtime::Internal::work", %"struct.Halide::Runtime::Internal::work"* %54, i64 0, i32 0, i32 7
  %82 = load i32, i32* %81, align 4, !tbaa !27
  %83 = icmp slt i32 %80, %82
  %84 = getelementptr inbounds %"struct.Halide::Runtime::Internal::work", %"struct.Halide::Runtime::Internal::work"* %54, i64 0, i32 3
  %85 = load %"struct.Halide::Runtime::Internal::work"*, %"struct.Halide::Runtime::Internal::work"** %84, align 8, !tbaa !31
  %86 = load %"struct.Halide::Runtime::Internal::work"*, %"struct.Halide::Runtime::Internal::work"** %6, align 8, !tbaa !31
  %87 = icmp ne %"struct.Halide::Runtime::Internal::work"* %85, %86
  %88 = icmp ne i32 %82, 0
  %89 = getelementptr inbounds %"struct.Halide::Runtime::Internal::work", %"struct.Halide::Runtime::Internal::work"* %54, i64 0, i32 0, i32 8
  %90 = load i8, i8* %89, align 8, !tbaa !23, !range !14
  %91 = icmp eq i8 %90, 0
  br i1 %91, label %96, label %92

; <label>:92:                                     ; preds = %79
  %93 = getelementptr inbounds %"struct.Halide::Runtime::Internal::work", %"struct.Halide::Runtime::Internal::work"* %54, i64 0, i32 8
  %94 = load i32, i32* %93, align 8, !tbaa !50
  %95 = icmp eq i32 %94, 0
  br label %96

; <label>:96:                                     ; preds = %92, %79
  %97 = phi i1 [ true, %79 ], [ %95, %92 ]
  %98 = and i1 %88, %87
  %99 = or i1 %83, %98
  %100 = xor i1 %97, true
  %101 = or i1 %99, %100
  br i1 %101, label %.loopexit3, label %102

; <label>:102:                                    ; preds = %96
  %103 = getelementptr inbounds %"struct.Halide::Runtime::Internal::work", %"struct.Halide::Runtime::Internal::work"* %54, i64 0, i32 10
  %104 = load i32, i32* %103, align 8, !tbaa !58
  %105 = getelementptr inbounds %"struct.Halide::Runtime::Internal::work", %"struct.Halide::Runtime::Internal::work"* %54, i64 0, i32 0, i32 4
  %106 = load i32, i32* %105, align 8, !tbaa !25
  %107 = icmp slt i32 %104, %106
  br i1 %107, label %108, label %.loopexit4

; <label>:108:                                    ; preds = %102
  %109 = getelementptr inbounds %"struct.Halide::Runtime::Internal::work", %"struct.Halide::Runtime::Internal::work"* %54, i64 0, i32 0, i32 3
  br label %110

; <label>:110:                                    ; preds = %119, %108
  %111 = phi i32 [ %104, %108 ], [ %121, %119 ]
  %112 = load %struct.halide_semaphore_acquire_t*, %struct.halide_semaphore_acquire_t** %109, align 8, !tbaa !24
  %113 = sext i32 %111 to i64
  %114 = getelementptr inbounds %struct.halide_semaphore_acquire_t, %struct.halide_semaphore_acquire_t* %112, i64 %113, i32 0
  %115 = load %struct.halide_semaphore_t*, %struct.halide_semaphore_t** %114, align 8, !tbaa !59
  %116 = getelementptr inbounds %struct.halide_semaphore_acquire_t, %struct.halide_semaphore_acquire_t* %112, i64 %113, i32 1
  %117 = load i32, i32* %116, align 8, !tbaa !61
  %118 = tail call zeroext i1 @halide_default_semaphore_try_acquire(%struct.halide_semaphore_t* %115, i32 %117) #13
  br i1 %118, label %119, label %.loopexit3

; <label>:119:                                    ; preds = %110
  %120 = load i32, i32* %103, align 8, !tbaa !58
  %121 = add nsw i32 %120, 1
  store i32 %121, i32* %103, align 8, !tbaa !58
  %122 = load i32, i32* %105, align 8, !tbaa !25
  %123 = icmp slt i32 %121, %122
  br i1 %123, label %110, label %.loopexit4

.loopexit3:                                       ; preds = %110, %96
  %124 = getelementptr inbounds %"struct.Halide::Runtime::Internal::work", %"struct.Halide::Runtime::Internal::work"* %54, i64 0, i32 2
  %125 = load %"struct.Halide::Runtime::Internal::work"*, %"struct.Halide::Runtime::Internal::work"** %124, align 8, !tbaa !54
  %126 = icmp eq %"struct.Halide::Runtime::Internal::work"* %125, null
  br i1 %126, label %.loopexit9, label %53

; <label>:127:                                    ; preds = %.loopexit5, %.preheader151
  %128 = phi %"struct.Halide::Runtime::Internal::work"* [ %192, %.loopexit5 ], [ %50, %.preheader151 ]
  %129 = phi %"struct.Halide::Runtime::Internal::work"** [ %191, %.loopexit5 ], [ getelementptr inbounds (%"struct.Halide::Runtime::Internal::work_queue_t", %"struct.Halide::Runtime::Internal::work_queue_t"* @_ZN6Halide7Runtime8Internal10work_queueE, i64 0, i32 3), %.preheader151 ]
  %130 = getelementptr inbounds %"struct.Halide::Runtime::Internal::work", %"struct.Halide::Runtime::Internal::work"* %128, i64 0, i32 5
  %131 = load %"struct.Halide::Runtime::Internal::work"*, %"struct.Halide::Runtime::Internal::work"** %130, align 8, !tbaa !33
  %132 = icmp eq %"struct.Halide::Runtime::Internal::work"* %131, null
  br i1 %132, label %133, label %138

; <label>:133:                                    ; preds = %127
  %134 = load i32, i32* getelementptr inbounds (%"struct.Halide::Runtime::Internal::work_queue_t", %"struct.Halide::Runtime::Internal::work_queue_t"* @_ZN6Halide7Runtime8Internal10work_queueE, i64 0, i32 4), align 8, !tbaa !47
  %135 = add nsw i32 %134, 1
  %136 = load i32, i32* getelementptr inbounds (%"struct.Halide::Runtime::Internal::work_queue_t", %"struct.Halide::Runtime::Internal::work_queue_t"* @_ZN6Halide7Runtime8Internal10work_queueE, i64 0, i32 16), align 4, !tbaa !48
  %137 = sub i32 %135, %136
  br label %153

; <label>:138:                                    ; preds = %127
  %139 = getelementptr inbounds %"struct.Halide::Runtime::Internal::work", %"struct.Halide::Runtime::Internal::work"* %131, i64 0, i32 8
  %140 = load i32, i32* %139, align 8, !tbaa !50
  %141 = icmp eq i32 %140, 0
  %142 = getelementptr inbounds %"struct.Halide::Runtime::Internal::work", %"struct.Halide::Runtime::Internal::work"* %131, i64 0, i32 0, i32 7
  %143 = load i32, i32* %142, align 4, !tbaa !27
  br i1 %141, label %144, label %148

; <label>:144:                                    ; preds = %138
  %145 = getelementptr inbounds %"struct.Halide::Runtime::Internal::work", %"struct.Halide::Runtime::Internal::work"* %131, i64 0, i32 6
  %146 = load i32, i32* %145, align 8, !tbaa !51
  %147 = sub nsw i32 %143, %146
  br label %153

; <label>:148:                                    ; preds = %138
  %149 = mul nsw i32 %143, %140
  %150 = getelementptr inbounds %"struct.Halide::Runtime::Internal::work", %"struct.Halide::Runtime::Internal::work"* %131, i64 0, i32 6
  %151 = load i32, i32* %150, align 8, !tbaa !51
  %152 = sub nsw i32 %149, %151
  br label %153

; <label>:153:                                    ; preds = %148, %144, %133
  %154 = phi i32 [ %137, %133 ], [ %147, %144 ], [ %152, %148 ]
  %155 = getelementptr inbounds %"struct.Halide::Runtime::Internal::work", %"struct.Halide::Runtime::Internal::work"* %128, i64 0, i32 0, i32 7
  %156 = load i32, i32* %155, align 4, !tbaa !27
  %157 = icmp slt i32 %154, %156
  %158 = getelementptr inbounds %"struct.Halide::Runtime::Internal::work", %"struct.Halide::Runtime::Internal::work"* %128, i64 0, i32 0, i32 8
  %159 = load i8, i8* %158, align 8, !tbaa !23, !range !14
  %160 = icmp eq i8 %159, 0
  br i1 %160, label %165, label %161

; <label>:161:                                    ; preds = %153
  %162 = getelementptr inbounds %"struct.Halide::Runtime::Internal::work", %"struct.Halide::Runtime::Internal::work"* %128, i64 0, i32 8
  %163 = load i32, i32* %162, align 8, !tbaa !50
  %164 = icmp eq i32 %163, 0
  br label %165

; <label>:165:                                    ; preds = %161, %153
  %166 = phi i1 [ true, %153 ], [ %164, %161 ]
  %167 = xor i1 %166, true
  %168 = or i1 %157, %167
  br i1 %168, label %.loopexit5, label %169

; <label>:169:                                    ; preds = %165
  %170 = getelementptr inbounds %"struct.Halide::Runtime::Internal::work", %"struct.Halide::Runtime::Internal::work"* %128, i64 0, i32 10
  %171 = load i32, i32* %170, align 8, !tbaa !58
  %172 = getelementptr inbounds %"struct.Halide::Runtime::Internal::work", %"struct.Halide::Runtime::Internal::work"* %128, i64 0, i32 0, i32 4
  %173 = load i32, i32* %172, align 8, !tbaa !25
  %174 = icmp slt i32 %171, %173
  br i1 %174, label %175, label %.loopexit4

; <label>:175:                                    ; preds = %169
  %176 = getelementptr inbounds %"struct.Halide::Runtime::Internal::work", %"struct.Halide::Runtime::Internal::work"* %128, i64 0, i32 0, i32 3
  br label %177

; <label>:177:                                    ; preds = %186, %175
  %178 = phi i32 [ %171, %175 ], [ %188, %186 ]
  %179 = load %struct.halide_semaphore_acquire_t*, %struct.halide_semaphore_acquire_t** %176, align 8, !tbaa !24
  %180 = sext i32 %178 to i64
  %181 = getelementptr inbounds %struct.halide_semaphore_acquire_t, %struct.halide_semaphore_acquire_t* %179, i64 %180, i32 0
  %182 = load %struct.halide_semaphore_t*, %struct.halide_semaphore_t** %181, align 8, !tbaa !59
  %183 = getelementptr inbounds %struct.halide_semaphore_acquire_t, %struct.halide_semaphore_acquire_t* %179, i64 %180, i32 1
  %184 = load i32, i32* %183, align 8, !tbaa !61
  %185 = tail call zeroext i1 @halide_default_semaphore_try_acquire(%struct.halide_semaphore_t* %182, i32 %184) #13
  br i1 %185, label %186, label %.loopexit5

; <label>:186:                                    ; preds = %177
  %187 = load i32, i32* %170, align 8, !tbaa !58
  %188 = add nsw i32 %187, 1
  store i32 %188, i32* %170, align 8, !tbaa !58
  %189 = load i32, i32* %172, align 8, !tbaa !25
  %190 = icmp slt i32 %188, %189
  br i1 %190, label %177, label %.loopexit4

.loopexit5:                                       ; preds = %177, %165
  %191 = getelementptr inbounds %"struct.Halide::Runtime::Internal::work", %"struct.Halide::Runtime::Internal::work"* %128, i64 0, i32 2
  %192 = load %"struct.Halide::Runtime::Internal::work"*, %"struct.Halide::Runtime::Internal::work"** %191, align 8, !tbaa !54
  %193 = icmp eq %"struct.Halide::Runtime::Internal::work"* %192, null
  br i1 %193, label %.loopexit9, label %127

.loopexit9:                                       ; preds = %.loopexit5, %.loopexit3, %49
  br i1 %3, label %194, label %199

; <label>:194:                                    ; preds = %.loopexit9
  %195 = load i32, i32* getelementptr inbounds (%"struct.Halide::Runtime::Internal::work_queue_t", %"struct.Halide::Runtime::Internal::work_queue_t"* @_ZN6Halide7Runtime8Internal10work_queueE, i64 0, i32 12), align 4, !tbaa !53
  %196 = add nsw i32 %195, 1
  store i32 %196, i32* getelementptr inbounds (%"struct.Halide::Runtime::Internal::work_queue_t", %"struct.Halide::Runtime::Internal::work_queue_t"* @_ZN6Halide7Runtime8Internal10work_queueE, i64 0, i32 12), align 4, !tbaa !53
  store i8 1, i8* %8, align 4, !tbaa !62
  tail call void @halide_cond_wait(%struct.halide_mutex* getelementptr inbounds (%"struct.Halide::Runtime::Internal::work_queue_t", %"struct.Halide::Runtime::Internal::work_queue_t"* @_ZN6Halide7Runtime8Internal10work_queueE, i64 0, i32 10), %struct.halide_mutex* getelementptr inbounds (%"struct.Halide::Runtime::Internal::work_queue_t", %"struct.Halide::Runtime::Internal::work_queue_t"* @_ZN6Halide7Runtime8Internal10work_queueE, i64 0, i32 0)) #14
  store i8 0, i8* %8, align 4, !tbaa !62
  %197 = load i32, i32* getelementptr inbounds (%"struct.Halide::Runtime::Internal::work_queue_t", %"struct.Halide::Runtime::Internal::work_queue_t"* @_ZN6Halide7Runtime8Internal10work_queueE, i64 0, i32 12), align 4, !tbaa !53
  %198 = add nsw i32 %197, -1
  store i32 %198, i32* getelementptr inbounds (%"struct.Halide::Runtime::Internal::work_queue_t", %"struct.Halide::Runtime::Internal::work_queue_t"* @_ZN6Halide7Runtime8Internal10work_queueE, i64 0, i32 12), align 4, !tbaa !53
  br label %.backedge

; <label>:199:                                    ; preds = %.loopexit9
  %200 = load i32, i32* getelementptr inbounds (%"struct.Halide::Runtime::Internal::work_queue_t", %"struct.Halide::Runtime::Internal::work_queue_t"* @_ZN6Halide7Runtime8Internal10work_queueE, i64 0, i32 11), align 8, !tbaa !55
  %201 = add nsw i32 %200, 1
  store i32 %201, i32* getelementptr inbounds (%"struct.Halide::Runtime::Internal::work_queue_t", %"struct.Halide::Runtime::Internal::work_queue_t"* @_ZN6Halide7Runtime8Internal10work_queueE, i64 0, i32 11), align 8, !tbaa !55
  %202 = load i32, i32* getelementptr inbounds (%"struct.Halide::Runtime::Internal::work_queue_t", %"struct.Halide::Runtime::Internal::work_queue_t"* @_ZN6Halide7Runtime8Internal10work_queueE, i64 0, i32 5), align 4, !tbaa !49
  %203 = load i32, i32* getelementptr inbounds (%"struct.Halide::Runtime::Internal::work_queue_t", %"struct.Halide::Runtime::Internal::work_queue_t"* @_ZN6Halide7Runtime8Internal10work_queueE, i64 0, i32 6), align 8, !tbaa !56
  %204 = icmp sgt i32 %202, %203
  br i1 %204, label %205, label %209

; <label>:205:                                    ; preds = %199
  %206 = add nsw i32 %202, -1
  store i32 %206, i32* getelementptr inbounds (%"struct.Halide::Runtime::Internal::work_queue_t", %"struct.Halide::Runtime::Internal::work_queue_t"* @_ZN6Halide7Runtime8Internal10work_queueE, i64 0, i32 5), align 4, !tbaa !49
  tail call void @halide_cond_wait(%struct.halide_mutex* getelementptr inbounds (%"struct.Halide::Runtime::Internal::work_queue_t", %"struct.Halide::Runtime::Internal::work_queue_t"* @_ZN6Halide7Runtime8Internal10work_queueE, i64 0, i32 9), %struct.halide_mutex* getelementptr inbounds (%"struct.Halide::Runtime::Internal::work_queue_t", %"struct.Halide::Runtime::Internal::work_queue_t"* @_ZN6Halide7Runtime8Internal10work_queueE, i64 0, i32 0)) #14
  %207 = load i32, i32* getelementptr inbounds (%"struct.Halide::Runtime::Internal::work_queue_t", %"struct.Halide::Runtime::Internal::work_queue_t"* @_ZN6Halide7Runtime8Internal10work_queueE, i64 0, i32 5), align 4, !tbaa !49
  %208 = add nsw i32 %207, 1
  store i32 %208, i32* getelementptr inbounds (%"struct.Halide::Runtime::Internal::work_queue_t", %"struct.Halide::Runtime::Internal::work_queue_t"* @_ZN6Halide7Runtime8Internal10work_queueE, i64 0, i32 5), align 4, !tbaa !49
  br label %210

; <label>:209:                                    ; preds = %199
  tail call void @halide_cond_wait(%struct.halide_mutex* getelementptr inbounds (%"struct.Halide::Runtime::Internal::work_queue_t", %"struct.Halide::Runtime::Internal::work_queue_t"* @_ZN6Halide7Runtime8Internal10work_queueE, i64 0, i32 8), %struct.halide_mutex* getelementptr inbounds (%"struct.Halide::Runtime::Internal::work_queue_t", %"struct.Halide::Runtime::Internal::work_queue_t"* @_ZN6Halide7Runtime8Internal10work_queueE, i64 0, i32 0)) #14
  br label %210

; <label>:210:                                    ; preds = %209, %205
  %211 = load i32, i32* getelementptr inbounds (%"struct.Halide::Runtime::Internal::work_queue_t", %"struct.Halide::Runtime::Internal::work_queue_t"* @_ZN6Halide7Runtime8Internal10work_queueE, i64 0, i32 11), align 8, !tbaa !55
  %212 = add nsw i32 %211, -1
  store i32 %212, i32* getelementptr inbounds (%"struct.Halide::Runtime::Internal::work_queue_t", %"struct.Halide::Runtime::Internal::work_queue_t"* @_ZN6Halide7Runtime8Internal10work_queueE, i64 0, i32 11), align 8, !tbaa !55
  br label %.backedge

.loopexit4:                                       ; preds = %186, %169, %119, %102
  %.sink147 = phi %"struct.Halide::Runtime::Internal::work"* [ %54, %119 ], [ %128, %186 ], [ %54, %102 ], [ %128, %169 ]
  %213 = phi i32* [ %103, %119 ], [ %170, %186 ], [ %103, %102 ], [ %170, %169 ]
  %214 = phi %"struct.Halide::Runtime::Internal::work"** [ %55, %119 ], [ %129, %186 ], [ %55, %102 ], [ %129, %169 ]
  %215 = getelementptr inbounds %"struct.Halide::Runtime::Internal::work", %"struct.Halide::Runtime::Internal::work"* %.sink147, i64 0, i32 5
  %216 = getelementptr inbounds %"struct.Halide::Runtime::Internal::work", %"struct.Halide::Runtime::Internal::work"* %.sink147, i64 0, i32 0, i32 7
  store i32 0, i32* %213, align 8, !tbaa !58
  %217 = getelementptr inbounds %"struct.Halide::Runtime::Internal::work", %"struct.Halide::Runtime::Internal::work"* %.sink147, i64 0, i32 8
  %218 = load i32, i32* %217, align 8, !tbaa !50
  %219 = add nsw i32 %218, 1
  store i32 %219, i32* %217, align 8, !tbaa !50
  %220 = load %"struct.Halide::Runtime::Internal::work"*, %"struct.Halide::Runtime::Internal::work"** %215, align 8, !tbaa !33
  %221 = icmp eq %"struct.Halide::Runtime::Internal::work"* %220, null
  %222 = load i32, i32* %216, align 4, !tbaa !27
  br i1 %221, label %223, label %226

; <label>:223:                                    ; preds = %.loopexit4
  %224 = load i32, i32* getelementptr inbounds (%"struct.Halide::Runtime::Internal::work_queue_t", %"struct.Halide::Runtime::Internal::work_queue_t"* @_ZN6Halide7Runtime8Internal10work_queueE, i64 0, i32 16), align 4, !tbaa !48
  %225 = add nsw i32 %224, %222
  store i32 %225, i32* getelementptr inbounds (%"struct.Halide::Runtime::Internal::work_queue_t", %"struct.Halide::Runtime::Internal::work_queue_t"* @_ZN6Halide7Runtime8Internal10work_queueE, i64 0, i32 16), align 4, !tbaa !48
  br label %230

; <label>:226:                                    ; preds = %.loopexit4
  %227 = getelementptr inbounds %"struct.Halide::Runtime::Internal::work", %"struct.Halide::Runtime::Internal::work"* %220, i64 0, i32 6
  %228 = load i32, i32* %227, align 8, !tbaa !51
  %229 = add nsw i32 %228, %222
  store i32 %229, i32* %227, align 8, !tbaa !51
  br label %230

; <label>:230:                                    ; preds = %226, %223
  %231 = getelementptr inbounds %"struct.Halide::Runtime::Internal::work", %"struct.Halide::Runtime::Internal::work"* %.sink147, i64 0, i32 0, i32 8
  %232 = load i8, i8* %231, align 8, !tbaa !23, !range !14
  %233 = icmp eq i8 %232, 0
  br i1 %233, label %309, label %234

; <label>:234:                                    ; preds = %230
  %235 = getelementptr inbounds %"struct.Halide::Runtime::Internal::work", %"struct.Halide::Runtime::Internal::work"* %.sink147, i64 0, i32 2
  %236 = bitcast %"struct.Halide::Runtime::Internal::work"** %235 to i64*
  %237 = load i64, i64* %236, align 8, !tbaa !54
  %238 = bitcast %"struct.Halide::Runtime::Internal::work"** %214 to i64*
  store i64 %237, i64* %238, align 8, !tbaa !7
  tail call void @halide_mutex_unlock(%struct.halide_mutex* getelementptr inbounds (%"struct.Halide::Runtime::Internal::work_queue_t", %"struct.Halide::Runtime::Internal::work_queue_t"* @_ZN6Halide7Runtime8Internal10work_queueE, i64 0, i32 0)) #14
  %239 = getelementptr inbounds %"struct.Halide::Runtime::Internal::work", %"struct.Halide::Runtime::Internal::work"* %.sink147, i64 0, i32 0, i32 6
  %240 = getelementptr inbounds %"struct.Halide::Runtime::Internal::work", %"struct.Halide::Runtime::Internal::work"* %.sink147, i64 0, i32 10
  %241 = getelementptr inbounds %"struct.Halide::Runtime::Internal::work", %"struct.Halide::Runtime::Internal::work"* %.sink147, i64 0, i32 0, i32 4
  %242 = getelementptr inbounds %"struct.Halide::Runtime::Internal::work", %"struct.Halide::Runtime::Internal::work"* %.sink147, i64 0, i32 0, i32 3
  %243 = getelementptr inbounds %"struct.Halide::Runtime::Internal::work", %"struct.Halide::Runtime::Internal::work"* %.sink147, i64 0, i32 7
  %244 = getelementptr inbounds %"struct.Halide::Runtime::Internal::work", %"struct.Halide::Runtime::Internal::work"* %.sink147, i64 0, i32 0, i32 0
  %245 = getelementptr inbounds %"struct.Halide::Runtime::Internal::work", %"struct.Halide::Runtime::Internal::work"* %.sink147, i64 0, i32 0, i32 5
  %246 = getelementptr inbounds %"struct.Halide::Runtime::Internal::work", %"struct.Halide::Runtime::Internal::work"* %.sink147, i64 0, i32 0, i32 1
  %247 = bitcast %"struct.Halide::Runtime::Internal::work"* %.sink147 to i8*
  br label %248

; <label>:248:                                    ; preds = %.loopexit2, %234
  %249 = phi i32 [ 1, %234 ], [ 0, %.loopexit2 ]
  %250 = phi i32 [ 0, %234 ], [ %294, %.loopexit2 ]
  %251 = load i32, i32* %239, align 8, !tbaa !22
  %252 = sub nsw i32 %251, %250
  %253 = icmp sgt i32 %252, %249
  br i1 %253, label %254, label %.loopexit

; <label>:254:                                    ; preds = %248
  %255 = load i32, i32* %240, align 8, !tbaa !58
  %256 = load i32, i32* %241, align 8, !tbaa !25
  br label %257

; <label>:257:                                    ; preds = %279, %254
  %258 = phi i32 [ %251, %254 ], [ %280, %279 ]
  %259 = phi i32 [ %256, %254 ], [ %281, %279 ]
  %260 = phi i32 [ %255, %254 ], [ 0, %279 ]
  %261 = phi i32 [ %249, %254 ], [ %282, %279 ]
  %262 = icmp slt i32 %260, %259
  br i1 %262, label %.preheader, label %279

.preheader:                                       ; preds = %257
  br label %263

; <label>:263:                                    ; preds = %272, %.preheader
  %264 = phi i32 [ %274, %272 ], [ %260, %.preheader ]
  %265 = load %struct.halide_semaphore_acquire_t*, %struct.halide_semaphore_acquire_t** %242, align 8, !tbaa !24
  %266 = sext i32 %264 to i64
  %267 = getelementptr inbounds %struct.halide_semaphore_acquire_t, %struct.halide_semaphore_acquire_t* %265, i64 %266, i32 0
  %268 = load %struct.halide_semaphore_t*, %struct.halide_semaphore_t** %267, align 8, !tbaa !59
  %269 = getelementptr inbounds %struct.halide_semaphore_acquire_t, %struct.halide_semaphore_acquire_t* %265, i64 %266, i32 1
  %270 = load i32, i32* %269, align 8, !tbaa !61
  %271 = tail call zeroext i1 @halide_default_semaphore_try_acquire(%struct.halide_semaphore_t* %268, i32 %270) #13
  br i1 %271, label %272, label %.loopexit

; <label>:272:                                    ; preds = %263
  %273 = load i32, i32* %240, align 8, !tbaa !58
  %274 = add nsw i32 %273, 1
  store i32 %274, i32* %240, align 8, !tbaa !58
  %275 = load i32, i32* %241, align 8, !tbaa !25
  %276 = icmp slt i32 %274, %275
  br i1 %276, label %263, label %277

; <label>:277:                                    ; preds = %272
  %278 = load i32, i32* %239, align 8, !tbaa !22
  br label %279

; <label>:279:                                    ; preds = %277, %257
  %280 = phi i32 [ %278, %277 ], [ %258, %257 ]
  %281 = phi i32 [ %275, %277 ], [ %259, %257 ]
  store i32 0, i32* %240, align 8, !tbaa !58
  %282 = add nuw nsw i32 %261, 1
  %283 = sub nsw i32 %280, %250
  %284 = icmp sgt i32 %283, %282
  br i1 %284, label %257, label %.loopexit2

.loopexit:                                        ; preds = %263, %248
  %285 = phi i32 [ %249, %248 ], [ %261, %263 ]
  %286 = icmp eq i32 %285, 0
  br i1 %286, label %296, label %.loopexit2

.loopexit2:                                       ; preds = %.loopexit, %279
  %287 = phi i32 [ %285, %.loopexit ], [ %282, %279 ]
  %288 = load i8*, i8** %243, align 8, !tbaa !30
  %289 = load i32 (i8*, i32, i32, i8*, i8*)*, i32 (i8*, i32, i32, i8*, i8*)** %244, align 8, !tbaa !17
  %290 = load i32, i32* %245, align 4, !tbaa !21
  %291 = add nsw i32 %290, %250
  %292 = load i8*, i8** %246, align 8, !tbaa !26
  %293 = tail call i32 @halide_do_loop_task(i8* %288, i32 (i8*, i32, i32, i8*, i8*)* %289, i32 %291, i32 %287, i8* %292, i8* nonnull %247) #14
  %294 = add nuw nsw i32 %287, %250
  %295 = icmp eq i32 %293, 0
  br i1 %295, label %248, label %296

; <label>:296:                                    ; preds = %.loopexit2, %.loopexit
  %297 = phi i32 [ %250, %.loopexit ], [ %294, %.loopexit2 ]
  %298 = phi i32 [ 0, %.loopexit ], [ %293, %.loopexit2 ]
  %299 = phi i1 [ true, %.loopexit ], [ false, %.loopexit2 ]
  tail call void @halide_mutex_lock(%struct.halide_mutex* getelementptr inbounds (%"struct.Halide::Runtime::Internal::work_queue_t", %"struct.Halide::Runtime::Internal::work_queue_t"* @_ZN6Halide7Runtime8Internal10work_queueE, i64 0, i32 0)) #14
  %300 = load i32, i32* %245, align 4, !tbaa !21
  %301 = add nsw i32 %300, %297
  store i32 %301, i32* %245, align 4, !tbaa !21
  %302 = load i32, i32* %239, align 8, !tbaa !22
  %303 = sub nsw i32 %302, %297
  store i32 %303, i32* %239, align 8, !tbaa !22
  br i1 %299, label %305, label %304

; <label>:304:                                    ; preds = %296
  store i32 0, i32* %239, align 8, !tbaa !22
  br label %340

; <label>:305:                                    ; preds = %296
  %306 = icmp sgt i32 %303, 0
  br i1 %306, label %307, label %.loopexit7

; <label>:307:                                    ; preds = %305
  %308 = load i64, i64* bitcast (%"struct.Halide::Runtime::Internal::work"** getelementptr inbounds (%"struct.Halide::Runtime::Internal::work_queue_t", %"struct.Halide::Runtime::Internal::work_queue_t"* @_ZN6Halide7Runtime8Internal10work_queueE, i64 0, i32 3) to i64*), align 8, !tbaa !52
  store i64 %308, i64* %236, align 8, !tbaa !54
  store %"struct.Halide::Runtime::Internal::work"* %.sink147, %"struct.Halide::Runtime::Internal::work"** getelementptr inbounds (%"struct.Halide::Runtime::Internal::work_queue_t", %"struct.Halide::Runtime::Internal::work_queue_t"* @_ZN6Halide7Runtime8Internal10work_queueE, i64 0, i32 3), align 8, !tbaa !52
  br label %.loopexit7

; <label>:309:                                    ; preds = %230
  %310 = getelementptr inbounds %"struct.Halide::Runtime::Internal::work", %"struct.Halide::Runtime::Internal::work"* %.sink147, i64 0, i32 0, i32 0
  %311 = load i32 (i8*, i32, i32, i8*, i8*)*, i32 (i8*, i32, i32, i8*, i8*)** %310, align 8
  %312 = getelementptr inbounds %"struct.Halide::Runtime::Internal::work", %"struct.Halide::Runtime::Internal::work"* %.sink147, i64 0, i32 0, i32 1
  %313 = load i8*, i8** %312, align 8
  %314 = getelementptr inbounds %"struct.Halide::Runtime::Internal::work", %"struct.Halide::Runtime::Internal::work"* %.sink147, i64 0, i32 0, i32 5
  %315 = load i32, i32* %314, align 4
  %316 = getelementptr inbounds %"struct.Halide::Runtime::Internal::work", %"struct.Halide::Runtime::Internal::work"* %.sink147, i64 0, i32 1
  %317 = load i32 (i8*, i32, i8*)*, i32 (i8*, i32, i8*)** %316, align 8
  %318 = getelementptr inbounds %"struct.Halide::Runtime::Internal::work", %"struct.Halide::Runtime::Internal::work"* %.sink147, i64 0, i32 7
  %319 = load i8*, i8** %318, align 8
  %320 = add nsw i32 %315, 1
  store i32 %320, i32* %314, align 4, !tbaa !21
  %321 = getelementptr inbounds %"struct.Halide::Runtime::Internal::work", %"struct.Halide::Runtime::Internal::work"* %.sink147, i64 0, i32 0, i32 6
  %322 = load i32, i32* %321, align 8, !tbaa !22
  %323 = add nsw i32 %322, -1
  store i32 %323, i32* %321, align 8, !tbaa !22
  %324 = icmp eq i32 %323, 0
  br i1 %324, label %325, label %330

; <label>:325:                                    ; preds = %309
  %326 = getelementptr inbounds %"struct.Halide::Runtime::Internal::work", %"struct.Halide::Runtime::Internal::work"* %.sink147, i64 0, i32 2
  %327 = bitcast %"struct.Halide::Runtime::Internal::work"** %326 to i64*
  %328 = load i64, i64* %327, align 8, !tbaa !54
  %329 = bitcast %"struct.Halide::Runtime::Internal::work"** %214 to i64*
  store i64 %328, i64* %329, align 8, !tbaa !7
  br label %330

; <label>:330:                                    ; preds = %325, %309
  tail call void @halide_mutex_unlock(%struct.halide_mutex* getelementptr inbounds (%"struct.Halide::Runtime::Internal::work_queue_t", %"struct.Halide::Runtime::Internal::work_queue_t"* @_ZN6Halide7Runtime8Internal10work_queueE, i64 0, i32 0)) #14
  %331 = icmp eq i32 (i8*, i32, i8*)* %317, null
  br i1 %331, label %334, label %332

; <label>:332:                                    ; preds = %330
  %333 = tail call i32 @halide_do_task(i8* %319, i32 (i8*, i32, i8*)* nonnull %317, i32 %315, i8* %313) #14
  br label %337

; <label>:334:                                    ; preds = %330
  %335 = bitcast %"struct.Halide::Runtime::Internal::work"* %.sink147 to i8*
  %336 = tail call i32 @halide_do_loop_task(i8* %319, i32 (i8*, i32, i32, i8*, i8*)* %311, i32 %315, i32 1, i8* %313, i8* %335) #14
  br label %337

; <label>:337:                                    ; preds = %334, %332
  %338 = phi i32 [ %333, %332 ], [ %336, %334 ]
  tail call void @halide_mutex_lock(%struct.halide_mutex* getelementptr inbounds (%"struct.Halide::Runtime::Internal::work_queue_t", %"struct.Halide::Runtime::Internal::work_queue_t"* @_ZN6Halide7Runtime8Internal10work_queueE, i64 0, i32 0)) #14
  %339 = icmp eq i32 %338, 0
  br i1 %339, label %.loopexit7, label %340

; <label>:340:                                    ; preds = %337, %304
  %341 = phi i32 [ %298, %304 ], [ %338, %337 ]
  %342 = getelementptr inbounds %"struct.Halide::Runtime::Internal::work", %"struct.Halide::Runtime::Internal::work"* %.sink147, i64 0, i32 9
  store i32 %341, i32* %342, align 4, !tbaa !34
  %343 = getelementptr inbounds %"struct.Halide::Runtime::Internal::work", %"struct.Halide::Runtime::Internal::work"* %.sink147, i64 0, i32 4
  %344 = load i32, i32* %343, align 8, !tbaa !32
  %345 = icmp sgt i32 %344, 0
  br i1 %345, label %346, label %.loopexit7

; <label>:346:                                    ; preds = %340
  %347 = getelementptr inbounds %"struct.Halide::Runtime::Internal::work", %"struct.Halide::Runtime::Internal::work"* %.sink147, i64 0, i32 3
  %348 = load %"struct.Halide::Runtime::Internal::work"*, %"struct.Halide::Runtime::Internal::work"** %347, align 8, !tbaa !31
  %349 = sext i32 %344 to i64
  br label %350

; <label>:350:                                    ; preds = %366, %346
  %351 = phi i64 [ 0, %346 ], [ %368, %366 ]
  %352 = phi i8 [ 0, %346 ], [ %367, %366 ]
  %353 = getelementptr inbounds %"struct.Halide::Runtime::Internal::work", %"struct.Halide::Runtime::Internal::work"* %348, i64 %351, i32 9
  %354 = load i32, i32* %353, align 4, !tbaa !34
  %355 = icmp eq i32 %354, 0
  br i1 %355, label %356, label %366

; <label>:356:                                    ; preds = %350
  store i32 %341, i32* %353, align 4, !tbaa !34
  %357 = load i32, i32* %217, align 8, !tbaa !50
  %358 = icmp eq i32 %357, 0
  br i1 %358, label %359, label %362

; <label>:359:                                    ; preds = %356
  %360 = getelementptr inbounds %"struct.Halide::Runtime::Internal::work", %"struct.Halide::Runtime::Internal::work"* %348, i64 %351, i32 11
  %361 = load i8, i8* %360, align 4, !tbaa !62, !range !14
  br label %362

; <label>:362:                                    ; preds = %359, %356
  %363 = phi i8 [ 0, %356 ], [ %361, %359 ]
  %364 = and i8 %352, 1
  %365 = or i8 %363, %364
  br label %366

; <label>:366:                                    ; preds = %362, %350
  %367 = phi i8 [ %365, %362 ], [ %352, %350 ]
  %368 = add nuw nsw i64 %351, 1
  %exitcond = icmp eq i64 %368, %349
  br i1 %exitcond, label %.loopexit7, label %350

.loopexit7:                                       ; preds = %366, %340, %337, %307, %305
  %369 = phi i8 [ 0, %337 ], [ 0, %305 ], [ 0, %307 ], [ 0, %340 ], [ %367, %366 ]
  %370 = load %"struct.Halide::Runtime::Internal::work"*, %"struct.Halide::Runtime::Internal::work"** %215, align 8, !tbaa !33
  %371 = icmp eq %"struct.Halide::Runtime::Internal::work"* %370, null
  %372 = load i32, i32* %216, align 4, !tbaa !27
  br i1 %371, label %373, label %376

; <label>:373:                                    ; preds = %.loopexit7
  %374 = load i32, i32* getelementptr inbounds (%"struct.Halide::Runtime::Internal::work_queue_t", %"struct.Halide::Runtime::Internal::work_queue_t"* @_ZN6Halide7Runtime8Internal10work_queueE, i64 0, i32 16), align 4, !tbaa !48
  %375 = sub nsw i32 %374, %372
  store i32 %375, i32* getelementptr inbounds (%"struct.Halide::Runtime::Internal::work_queue_t", %"struct.Halide::Runtime::Internal::work_queue_t"* @_ZN6Halide7Runtime8Internal10work_queueE, i64 0, i32 16), align 4, !tbaa !48
  br label %380

; <label>:376:                                    ; preds = %.loopexit7
  %377 = getelementptr inbounds %"struct.Halide::Runtime::Internal::work", %"struct.Halide::Runtime::Internal::work"* %370, i64 0, i32 6
  %378 = load i32, i32* %377, align 8, !tbaa !51
  %379 = sub nsw i32 %378, %372
  store i32 %379, i32* %377, align 8, !tbaa !51
  br label %380

; <label>:380:                                    ; preds = %376, %373
  %381 = load i32, i32* %217, align 8, !tbaa !50
  %382 = add nsw i32 %381, -1
  store i32 %382, i32* %217, align 8, !tbaa !50
  %383 = and i8 %369, 1
  %384 = icmp eq i8 %383, 0
  br i1 %384, label %385, label %399

; <label>:385:                                    ; preds = %380
  %386 = icmp eq i32 %382, 0
  br i1 %386, label %387, label %.backedge

; <label>:387:                                    ; preds = %385
  %388 = getelementptr inbounds %"struct.Halide::Runtime::Internal::work", %"struct.Halide::Runtime::Internal::work"* %.sink147, i64 0, i32 0, i32 6
  %389 = load i32, i32* %388, align 8, !tbaa !22
  %390 = icmp eq i32 %389, 0
  br i1 %390, label %395, label %391

; <label>:391:                                    ; preds = %387
  %392 = getelementptr inbounds %"struct.Halide::Runtime::Internal::work", %"struct.Halide::Runtime::Internal::work"* %.sink147, i64 0, i32 9
  %393 = load i32, i32* %392, align 4, !tbaa !34
  %394 = icmp eq i32 %393, 0
  br i1 %394, label %.backedge, label %395

; <label>:395:                                    ; preds = %391, %387
  %396 = getelementptr inbounds %"struct.Halide::Runtime::Internal::work", %"struct.Halide::Runtime::Internal::work"* %.sink147, i64 0, i32 11
  %397 = load i8, i8* %396, align 4, !tbaa !62, !range !14
  %398 = icmp eq i8 %397, 0
  br i1 %398, label %.backedge, label %399

; <label>:399:                                    ; preds = %395, %380
  tail call void @halide_cond_broadcast(%struct.halide_mutex* getelementptr inbounds (%"struct.Halide::Runtime::Internal::work_queue_t", %"struct.Halide::Runtime::Internal::work_queue_t"* @_ZN6Halide7Runtime8Internal10work_queueE, i64 0, i32 10)) #14
  br label %.backedge

.backedge:                                        ; preds = %399, %395, %391, %385, %210, %194, %48, %.loopexit12
  br label %9

; <label>:400:                                    ; preds = %16, %13
  ret void
}

; Function Attrs: nounwind
define weak void @halide_mutex_unlock(%struct.halide_mutex*) local_unnamed_addr #0 {
  %2 = alloca %"struct.Halide::Runtime::Internal::Synchronization::mutex_parking_control", align 8
  %3 = getelementptr inbounds %struct.halide_mutex, %struct.halide_mutex* %0, i64 0, i32 0, i64 0
  %4 = cmpxchg weak i64* %3, i64 1, i64 0 release monotonic
  %5 = extractvalue { i64, i1 } %4, 1
  br i1 %5, label %19, label %6

; <label>:6:                                      ; preds = %1
  %7 = cmpxchg i64* %3, i64 1, i64 0 release monotonic
  %8 = extractvalue { i64, i1 } %7, 1
  br i1 %8, label %19, label %9

; <label>:9:                                      ; preds = %6
  %10 = bitcast %"struct.Halide::Runtime::Internal::Synchronization::mutex_parking_control"* %2 to i8*
  call void @llvm.lifetime.start.p0i8(i64 40, i8* nonnull %10) #11
  %11 = getelementptr inbounds %"struct.Halide::Runtime::Internal::Synchronization::mutex_parking_control", %"struct.Halide::Runtime::Internal::Synchronization::mutex_parking_control"* %2, i64 0, i32 0, i32 0
  %12 = getelementptr inbounds %"struct.Halide::Runtime::Internal::Synchronization::mutex_parking_control", %"struct.Halide::Runtime::Internal::Synchronization::mutex_parking_control"* %2, i64 0, i32 0, i32 1
  store void (i8*)* @_ZN6Halide7Runtime8Internal15Synchronization28parking_control_before_sleepEPv, void (i8*)** %12, align 8, !tbaa !35
  %13 = getelementptr inbounds %"struct.Halide::Runtime::Internal::Synchronization::mutex_parking_control", %"struct.Halide::Runtime::Internal::Synchronization::mutex_parking_control"* %2, i64 0, i32 0, i32 2
  %14 = getelementptr inbounds %"struct.Halide::Runtime::Internal::Synchronization::mutex_parking_control", %"struct.Halide::Runtime::Internal::Synchronization::mutex_parking_control"* %2, i64 0, i32 0, i32 3
  store void (i8*, %"struct.Halide::Runtime::Internal::Synchronization::validate_action"*, i1, i1)* @_ZN6Halide7Runtime8Internal15Synchronization32parking_control_requeue_callbackEPvRKNS2_15validate_actionEbb, void (i8*, %"struct.Halide::Runtime::Internal::Synchronization::validate_action"*, i1, i1)** %14, align 8, !tbaa !37
  %15 = getelementptr inbounds %"struct.Halide::Runtime::Internal::Synchronization::mutex_parking_control", %"struct.Halide::Runtime::Internal::Synchronization::mutex_parking_control"* %2, i64 0, i32 1
  store i64* %3, i64** %15, align 8, !tbaa !38
  store i1 (i8*, %"struct.Halide::Runtime::Internal::Synchronization::validate_action"*)* @_ZN6Halide7Runtime8Internal15Synchronization30mutex_parking_control_validateEPvRNS2_15validate_actionE, i1 (i8*, %"struct.Halide::Runtime::Internal::Synchronization::validate_action"*)** %11, align 8, !tbaa !40
  store i64 (i8*, i32, i1)* @_ZN6Halide7Runtime8Internal15Synchronization28mutex_parking_control_unparkEPvib, i64 (i8*, i32, i1)** %13, align 8, !tbaa !41
  %16 = ptrtoint %struct.halide_mutex* %0 to i64
  %17 = getelementptr inbounds %"struct.Halide::Runtime::Internal::Synchronization::mutex_parking_control", %"struct.Halide::Runtime::Internal::Synchronization::mutex_parking_control"* %2, i64 0, i32 0
  %18 = call i64 @_ZN6Halide7Runtime8Internal15Synchronization10unpark_oneEyRNS2_15parking_controlE(i64 %16, %"struct.Halide::Runtime::Internal::Synchronization::parking_control"* nonnull dereferenceable(32) %17) #13
  call void @llvm.lifetime.end.p0i8(i64 40, i8* nonnull %10) #11
  br label %19

; <label>:19:                                     ; preds = %9, %6, %1
  ret void
}

; Function Attrs: norecurse nounwind
define linkonce void @_ZN6Halide7Runtime8Internal15Synchronization28parking_control_before_sleepEPv(i8*) #2 {
  ret void
}

; Function Attrs: norecurse nounwind
define linkonce void @_ZN6Halide7Runtime8Internal15Synchronization32parking_control_requeue_callbackEPvRKNS2_15validate_actionEbb(i8*, %"struct.Halide::Runtime::Internal::Synchronization::validate_action"* dereferenceable(16), i1 zeroext, i1 zeroext) #2 {
  ret void
}

; Function Attrs: norecurse nounwind
define linkonce zeroext i1 @_ZN6Halide7Runtime8Internal15Synchronization30mutex_parking_control_validateEPvRNS2_15validate_actionE(i8*, %"struct.Halide::Runtime::Internal::Synchronization::validate_action"* dereferenceable(16)) #2 {
  %3 = getelementptr inbounds i8, i8* %0, i64 32
  %4 = bitcast i8* %3 to i64**
  %5 = load i64*, i64** %4, align 8, !tbaa !38
  %6 = load atomic i64, i64* %5 monotonic, align 8
  %7 = icmp eq i64 %6, 3
  ret i1 %7
}

; Function Attrs: norecurse nounwind
define linkonce i64 @_ZN6Halide7Runtime8Internal15Synchronization28mutex_parking_control_unparkEPvib(i8*, i32, i1 zeroext) #2 {
  %4 = select i1 %2, i64 2, i64 0
  %5 = getelementptr inbounds i8, i8* %0, i64 32
  %6 = bitcast i8* %5 to i64**
  %7 = load i64*, i64** %6, align 8, !tbaa !38
  store atomic i64 %4, i64* %7 release, align 8
  ret i64 0
}

; Function Attrs: nounwind
define linkonce i64 @_ZN6Halide7Runtime8Internal15Synchronization10unpark_oneEyRNS2_15parking_controlE(i64, %"struct.Halide::Runtime::Internal::Synchronization::parking_control"* dereferenceable(32)) local_unnamed_addr #0 {
  %3 = tail call dereferenceable(24) %"struct.Halide::Runtime::Internal::Synchronization::hash_bucket"* @_ZN6Halide7Runtime8Internal15Synchronization11lock_bucketEy(i64 %0) #14
  %4 = getelementptr inbounds %"struct.Halide::Runtime::Internal::Synchronization::hash_bucket", %"struct.Halide::Runtime::Internal::Synchronization::hash_bucket"* %3, i64 0, i32 1
  %5 = load %"struct.Halide::Runtime::Internal::Synchronization::queue_data"*, %"struct.Halide::Runtime::Internal::Synchronization::queue_data"** %4, align 8, !tbaa !7
  %6 = icmp eq %"struct.Halide::Runtime::Internal::Synchronization::queue_data"* %5, null
  br i1 %6, label %.loopexit, label %.preheader33

.preheader33:                                     ; preds = %2
  br label %9

; <label>:7:                                      ; preds = %9
  %8 = icmp eq %"struct.Halide::Runtime::Internal::Synchronization::queue_data"* %17, null
  br i1 %8, label %.loopexit, label %9

; <label>:9:                                      ; preds = %7, %.preheader33
  %10 = phi %"struct.Halide::Runtime::Internal::Synchronization::queue_data"* [ %17, %7 ], [ %5, %.preheader33 ]
  %11 = phi %"struct.Halide::Runtime::Internal::Synchronization::queue_data"* [ %10, %7 ], [ null, %.preheader33 ]
  %12 = phi %"struct.Halide::Runtime::Internal::Synchronization::queue_data"** [ %16, %7 ], [ %4, %.preheader33 ]
  %13 = getelementptr inbounds %"struct.Halide::Runtime::Internal::Synchronization::queue_data", %"struct.Halide::Runtime::Internal::Synchronization::queue_data"* %10, i64 0, i32 1
  %14 = load atomic i64, i64* %13 monotonic, align 8
  %15 = icmp eq i64 %14, %0
  %16 = getelementptr inbounds %"struct.Halide::Runtime::Internal::Synchronization::queue_data", %"struct.Halide::Runtime::Internal::Synchronization::queue_data"* %10, i64 0, i32 2
  %17 = load %"struct.Halide::Runtime::Internal::Synchronization::queue_data"*, %"struct.Halide::Runtime::Internal::Synchronization::queue_data"** %16, align 8, !tbaa !63
  br i1 %15, label %18, label %7

; <label>:18:                                     ; preds = %9
  store %"struct.Halide::Runtime::Internal::Synchronization::queue_data"* %17, %"struct.Halide::Runtime::Internal::Synchronization::queue_data"** %12, align 8, !tbaa !7
  %19 = getelementptr inbounds %"struct.Halide::Runtime::Internal::Synchronization::hash_bucket", %"struct.Halide::Runtime::Internal::Synchronization::hash_bucket"* %3, i64 0, i32 2
  %20 = load %"struct.Halide::Runtime::Internal::Synchronization::queue_data"*, %"struct.Halide::Runtime::Internal::Synchronization::queue_data"** %19, align 8, !tbaa !69
  %21 = icmp eq %"struct.Halide::Runtime::Internal::Synchronization::queue_data"* %20, %10
  br i1 %21, label %22, label %23

; <label>:22:                                     ; preds = %18
  store %"struct.Halide::Runtime::Internal::Synchronization::queue_data"* %11, %"struct.Halide::Runtime::Internal::Synchronization::queue_data"** %19, align 8, !tbaa !69
  br label %37

; <label>:23:                                     ; preds = %18
  %24 = icmp eq %"struct.Halide::Runtime::Internal::Synchronization::queue_data"* %17, null
  br i1 %24, label %37, label %.preheader

.preheader:                                       ; preds = %23
  br label %25

; <label>:25:                                     ; preds = %25, %.preheader
  %26 = phi %"struct.Halide::Runtime::Internal::Synchronization::queue_data"* [ %31, %25 ], [ %17, %.preheader ]
  %27 = getelementptr inbounds %"struct.Halide::Runtime::Internal::Synchronization::queue_data", %"struct.Halide::Runtime::Internal::Synchronization::queue_data"* %26, i64 0, i32 1
  %28 = load atomic i64, i64* %27 monotonic, align 8
  %29 = icmp eq i64 %28, %0
  %30 = getelementptr inbounds %"struct.Halide::Runtime::Internal::Synchronization::queue_data", %"struct.Halide::Runtime::Internal::Synchronization::queue_data"* %26, i64 0, i32 2
  %31 = load %"struct.Halide::Runtime::Internal::Synchronization::queue_data"*, %"struct.Halide::Runtime::Internal::Synchronization::queue_data"** %30, align 8, !tbaa !63
  %32 = icmp ne %"struct.Halide::Runtime::Internal::Synchronization::queue_data"* %31, null
  %33 = xor i1 %29, true
  %34 = and i1 %32, %33
  br i1 %34, label %25, label %35

; <label>:35:                                     ; preds = %25
  %36 = zext i1 %29 to i8
  br label %37

; <label>:37:                                     ; preds = %35, %23, %22
  %38 = phi i8 [ 0, %22 ], [ %36, %35 ], [ 0, %23 ]
  %39 = getelementptr inbounds %"struct.Halide::Runtime::Internal::Synchronization::parking_control", %"struct.Halide::Runtime::Internal::Synchronization::parking_control"* %1, i64 0, i32 2
  %40 = load i64 (i8*, i32, i1)*, i64 (i8*, i32, i1)** %39, align 8, !tbaa !41
  %41 = bitcast %"struct.Halide::Runtime::Internal::Synchronization::parking_control"* %1 to i8*
  %42 = icmp ne i8 %38, 0
  %43 = tail call i64 %40(i8* nonnull %41, i32 1, i1 zeroext %42) #13
  %44 = getelementptr inbounds %"struct.Halide::Runtime::Internal::Synchronization::queue_data", %"struct.Halide::Runtime::Internal::Synchronization::queue_data"* %10, i64 0, i32 3
  store i64 %43, i64* %44, align 8, !tbaa !72
  %45 = getelementptr inbounds %"struct.Halide::Runtime::Internal::Synchronization::queue_data", %"struct.Halide::Runtime::Internal::Synchronization::queue_data"* %10, i64 0, i32 0, i32 0
  %46 = tail call i32 @pthread_mutex_lock(%struct.pthread_mutex_t* nonnull %45) #13
  %47 = getelementptr inbounds %"struct.Halide::Runtime::Internal::Synchronization::hash_bucket", %"struct.Halide::Runtime::Internal::Synchronization::hash_bucket"* %3, i64 0, i32 0, i32 0
  %48 = atomicrmw and i64* %47, i64 -2 release
  %49 = and i64 %48, 2
  %50 = icmp eq i64 %49, 0
  %51 = icmp ugt i64 %48, 3
  %52 = and i1 %51, %50
  br i1 %52, label %53, label %55

; <label>:53:                                     ; preds = %37
  %54 = getelementptr inbounds %"struct.Halide::Runtime::Internal::Synchronization::hash_bucket", %"struct.Halide::Runtime::Internal::Synchronization::hash_bucket"* %3, i64 0, i32 0
  tail call void @_ZN6Halide7Runtime8Internal15Synchronization9word_lock11unlock_fullEv(%"class.Halide::Runtime::Internal::Synchronization::word_lock"* nonnull %54) #13
  br label %55

; <label>:55:                                     ; preds = %53, %37
  %56 = getelementptr inbounds %"struct.Halide::Runtime::Internal::Synchronization::queue_data", %"struct.Halide::Runtime::Internal::Synchronization::queue_data"* %10, i64 0, i32 0, i32 2
  store i8 0, i8* %56, align 8, !tbaa !73
  %57 = getelementptr inbounds %"struct.Halide::Runtime::Internal::Synchronization::queue_data", %"struct.Halide::Runtime::Internal::Synchronization::queue_data"* %10, i64 0, i32 0, i32 1
  %58 = tail call i32 @pthread_cond_signal(%struct.pthread_mutex_t* nonnull %57) #13
  %59 = tail call i32 @pthread_mutex_unlock(%struct.pthread_mutex_t* nonnull %45) #13
  %60 = zext i8 %38 to i64
  br label %73

.loopexit:                                        ; preds = %7, %2
  %61 = getelementptr inbounds %"struct.Halide::Runtime::Internal::Synchronization::parking_control", %"struct.Halide::Runtime::Internal::Synchronization::parking_control"* %1, i64 0, i32 2
  %62 = load i64 (i8*, i32, i1)*, i64 (i8*, i32, i1)** %61, align 8, !tbaa !41
  %63 = bitcast %"struct.Halide::Runtime::Internal::Synchronization::parking_control"* %1 to i8*
  %64 = tail call i64 %62(i8* nonnull %63, i32 0, i1 zeroext false) #13
  %65 = getelementptr inbounds %"struct.Halide::Runtime::Internal::Synchronization::hash_bucket", %"struct.Halide::Runtime::Internal::Synchronization::hash_bucket"* %3, i64 0, i32 0, i32 0
  %66 = atomicrmw and i64* %65, i64 -2 release
  %67 = and i64 %66, 2
  %68 = icmp eq i64 %67, 0
  %69 = icmp ugt i64 %66, 3
  %70 = and i1 %69, %68
  br i1 %70, label %71, label %73

; <label>:71:                                     ; preds = %.loopexit
  %72 = getelementptr inbounds %"struct.Halide::Runtime::Internal::Synchronization::hash_bucket", %"struct.Halide::Runtime::Internal::Synchronization::hash_bucket"* %3, i64 0, i32 0
  tail call void @_ZN6Halide7Runtime8Internal15Synchronization9word_lock11unlock_fullEv(%"class.Halide::Runtime::Internal::Synchronization::word_lock"* nonnull %72) #13
  br label %73

; <label>:73:                                     ; preds = %71, %.loopexit, %55
  %74 = phi i64 [ %60, %55 ], [ 0, %.loopexit ], [ 0, %71 ]
  ret i64 %74
}

; Function Attrs: nounwind
define linkonce dereferenceable(24) %"struct.Halide::Runtime::Internal::Synchronization::hash_bucket"* @_ZN6Halide7Runtime8Internal15Synchronization11lock_bucketEy(i64) local_unnamed_addr #0 {
  %2 = mul i64 %0, -7046029254386353131
  %3 = lshr i64 %2, 54
  %4 = getelementptr inbounds [1024 x %"struct.Halide::Runtime::Internal::Synchronization::hash_bucket"], [1024 x %"struct.Halide::Runtime::Internal::Synchronization::hash_bucket"]* bitcast ([24576 x i8]* @_ZN6Halide7Runtime8Internal15Synchronization13table_storageE to [1024 x %"struct.Halide::Runtime::Internal::Synchronization::hash_bucket"]*), i64 0, i64 %3
  %5 = getelementptr inbounds %"struct.Halide::Runtime::Internal::Synchronization::hash_bucket", %"struct.Halide::Runtime::Internal::Synchronization::hash_bucket"* %4, i64 0, i32 0, i32 0
  %6 = cmpxchg weak i64* %5, i64 0, i64 1 acquire monotonic
  %7 = extractvalue { i64, i1 } %6, 1
  br i1 %7, label %10, label %8

; <label>:8:                                      ; preds = %1
  %9 = getelementptr inbounds %"struct.Halide::Runtime::Internal::Synchronization::hash_bucket", %"struct.Halide::Runtime::Internal::Synchronization::hash_bucket"* %4, i64 0, i32 0
  tail call void @_ZN6Halide7Runtime8Internal15Synchronization9word_lock9lock_fullEv(%"class.Halide::Runtime::Internal::Synchronization::word_lock"* %9) #13
  br label %10

; <label>:10:                                     ; preds = %8, %1
  ret %"struct.Halide::Runtime::Internal::Synchronization::hash_bucket"* %4
}

declare i32 @pthread_mutex_lock(%struct.pthread_mutex_t*) local_unnamed_addr #4

; Function Attrs: nounwind
define linkonce void @_ZN6Halide7Runtime8Internal15Synchronization9word_lock11unlock_fullEv(%"class.Halide::Runtime::Internal::Synchronization::word_lock"*) local_unnamed_addr #0 align 2 {
  %2 = getelementptr inbounds %"class.Halide::Runtime::Internal::Synchronization::word_lock", %"class.Halide::Runtime::Internal::Synchronization::word_lock"* %0, i64 0, i32 0
  %3 = load atomic i64, i64* %2 monotonic, align 8
  %4 = and i64 %3, 2
  %5 = icmp ne i64 %4, 0
  %6 = icmp ult i64 %3, 4
  %7 = or i1 %6, %5
  br i1 %7, label %.loopexit2, label %.preheader74

.preheader74:                                     ; preds = %1
  br label %8

; <label>:8:                                      ; preds = %13, %.preheader74
  %9 = phi i64 [ %14, %13 ], [ %3, %.preheader74 ]
  %10 = or i64 %9, 2
  %11 = cmpxchg weak i64* %2, i64 %9, i64 %10 acquire monotonic
  %12 = extractvalue { i64, i1 } %11, 1
  br i1 %12, label %.preheader72, label %13

.preheader72:                                     ; preds = %8
  br label %19

; <label>:13:                                     ; preds = %8
  %14 = extractvalue { i64, i1 } %11, 0
  %15 = and i64 %14, 2
  %16 = icmp ne i64 %15, 0
  %17 = icmp ult i64 %14, 4
  %18 = or i1 %17, %16
  br i1 %18, label %.loopexit2, label %8

; <label>:19:                                     ; preds = %.backedge, %.preheader72
  %20 = phi i64 [ %9, %.preheader72 ], [ %.be, %.backedge ]
  %21 = and i64 %20, -4
  %22 = inttoptr i64 %21 to %"struct.Halide::Runtime::Internal::Synchronization::word_lock_queue_data"*
  %23 = getelementptr inbounds %"struct.Halide::Runtime::Internal::Synchronization::word_lock_queue_data", %"struct.Halide::Runtime::Internal::Synchronization::word_lock_queue_data"* %22, i64 0, i32 3
  %24 = load %"struct.Halide::Runtime::Internal::Synchronization::word_lock_queue_data"*, %"struct.Halide::Runtime::Internal::Synchronization::word_lock_queue_data"** %23, align 8, !tbaa !74
  %25 = icmp eq %"struct.Halide::Runtime::Internal::Synchronization::word_lock_queue_data"* %24, null
  br i1 %25, label %.preheader71, label %.loopexit1

.preheader71:                                     ; preds = %19
  br label %26

; <label>:26:                                     ; preds = %32, %.preheader71
  %27 = phi %"struct.Halide::Runtime::Internal::Synchronization::word_lock_queue_data"* [ %29, %32 ], [ %22, %.preheader71 ]
  %28 = getelementptr inbounds %"struct.Halide::Runtime::Internal::Synchronization::word_lock_queue_data", %"struct.Halide::Runtime::Internal::Synchronization::word_lock_queue_data"* %27, i64 0, i32 1
  %29 = load %"struct.Halide::Runtime::Internal::Synchronization::word_lock_queue_data"*, %"struct.Halide::Runtime::Internal::Synchronization::word_lock_queue_data"** %28, align 8, !tbaa !76
  %30 = icmp eq %"struct.Halide::Runtime::Internal::Synchronization::word_lock_queue_data"* %29, null
  br i1 %30, label %31, label %32

; <label>:31:                                     ; preds = %26
  tail call void @halide_print(i8* null, i8* getelementptr inbounds ([140 x i8], [140 x i8]* @.str.5, i64 0, i64 0)) #13
  tail call void @abort() #13
  br label %32

; <label>:32:                                     ; preds = %31, %26
  %33 = getelementptr inbounds %"struct.Halide::Runtime::Internal::Synchronization::word_lock_queue_data", %"struct.Halide::Runtime::Internal::Synchronization::word_lock_queue_data"* %29, i64 0, i32 2
  store %"struct.Halide::Runtime::Internal::Synchronization::word_lock_queue_data"* %27, %"struct.Halide::Runtime::Internal::Synchronization::word_lock_queue_data"** %33, align 8, !tbaa !77
  %34 = getelementptr inbounds %"struct.Halide::Runtime::Internal::Synchronization::word_lock_queue_data", %"struct.Halide::Runtime::Internal::Synchronization::word_lock_queue_data"* %29, i64 0, i32 3
  %35 = load %"struct.Halide::Runtime::Internal::Synchronization::word_lock_queue_data"*, %"struct.Halide::Runtime::Internal::Synchronization::word_lock_queue_data"** %34, align 8, !tbaa !74
  %36 = icmp eq %"struct.Halide::Runtime::Internal::Synchronization::word_lock_queue_data"* %35, null
  br i1 %36, label %26, label %.loopexit1

.loopexit1:                                       ; preds = %32, %19
  %37 = phi %"struct.Halide::Runtime::Internal::Synchronization::word_lock_queue_data"* [ %24, %19 ], [ %35, %32 ]
  store %"struct.Halide::Runtime::Internal::Synchronization::word_lock_queue_data"* %37, %"struct.Halide::Runtime::Internal::Synchronization::word_lock_queue_data"** %23, align 8, !tbaa !74
  %38 = and i64 %20, 1
  %39 = icmp eq i64 %38, 0
  br i1 %39, label %46, label %40

; <label>:40:                                     ; preds = %.loopexit1
  %41 = and i64 %20, -3
  %42 = cmpxchg weak i64* %2, i64 %20, i64 %41 acq_rel monotonic
  %43 = extractvalue { i64, i1 } %42, 1
  br i1 %43, label %.loopexit2, label %44

; <label>:44:                                     ; preds = %40
  %45 = extractvalue { i64, i1 } %42, 0
  fence acquire
  br label %.backedge

; <label>:46:                                     ; preds = %.loopexit1
  %47 = getelementptr inbounds %"struct.Halide::Runtime::Internal::Synchronization::word_lock_queue_data", %"struct.Halide::Runtime::Internal::Synchronization::word_lock_queue_data"* %37, i64 0, i32 2
  %48 = load %"struct.Halide::Runtime::Internal::Synchronization::word_lock_queue_data"*, %"struct.Halide::Runtime::Internal::Synchronization::word_lock_queue_data"** %47, align 8, !tbaa !77
  %49 = icmp eq %"struct.Halide::Runtime::Internal::Synchronization::word_lock_queue_data"* %48, null
  br i1 %49, label %50, label %62

; <label>:50:                                     ; preds = %46
  %51 = cmpxchg weak i64* %2, i64 %20, i64 0 acq_rel monotonic
  %52 = extractvalue { i64, i1 } %51, 1
  br i1 %52, label %.loopexit, label %.preheader

.preheader:                                       ; preds = %50
  br label %57

; <label>:53:                                     ; preds = %57
  %54 = and i64 %59, 1
  %55 = cmpxchg weak i64* %2, i64 %59, i64 %54 acq_rel monotonic
  %56 = extractvalue { i64, i1 } %55, 1
  br i1 %56, label %.loopexit, label %57

; <label>:57:                                     ; preds = %53, %.preheader
  %58 = phi { i64, i1 } [ %55, %53 ], [ %51, %.preheader ]
  %59 = extractvalue { i64, i1 } %58, 0
  %60 = icmp ult i64 %59, 4
  br i1 %60, label %53, label %61

; <label>:61:                                     ; preds = %57
  fence acquire
  br label %.backedge

.backedge:                                        ; preds = %61, %44
  %.be = phi i64 [ %45, %44 ], [ %59, %61 ]
  br label %19

; <label>:62:                                     ; preds = %46
  store %"struct.Halide::Runtime::Internal::Synchronization::word_lock_queue_data"* %48, %"struct.Halide::Runtime::Internal::Synchronization::word_lock_queue_data"** %23, align 8, !tbaa !74
  %63 = atomicrmw and i64* %2, i64 -3 release
  br label %.loopexit

.loopexit:                                        ; preds = %62, %53, %50
  %64 = getelementptr inbounds %"struct.Halide::Runtime::Internal::Synchronization::word_lock_queue_data", %"struct.Halide::Runtime::Internal::Synchronization::word_lock_queue_data"* %37, i64 0, i32 0, i32 0
  %65 = tail call i32 @pthread_mutex_lock(%struct.pthread_mutex_t* nonnull %64) #13
  %66 = getelementptr inbounds %"struct.Halide::Runtime::Internal::Synchronization::word_lock_queue_data", %"struct.Halide::Runtime::Internal::Synchronization::word_lock_queue_data"* %37, i64 0, i32 0, i32 2
  store i8 0, i8* %66, align 8, !tbaa !73
  %67 = getelementptr inbounds %"struct.Halide::Runtime::Internal::Synchronization::word_lock_queue_data", %"struct.Halide::Runtime::Internal::Synchronization::word_lock_queue_data"* %37, i64 0, i32 0, i32 1
  %68 = tail call i32 @pthread_cond_signal(%struct.pthread_mutex_t* nonnull %67) #13
  %69 = tail call i32 @pthread_mutex_unlock(%struct.pthread_mutex_t* nonnull %64) #13
  br label %.loopexit2

.loopexit2:                                       ; preds = %.loopexit, %40, %13, %1
  ret void
}

declare i32 @pthread_cond_signal(%struct.pthread_mutex_t*) local_unnamed_addr #4

declare i32 @pthread_mutex_unlock(%struct.pthread_mutex_t*) local_unnamed_addr #4

; Function Attrs: nounwind
define linkonce void @_ZN6Halide7Runtime8Internal15Synchronization9word_lock9lock_fullEv(%"class.Halide::Runtime::Internal::Synchronization::word_lock"*) local_unnamed_addr #0 align 2 {
  %2 = alloca %"struct.Halide::Runtime::Internal::Synchronization::word_lock_queue_data", align 8
  %3 = getelementptr inbounds %"class.Halide::Runtime::Internal::Synchronization::word_lock", %"class.Halide::Runtime::Internal::Synchronization::word_lock"* %0, i64 0, i32 0
  %4 = load atomic i64, i64* %3 monotonic, align 8
  %5 = bitcast %"struct.Halide::Runtime::Internal::Synchronization::word_lock_queue_data"* %2 to i8*
  %6 = getelementptr inbounds %"struct.Halide::Runtime::Internal::Synchronization::word_lock_queue_data", %"struct.Halide::Runtime::Internal::Synchronization::word_lock_queue_data"* %2, i64 0, i32 0, i32 2
  %7 = getelementptr inbounds %"struct.Halide::Runtime::Internal::Synchronization::word_lock_queue_data", %"struct.Halide::Runtime::Internal::Synchronization::word_lock_queue_data"* %2, i64 0, i32 0, i32 0
  %8 = getelementptr inbounds %"struct.Halide::Runtime::Internal::Synchronization::word_lock_queue_data", %"struct.Halide::Runtime::Internal::Synchronization::word_lock_queue_data"* %2, i64 0, i32 0, i32 1
  %9 = getelementptr inbounds %"struct.Halide::Runtime::Internal::Synchronization::word_lock_queue_data", %"struct.Halide::Runtime::Internal::Synchronization::word_lock_queue_data"* %2, i64 0, i32 1
  %10 = getelementptr inbounds %"struct.Halide::Runtime::Internal::Synchronization::word_lock_queue_data", %"struct.Halide::Runtime::Internal::Synchronization::word_lock_queue_data"* %2, i64 0, i32 3
  %11 = ptrtoint %"struct.Halide::Runtime::Internal::Synchronization::word_lock_queue_data"* %2 to i64
  %12 = bitcast %"struct.Halide::Runtime::Internal::Synchronization::word_lock_queue_data"** %9 to i8*
  br label %13

; <label>:13:                                     ; preds = %.backedge, %1
  %14 = phi i64 [ %4, %1 ], [ %.be, %.backedge ]
  %15 = phi i32 [ 40, %1 ], [ %.be5, %.backedge ]
  br label %16

; <label>:16:                                     ; preds = %20, %13
  %17 = phi i64 [ %24, %20 ], [ %14, %13 ]
  %18 = and i64 %17, 1
  %19 = icmp eq i64 %18, 0
  br i1 %19, label %20, label %25

; <label>:20:                                     ; preds = %16
  %21 = or i64 %17, 1
  %22 = cmpxchg weak i64* %3, i64 %17, i64 %21 acquire monotonic
  %23 = extractvalue { i64, i1 } %22, 1
  %24 = extractvalue { i64, i1 } %22, 0
  br i1 %23, label %65, label %16

; <label>:25:                                     ; preds = %16
  %26 = icmp ugt i64 %17, 3
  %27 = icmp sgt i32 %15, 0
  %28 = and i1 %27, %26
  br i1 %28, label %29, label %34

; <label>:29:                                     ; preds = %25
  %30 = icmp sgt i32 %15, 1
  br i1 %30, label %31, label %34

; <label>:31:                                     ; preds = %29
  %32 = add nsw i32 %15, -1
  call void @_ZN6Halide7Runtime8Internal19halide_thread_yieldEv() #13
  %33 = load atomic i64, i64* %3 monotonic, align 8
  br label %.backedge

; <label>:34:                                     ; preds = %29, %25
  %35 = phi i32 [ 0, %29 ], [ %15, %25 ]
  call void @llvm.lifetime.start.p0i8(i64 160, i8* nonnull %5) #11
  store i8 0, i8* %6, align 8, !tbaa !73
  %36 = call i32 @pthread_mutex_init(%struct.pthread_mutex_t* nonnull %7, i8* null) #13
  %37 = call i32 @pthread_cond_init(%struct.pthread_mutex_t* nonnull %8, i8* null) #13
  call void @llvm.memset.p0i8.i64(i8* nonnull %12, i8 0, i64 24, i32 8, i1 false)
  store i8 1, i8* %6, align 8, !tbaa !73
  %38 = and i64 %17, -4
  %39 = icmp eq i64 %38, 0
  br i1 %39, label %40, label %41

; <label>:40:                                     ; preds = %34
  store %"struct.Halide::Runtime::Internal::Synchronization::word_lock_queue_data"* %2, %"struct.Halide::Runtime::Internal::Synchronization::word_lock_queue_data"** %10, align 8, !tbaa !74
  br label %43

; <label>:41:                                     ; preds = %34
  %42 = inttoptr i64 %38 to %"struct.Halide::Runtime::Internal::Synchronization::word_lock_queue_data"*
  store %"struct.Halide::Runtime::Internal::Synchronization::word_lock_queue_data"* %42, %"struct.Halide::Runtime::Internal::Synchronization::word_lock_queue_data"** %9, align 8, !tbaa !76
  br label %43

; <label>:43:                                     ; preds = %41, %40
  %44 = and i64 %17, 3
  %45 = or i64 %44, %11
  %46 = cmpxchg weak i64* %3, i64 %17, i64 %45 release monotonic
  %47 = extractvalue { i64, i1 } %46, 1
  br i1 %47, label %50, label %48

; <label>:48:                                     ; preds = %43
  %49 = extractvalue { i64, i1 } %46, 0
  br label %60

; <label>:50:                                     ; preds = %43
  %51 = call i32 @pthread_mutex_lock(%struct.pthread_mutex_t* nonnull %7) #13
  %52 = load i8, i8* %6, align 8, !tbaa !73, !range !14
  %53 = icmp eq i8 %52, 0
  br i1 %53, label %.loopexit, label %.preheader

.preheader:                                       ; preds = %50
  br label %54

; <label>:54:                                     ; preds = %54, %.preheader
  %55 = call i32 @pthread_cond_wait(%struct.pthread_mutex_t* nonnull %8, %struct.pthread_mutex_t* nonnull %7) #13
  %56 = load i8, i8* %6, align 8, !tbaa !73, !range !14
  %57 = icmp eq i8 %56, 0
  br i1 %57, label %.loopexit, label %54

.loopexit:                                        ; preds = %54, %50
  %58 = call i32 @pthread_mutex_unlock(%struct.pthread_mutex_t* nonnull %7) #13
  %59 = load atomic i64, i64* %3 monotonic, align 8
  br label %60

; <label>:60:                                     ; preds = %.loopexit, %48
  %61 = phi i64 [ %59, %.loopexit ], [ %49, %48 ]
  %62 = phi i32 [ 40, %.loopexit ], [ %35, %48 ]
  %63 = call i32 @pthread_cond_destroy(%struct.pthread_mutex_t* nonnull %8) #13
  %64 = call i32 @pthread_mutex_destroy(%struct.pthread_mutex_t* nonnull %7) #13
  call void @llvm.lifetime.end.p0i8(i64 160, i8* nonnull %5) #11
  br label %.backedge

.backedge:                                        ; preds = %60, %31
  %.be = phi i64 [ %61, %60 ], [ %33, %31 ]
  %.be5 = phi i32 [ %62, %60 ], [ %32, %31 ]
  br label %13

; <label>:65:                                     ; preds = %20
  ret void
}

declare i32 @pthread_mutex_init(%struct.pthread_mutex_t*, i8*) local_unnamed_addr #4

declare i32 @pthread_cond_init(%struct.pthread_mutex_t*, i8*) local_unnamed_addr #4

declare i32 @pthread_cond_wait(%struct.pthread_mutex_t*, %struct.pthread_mutex_t*) local_unnamed_addr #4

declare i32 @pthread_cond_destroy(%struct.pthread_mutex_t*) local_unnamed_addr #4

declare i32 @pthread_mutex_destroy(%struct.pthread_mutex_t*) local_unnamed_addr #4

; Function Attrs: nounwind
define weak void @halide_cond_broadcast(%struct.halide_mutex*) local_unnamed_addr #0 {
  %2 = alloca %"struct.Halide::Runtime::Internal::Synchronization::wait_parking_control", align 8
  %3 = getelementptr inbounds %struct.halide_mutex, %struct.halide_mutex* %0, i64 0, i32 0, i64 0
  %4 = load atomic i64, i64* %3 monotonic, align 8
  %5 = icmp eq i64 %4, 0
  br i1 %5, label %18, label %6

; <label>:6:                                      ; preds = %1
  %7 = bitcast %"struct.Halide::Runtime::Internal::Synchronization::wait_parking_control"* %2 to i8*
  call void @llvm.lifetime.start.p0i8(i64 48, i8* nonnull %7) #11
  %8 = inttoptr i64 %4 to %"class.Halide::Runtime::Internal::Synchronization::word_lock"*
  %9 = getelementptr inbounds %"struct.Halide::Runtime::Internal::Synchronization::wait_parking_control", %"struct.Halide::Runtime::Internal::Synchronization::wait_parking_control"* %2, i64 0, i32 0, i32 0
  %10 = getelementptr inbounds %"struct.Halide::Runtime::Internal::Synchronization::wait_parking_control", %"struct.Halide::Runtime::Internal::Synchronization::wait_parking_control"* %2, i64 0, i32 0, i32 1
  store void (i8*)* @_ZN6Halide7Runtime8Internal15Synchronization28parking_control_before_sleepEPv, void (i8*)** %10, align 8, !tbaa !35
  %11 = getelementptr inbounds %"struct.Halide::Runtime::Internal::Synchronization::wait_parking_control", %"struct.Halide::Runtime::Internal::Synchronization::wait_parking_control"* %2, i64 0, i32 0, i32 2
  store i64 (i8*, i32, i1)* @_ZN6Halide7Runtime8Internal15Synchronization22parking_control_unparkEPvib, i64 (i8*, i32, i1)** %11, align 8, !tbaa !41
  %12 = getelementptr inbounds %"struct.Halide::Runtime::Internal::Synchronization::wait_parking_control", %"struct.Halide::Runtime::Internal::Synchronization::wait_parking_control"* %2, i64 0, i32 0, i32 3
  %13 = getelementptr inbounds %"struct.Halide::Runtime::Internal::Synchronization::wait_parking_control", %"struct.Halide::Runtime::Internal::Synchronization::wait_parking_control"* %2, i64 0, i32 1
  store i64* %3, i64** %13, align 8, !tbaa !78
  %14 = getelementptr inbounds %"struct.Halide::Runtime::Internal::Synchronization::wait_parking_control", %"struct.Halide::Runtime::Internal::Synchronization::wait_parking_control"* %2, i64 0, i32 2
  store %"class.Halide::Runtime::Internal::Synchronization::word_lock"* %8, %"class.Halide::Runtime::Internal::Synchronization::word_lock"** %14, align 8, !tbaa !80
  store i1 (i8*, %"struct.Halide::Runtime::Internal::Synchronization::validate_action"*)* @_ZN6Halide7Runtime8Internal15Synchronization34broadcast_parking_control_validateEPvRNS2_15validate_actionE, i1 (i8*, %"struct.Halide::Runtime::Internal::Synchronization::validate_action"*)** %9, align 8, !tbaa !40
  store void (i8*, %"struct.Halide::Runtime::Internal::Synchronization::validate_action"*, i1, i1)* @_ZN6Halide7Runtime8Internal15Synchronization42broadcast_parking_control_requeue_callbackEPvRKNS2_15validate_actionEbb, void (i8*, %"struct.Halide::Runtime::Internal::Synchronization::validate_action"*, i1, i1)** %12, align 8, !tbaa !37
  %15 = ptrtoint %struct.halide_mutex* %0 to i64
  %16 = getelementptr inbounds %"struct.Halide::Runtime::Internal::Synchronization::wait_parking_control", %"struct.Halide::Runtime::Internal::Synchronization::wait_parking_control"* %2, i64 0, i32 0
  %17 = call i32 @_ZN6Halide7Runtime8Internal15Synchronization14unpark_requeueEyyRNS2_15parking_controlEy(i64 %15, i64 %4, %"struct.Halide::Runtime::Internal::Synchronization::parking_control"* nonnull dereferenceable(32) %16, i64 0) #13
  call void @llvm.lifetime.end.p0i8(i64 48, i8* nonnull %7) #11
  br label %18

; <label>:18:                                     ; preds = %6, %1
  ret void
}

; Function Attrs: norecurse nounwind
define weak zeroext i1 @halide_default_semaphore_try_acquire(%struct.halide_semaphore_t*, i32) #2 {
  %3 = icmp eq i32 %1, 0
  br i1 %3, label %.loopexit, label %4

; <label>:4:                                      ; preds = %2
  %5 = bitcast %struct.halide_semaphore_t* %0 to i32*
  %6 = load atomic i32, i32* %5 acquire, align 4
  %7 = sub nsw i32 %6, %1
  %8 = icmp sgt i32 %7, -1
  br i1 %8, label %.preheader, label %.loopexit

.preheader:                                       ; preds = %4
  br label %9

; <label>:9:                                      ; preds = %14, %.preheader
  %10 = phi i32 [ %16, %14 ], [ %7, %.preheader ]
  %11 = phi i32 [ %15, %14 ], [ %6, %.preheader ]
  %12 = cmpxchg weak i32* %5, i32 %11, i32 %10 acq_rel monotonic
  %13 = extractvalue { i32, i1 } %12, 1
  br i1 %13, label %.loopexit, label %14

; <label>:14:                                     ; preds = %9
  %15 = extractvalue { i32, i1 } %12, 0
  %16 = sub nsw i32 %15, %1
  %17 = icmp sgt i32 %16, -1
  br i1 %17, label %9, label %.loopexit

.loopexit:                                        ; preds = %14, %9, %4, %2
  %18 = phi i1 [ true, %2 ], [ false, %4 ], [ true, %9 ], [ false, %14 ]
  ret i1 %18
}

; Function Attrs: nounwind
define weak void @halide_cond_wait(%struct.halide_mutex*, %struct.halide_mutex*) local_unnamed_addr #0 {
  %3 = alloca %"struct.Halide::Runtime::Internal::Synchronization::mutex_parking_control", align 8
  %4 = alloca %"struct.Halide::Runtime::Internal::Synchronization::wait_parking_control", align 8
  %5 = bitcast %"struct.Halide::Runtime::Internal::Synchronization::wait_parking_control"* %4 to i8*
  call void @llvm.lifetime.start.p0i8(i64 48, i8* nonnull %5) #11
  %6 = getelementptr inbounds %struct.halide_mutex, %struct.halide_mutex* %0, i64 0, i32 0, i64 0
  %7 = getelementptr inbounds %"struct.Halide::Runtime::Internal::Synchronization::wait_parking_control", %"struct.Halide::Runtime::Internal::Synchronization::wait_parking_control"* %4, i64 0, i32 0, i32 0
  %8 = getelementptr inbounds %"struct.Halide::Runtime::Internal::Synchronization::wait_parking_control", %"struct.Halide::Runtime::Internal::Synchronization::wait_parking_control"* %4, i64 0, i32 0, i32 1
  %9 = getelementptr inbounds %"struct.Halide::Runtime::Internal::Synchronization::wait_parking_control", %"struct.Halide::Runtime::Internal::Synchronization::wait_parking_control"* %4, i64 0, i32 0, i32 2
  %10 = getelementptr inbounds %"struct.Halide::Runtime::Internal::Synchronization::wait_parking_control", %"struct.Halide::Runtime::Internal::Synchronization::wait_parking_control"* %4, i64 0, i32 0, i32 3
  store void (i8*, %"struct.Halide::Runtime::Internal::Synchronization::validate_action"*, i1, i1)* @_ZN6Halide7Runtime8Internal15Synchronization32parking_control_requeue_callbackEPvRKNS2_15validate_actionEbb, void (i8*, %"struct.Halide::Runtime::Internal::Synchronization::validate_action"*, i1, i1)** %10, align 8, !tbaa !37
  %11 = getelementptr inbounds %"struct.Halide::Runtime::Internal::Synchronization::wait_parking_control", %"struct.Halide::Runtime::Internal::Synchronization::wait_parking_control"* %4, i64 0, i32 1
  store i64* %6, i64** %11, align 8, !tbaa !81
  %12 = getelementptr inbounds %"struct.Halide::Runtime::Internal::Synchronization::wait_parking_control", %"struct.Halide::Runtime::Internal::Synchronization::wait_parking_control"* %4, i64 0, i32 2
  %13 = bitcast %"class.Halide::Runtime::Internal::Synchronization::word_lock"** %12 to %struct.halide_mutex**
  store %struct.halide_mutex* %1, %struct.halide_mutex** %13, align 8, !tbaa !83
  store i1 (i8*, %"struct.Halide::Runtime::Internal::Synchronization::validate_action"*)* @_ZN6Halide7Runtime8Internal15Synchronization29wait_parking_control_validateEPvRNS2_15validate_actionE, i1 (i8*, %"struct.Halide::Runtime::Internal::Synchronization::validate_action"*)** %7, align 8, !tbaa !40
  store void (i8*)* @_ZN6Halide7Runtime8Internal15Synchronization33wait_parking_control_before_sleepEPv, void (i8*)** %8, align 8, !tbaa !35
  store i64 (i8*, i32, i1)* @_ZN6Halide7Runtime8Internal15Synchronization27wait_parking_control_unparkEPvib, i64 (i8*, i32, i1)** %9, align 8, !tbaa !41
  %14 = ptrtoint %struct.halide_mutex* %0 to i64
  %15 = getelementptr inbounds %"struct.Halide::Runtime::Internal::Synchronization::wait_parking_control", %"struct.Halide::Runtime::Internal::Synchronization::wait_parking_control"* %4, i64 0, i32 0
  %16 = call i64 @_ZN6Halide7Runtime8Internal15Synchronization4parkEyRNS2_15parking_controlE(i64 %14, %"struct.Halide::Runtime::Internal::Synchronization::parking_control"* nonnull dereferenceable(32) %15) #13
  %17 = ptrtoint %struct.halide_mutex* %1 to i64
  %18 = icmp eq i64 %16, %17
  %19 = getelementptr inbounds %struct.halide_mutex, %struct.halide_mutex* %1, i64 0, i32 0, i64 0
  br i1 %18, label %67, label %20

; <label>:20:                                     ; preds = %2
  %21 = cmpxchg weak i64* %19, i64 0, i64 1 acquire monotonic
  %22 = extractvalue { i64, i1 } %21, 1
  br i1 %22, label %.loopexit, label %23

; <label>:23:                                     ; preds = %20
  %24 = load atomic i64, i64* %19 monotonic, align 8
  %25 = bitcast %"struct.Halide::Runtime::Internal::Synchronization::mutex_parking_control"* %3 to i8*
  %26 = getelementptr inbounds %"struct.Halide::Runtime::Internal::Synchronization::mutex_parking_control", %"struct.Halide::Runtime::Internal::Synchronization::mutex_parking_control"* %3, i64 0, i32 0, i32 0
  %27 = getelementptr inbounds %"struct.Halide::Runtime::Internal::Synchronization::mutex_parking_control", %"struct.Halide::Runtime::Internal::Synchronization::mutex_parking_control"* %3, i64 0, i32 0, i32 1
  %28 = getelementptr inbounds %"struct.Halide::Runtime::Internal::Synchronization::mutex_parking_control", %"struct.Halide::Runtime::Internal::Synchronization::mutex_parking_control"* %3, i64 0, i32 0, i32 2
  %29 = getelementptr inbounds %"struct.Halide::Runtime::Internal::Synchronization::mutex_parking_control", %"struct.Halide::Runtime::Internal::Synchronization::mutex_parking_control"* %3, i64 0, i32 0, i32 3
  %30 = getelementptr inbounds %"struct.Halide::Runtime::Internal::Synchronization::mutex_parking_control", %"struct.Halide::Runtime::Internal::Synchronization::mutex_parking_control"* %3, i64 0, i32 1
  %31 = getelementptr inbounds %"struct.Halide::Runtime::Internal::Synchronization::mutex_parking_control", %"struct.Halide::Runtime::Internal::Synchronization::mutex_parking_control"* %3, i64 0, i32 0
  br label %32

; <label>:32:                                     ; preds = %.backedge, %23
  %33 = phi i64 [ %24, %23 ], [ %.be, %.backedge ]
  %34 = phi i32 [ 40, %23 ], [ %.be5, %.backedge ]
  br label %35

; <label>:35:                                     ; preds = %39, %32
  %36 = phi i64 [ %43, %39 ], [ %33, %32 ]
  %37 = and i64 %36, 1
  %38 = icmp eq i64 %37, 0
  br i1 %38, label %39, label %44

; <label>:39:                                     ; preds = %35
  %40 = or i64 %36, 1
  %41 = cmpxchg weak i64* %19, i64 %36, i64 %40 acquire monotonic
  %42 = extractvalue { i64, i1 } %41, 1
  %43 = extractvalue { i64, i1 } %41, 0
  br i1 %42, label %.loopexit, label %35

; <label>:44:                                     ; preds = %35
  %45 = and i64 %36, 2
  %46 = icmp eq i64 %45, 0
  br i1 %46, label %47, label %61

; <label>:47:                                     ; preds = %44
  %48 = icmp sgt i32 %34, 0
  br i1 %48, label %49, label %54

; <label>:49:                                     ; preds = %47
  %50 = icmp eq i32 %34, 1
  br i1 %50, label %54, label %51

; <label>:51:                                     ; preds = %49
  %52 = add nsw i32 %34, -1
  call void @_ZN6Halide7Runtime8Internal19halide_thread_yieldEv() #13
  %53 = load atomic i64, i64* %19 monotonic, align 8
  br label %.backedge

; <label>:54:                                     ; preds = %49, %47
  %55 = phi i32 [ 0, %49 ], [ %34, %47 ]
  %56 = or i64 %36, 2
  %57 = cmpxchg weak i64* %19, i64 %36, i64 %56 monotonic monotonic
  %58 = extractvalue { i64, i1 } %57, 1
  br i1 %58, label %61, label %59

; <label>:59:                                     ; preds = %54
  %60 = extractvalue { i64, i1 } %57, 0
  br label %.backedge

; <label>:61:                                     ; preds = %54, %44
  call void @llvm.lifetime.start.p0i8(i64 40, i8* nonnull %25) #11
  store void (i8*)* @_ZN6Halide7Runtime8Internal15Synchronization28parking_control_before_sleepEPv, void (i8*)** %27, align 8, !tbaa !35
  store void (i8*, %"struct.Halide::Runtime::Internal::Synchronization::validate_action"*, i1, i1)* @_ZN6Halide7Runtime8Internal15Synchronization32parking_control_requeue_callbackEPvRKNS2_15validate_actionEbb, void (i8*, %"struct.Halide::Runtime::Internal::Synchronization::validate_action"*, i1, i1)** %29, align 8, !tbaa !37
  store i64* %19, i64** %30, align 8, !tbaa !38
  store i1 (i8*, %"struct.Halide::Runtime::Internal::Synchronization::validate_action"*)* @_ZN6Halide7Runtime8Internal15Synchronization30mutex_parking_control_validateEPvRNS2_15validate_actionE, i1 (i8*, %"struct.Halide::Runtime::Internal::Synchronization::validate_action"*)** %26, align 8, !tbaa !40
  store i64 (i8*, i32, i1)* @_ZN6Halide7Runtime8Internal15Synchronization28mutex_parking_control_unparkEPvib, i64 (i8*, i32, i1)** %28, align 8, !tbaa !41
  %62 = call i64 @_ZN6Halide7Runtime8Internal15Synchronization4parkEyRNS2_15parking_controlE(i64 %17, %"struct.Halide::Runtime::Internal::Synchronization::parking_control"* nonnull dereferenceable(32) %31) #13
  %63 = icmp eq i64 %62, %17
  br i1 %63, label %66, label %64

; <label>:64:                                     ; preds = %61
  %65 = load atomic i64, i64* %19 monotonic, align 8
  call void @llvm.lifetime.end.p0i8(i64 40, i8* nonnull %25) #11
  br label %.backedge

.backedge:                                        ; preds = %64, %59, %51
  %.be = phi i64 [ %60, %59 ], [ %65, %64 ], [ %53, %51 ]
  %.be5 = phi i32 [ %55, %59 ], [ 40, %64 ], [ %52, %51 ]
  br label %32

; <label>:66:                                     ; preds = %61
  call void @llvm.lifetime.end.p0i8(i64 40, i8* nonnull %25) #11
  br label %.loopexit

; <label>:67:                                     ; preds = %2
  %68 = load atomic i64, i64* %19 monotonic, align 8
  %69 = and i64 %68, 1
  %70 = icmp eq i64 %69, 0
  br i1 %70, label %71, label %.loopexit

; <label>:71:                                     ; preds = %67
  call void @halide_print(i8* null, i8* getelementptr inbounds ([138 x i8], [138 x i8]* @.str.6, i64 0, i64 0)) #13
  call void @abort() #13
  br label %.loopexit

.loopexit:                                        ; preds = %71, %67, %66, %39, %20
  call void @llvm.lifetime.end.p0i8(i64 48, i8* nonnull %5) #11
  ret void
}

; Function Attrs: nounwind
define weak i32 @halide_do_loop_task(i8*, i32 (i8*, i32, i32, i8*, i8*)*, i32, i32, i8*, i8*) local_unnamed_addr #0 {
  %7 = load i32 (i8*, i32 (i8*, i32, i32, i8*, i8*)*, i32, i32, i8*, i8*)*, i32 (i8*, i32 (i8*, i32, i32, i8*, i8*)*, i32, i32, i8*, i8*)** @_ZN6Halide7Runtime8Internal19custom_do_loop_taskE, align 8, !tbaa !7
  %8 = tail call i32 %7(i8* %0, i32 (i8*, i32, i32, i8*, i8*)* %1, i32 %2, i32 %3, i8* %4, i8* %5) #13
  ret i32 %8
}

; Function Attrs: nounwind
define weak i32 @halide_do_task(i8*, i32 (i8*, i32, i8*)*, i32, i8*) local_unnamed_addr #0 {
  %5 = load i32 (i8*, i32 (i8*, i32, i8*)*, i32, i8*)*, i32 (i8*, i32 (i8*, i32, i8*)*, i32, i8*)** @_ZN6Halide7Runtime8Internal14custom_do_taskE, align 8, !tbaa !7
  %6 = tail call i32 %5(i8* %0, i32 (i8*, i32, i8*)* %1, i32 %2, i8* %3) #13
  ret i32 %6
}

; Function Attrs: norecurse nounwind
define linkonce zeroext i1 @_ZN6Halide7Runtime8Internal15Synchronization29wait_parking_control_validateEPvRNS2_15validate_actionE(i8*, %"struct.Halide::Runtime::Internal::Synchronization::validate_action"* dereferenceable(16)) #2 {
  %3 = getelementptr inbounds i8, i8* %0, i64 32
  %4 = bitcast i8* %3 to i64**
  %5 = load i64*, i64** %4, align 8, !tbaa !81
  %6 = load atomic i64, i64* %5 monotonic, align 8
  %7 = icmp eq i64 %6, 0
  %8 = getelementptr inbounds i8, i8* %0, i64 40
  %9 = bitcast i8* %8 to i64*
  %10 = load i64, i64* %9, align 8, !tbaa !83
  br i1 %7, label %11, label %12

; <label>:11:                                     ; preds = %2
  store atomic i64 %10, i64* %5 monotonic, align 8
  br label %16

; <label>:12:                                     ; preds = %2
  %13 = icmp eq i64 %6, %10
  br i1 %13, label %16, label %14

; <label>:14:                                     ; preds = %12
  %15 = getelementptr inbounds %"struct.Halide::Runtime::Internal::Synchronization::validate_action", %"struct.Halide::Runtime::Internal::Synchronization::validate_action"* %1, i64 0, i32 2
  store i64 %10, i64* %15, align 8, !tbaa !84
  br label %16

; <label>:16:                                     ; preds = %14, %12, %11
  %17 = phi i1 [ false, %14 ], [ true, %12 ], [ true, %11 ]
  ret i1 %17
}

; Function Attrs: nounwind
define linkonce void @_ZN6Halide7Runtime8Internal15Synchronization33wait_parking_control_before_sleepEPv(i8*) #0 {
  %2 = alloca %"struct.Halide::Runtime::Internal::Synchronization::mutex_parking_control", align 8
  %3 = getelementptr inbounds i8, i8* %0, i64 40
  %4 = bitcast i8* %3 to %"class.Halide::Runtime::Internal::Synchronization::word_lock"**
  %5 = load %"class.Halide::Runtime::Internal::Synchronization::word_lock"*, %"class.Halide::Runtime::Internal::Synchronization::word_lock"** %4, align 8, !tbaa !83
  %6 = getelementptr inbounds %"class.Halide::Runtime::Internal::Synchronization::word_lock", %"class.Halide::Runtime::Internal::Synchronization::word_lock"* %5, i64 0, i32 0
  %7 = cmpxchg weak i64* %6, i64 1, i64 0 release monotonic
  %8 = extractvalue { i64, i1 } %7, 1
  br i1 %8, label %22, label %9

; <label>:9:                                      ; preds = %1
  %10 = cmpxchg i64* %6, i64 1, i64 0 release monotonic
  %11 = extractvalue { i64, i1 } %10, 1
  br i1 %11, label %22, label %12

; <label>:12:                                     ; preds = %9
  %13 = bitcast %"struct.Halide::Runtime::Internal::Synchronization::mutex_parking_control"* %2 to i8*
  call void @llvm.lifetime.start.p0i8(i64 40, i8* nonnull %13) #11
  %14 = getelementptr inbounds %"struct.Halide::Runtime::Internal::Synchronization::mutex_parking_control", %"struct.Halide::Runtime::Internal::Synchronization::mutex_parking_control"* %2, i64 0, i32 0, i32 0
  %15 = getelementptr inbounds %"struct.Halide::Runtime::Internal::Synchronization::mutex_parking_control", %"struct.Halide::Runtime::Internal::Synchronization::mutex_parking_control"* %2, i64 0, i32 0, i32 1
  store void (i8*)* @_ZN6Halide7Runtime8Internal15Synchronization28parking_control_before_sleepEPv, void (i8*)** %15, align 8, !tbaa !35
  %16 = getelementptr inbounds %"struct.Halide::Runtime::Internal::Synchronization::mutex_parking_control", %"struct.Halide::Runtime::Internal::Synchronization::mutex_parking_control"* %2, i64 0, i32 0, i32 2
  %17 = getelementptr inbounds %"struct.Halide::Runtime::Internal::Synchronization::mutex_parking_control", %"struct.Halide::Runtime::Internal::Synchronization::mutex_parking_control"* %2, i64 0, i32 0, i32 3
  store void (i8*, %"struct.Halide::Runtime::Internal::Synchronization::validate_action"*, i1, i1)* @_ZN6Halide7Runtime8Internal15Synchronization32parking_control_requeue_callbackEPvRKNS2_15validate_actionEbb, void (i8*, %"struct.Halide::Runtime::Internal::Synchronization::validate_action"*, i1, i1)** %17, align 8, !tbaa !37
  %18 = getelementptr inbounds %"struct.Halide::Runtime::Internal::Synchronization::mutex_parking_control", %"struct.Halide::Runtime::Internal::Synchronization::mutex_parking_control"* %2, i64 0, i32 1
  store i64* %6, i64** %18, align 8, !tbaa !38
  store i1 (i8*, %"struct.Halide::Runtime::Internal::Synchronization::validate_action"*)* @_ZN6Halide7Runtime8Internal15Synchronization30mutex_parking_control_validateEPvRNS2_15validate_actionE, i1 (i8*, %"struct.Halide::Runtime::Internal::Synchronization::validate_action"*)** %14, align 8, !tbaa !40
  store i64 (i8*, i32, i1)* @_ZN6Halide7Runtime8Internal15Synchronization28mutex_parking_control_unparkEPvib, i64 (i8*, i32, i1)** %16, align 8, !tbaa !41
  %19 = ptrtoint %"class.Halide::Runtime::Internal::Synchronization::word_lock"* %5 to i64
  %20 = getelementptr inbounds %"struct.Halide::Runtime::Internal::Synchronization::mutex_parking_control", %"struct.Halide::Runtime::Internal::Synchronization::mutex_parking_control"* %2, i64 0, i32 0
  %21 = call i64 @_ZN6Halide7Runtime8Internal15Synchronization10unpark_oneEyRNS2_15parking_controlE(i64 %19, %"struct.Halide::Runtime::Internal::Synchronization::parking_control"* nonnull dereferenceable(32) %20) #13
  call void @llvm.lifetime.end.p0i8(i64 40, i8* nonnull %13) #11
  br label %22

; <label>:22:                                     ; preds = %12, %9, %1
  ret void
}

; Function Attrs: norecurse nounwind
define linkonce i64 @_ZN6Halide7Runtime8Internal15Synchronization27wait_parking_control_unparkEPvib(i8*, i32, i1 zeroext) #2 {
  br i1 %2, label %8, label %4

; <label>:4:                                      ; preds = %3
  %5 = getelementptr inbounds i8, i8* %0, i64 32
  %6 = bitcast i8* %5 to i64**
  %7 = load i64*, i64** %6, align 8, !tbaa !81
  store atomic i64 0, i64* %7 monotonic, align 8
  br label %8

; <label>:8:                                      ; preds = %4, %3
  ret i64 0
}

; Function Attrs: nounwind
define linkonce i64 @_ZN6Halide7Runtime8Internal15Synchronization4parkEyRNS2_15parking_controlE(i64, %"struct.Halide::Runtime::Internal::Synchronization::parking_control"* dereferenceable(32)) local_unnamed_addr #0 {
  %3 = alloca %"struct.Halide::Runtime::Internal::Synchronization::queue_data", align 8
  %4 = alloca %"struct.Halide::Runtime::Internal::Synchronization::validate_action", align 8
  %5 = bitcast %"struct.Halide::Runtime::Internal::Synchronization::queue_data"* %3 to i8*
  call void @llvm.lifetime.start.p0i8(i64 160, i8* nonnull %5) #11
  %6 = getelementptr inbounds %"struct.Halide::Runtime::Internal::Synchronization::queue_data", %"struct.Halide::Runtime::Internal::Synchronization::queue_data"* %3, i64 0, i32 0, i32 2
  store i8 0, i8* %6, align 8, !tbaa !73
  %7 = getelementptr inbounds %"struct.Halide::Runtime::Internal::Synchronization::queue_data", %"struct.Halide::Runtime::Internal::Synchronization::queue_data"* %3, i64 0, i32 0, i32 0
  %8 = call i32 @pthread_mutex_init(%struct.pthread_mutex_t* nonnull %7, i8* null) #13
  %9 = getelementptr inbounds %"struct.Halide::Runtime::Internal::Synchronization::queue_data", %"struct.Halide::Runtime::Internal::Synchronization::queue_data"* %3, i64 0, i32 0, i32 1
  %10 = call i32 @pthread_cond_init(%struct.pthread_mutex_t* nonnull %9, i8* null) #13
  store i8 0, i8* %6, align 8, !tbaa !73
  %11 = getelementptr inbounds %"struct.Halide::Runtime::Internal::Synchronization::queue_data", %"struct.Halide::Runtime::Internal::Synchronization::queue_data"* %3, i64 0, i32 1
  %12 = getelementptr inbounds %"struct.Halide::Runtime::Internal::Synchronization::queue_data", %"struct.Halide::Runtime::Internal::Synchronization::queue_data"* %3, i64 0, i32 3
  %13 = bitcast i64* %11 to i8*
  call void @llvm.memset.p0i8.i64(i8* nonnull %13, i8 0, i64 24, i32 8, i1 false)
  %14 = call dereferenceable(24) %"struct.Halide::Runtime::Internal::Synchronization::hash_bucket"* @_ZN6Halide7Runtime8Internal15Synchronization11lock_bucketEy(i64 %0) #14
  %15 = getelementptr inbounds %"struct.Halide::Runtime::Internal::Synchronization::validate_action", %"struct.Halide::Runtime::Internal::Synchronization::validate_action"* %4, i64 0, i32 0
  call void @llvm.lifetime.start.p0i8(i64 16, i8* nonnull %15) #11
  store i8 0, i8* %15, align 8, !tbaa !86
  %16 = getelementptr inbounds %"struct.Halide::Runtime::Internal::Synchronization::validate_action", %"struct.Halide::Runtime::Internal::Synchronization::validate_action"* %4, i64 0, i32 2
  store i64 0, i64* %16, align 8, !tbaa !84
  %17 = getelementptr inbounds %"struct.Halide::Runtime::Internal::Synchronization::parking_control", %"struct.Halide::Runtime::Internal::Synchronization::parking_control"* %1, i64 0, i32 0
  %18 = load i1 (i8*, %"struct.Halide::Runtime::Internal::Synchronization::validate_action"*)*, i1 (i8*, %"struct.Halide::Runtime::Internal::Synchronization::validate_action"*)** %17, align 8, !tbaa !40
  %19 = bitcast %"struct.Halide::Runtime::Internal::Synchronization::parking_control"* %1 to i8*
  %20 = call zeroext i1 %18(i8* nonnull %19, %"struct.Halide::Runtime::Internal::Synchronization::validate_action"* nonnull dereferenceable(16) %4) #13
  br i1 %20, label %30, label %21

; <label>:21:                                     ; preds = %2
  %22 = getelementptr inbounds %"struct.Halide::Runtime::Internal::Synchronization::hash_bucket", %"struct.Halide::Runtime::Internal::Synchronization::hash_bucket"* %14, i64 0, i32 0, i32 0
  %23 = atomicrmw and i64* %22, i64 -2 release
  %24 = and i64 %23, 2
  %25 = icmp eq i64 %24, 0
  %26 = icmp ugt i64 %23, 3
  %27 = and i1 %26, %25
  br i1 %27, label %28, label %62

; <label>:28:                                     ; preds = %21
  %29 = getelementptr inbounds %"struct.Halide::Runtime::Internal::Synchronization::hash_bucket", %"struct.Halide::Runtime::Internal::Synchronization::hash_bucket"* %14, i64 0, i32 0
  call void @_ZN6Halide7Runtime8Internal15Synchronization9word_lock11unlock_fullEv(%"class.Halide::Runtime::Internal::Synchronization::word_lock"* nonnull %29) #13
  br label %62

; <label>:30:                                     ; preds = %2
  %31 = getelementptr inbounds %"struct.Halide::Runtime::Internal::Synchronization::queue_data", %"struct.Halide::Runtime::Internal::Synchronization::queue_data"* %3, i64 0, i32 2
  store %"struct.Halide::Runtime::Internal::Synchronization::queue_data"* null, %"struct.Halide::Runtime::Internal::Synchronization::queue_data"** %31, align 8, !tbaa !63
  store i64 %0, i64* %11, align 8, !tbaa !87
  store i8 1, i8* %6, align 8, !tbaa !73
  %32 = getelementptr inbounds %"struct.Halide::Runtime::Internal::Synchronization::hash_bucket", %"struct.Halide::Runtime::Internal::Synchronization::hash_bucket"* %14, i64 0, i32 1
  %33 = load %"struct.Halide::Runtime::Internal::Synchronization::queue_data"*, %"struct.Halide::Runtime::Internal::Synchronization::queue_data"** %32, align 8, !tbaa !88
  %34 = icmp eq %"struct.Halide::Runtime::Internal::Synchronization::queue_data"* %33, null
  br i1 %34, label %39, label %35

; <label>:35:                                     ; preds = %30
  %36 = getelementptr inbounds %"struct.Halide::Runtime::Internal::Synchronization::hash_bucket", %"struct.Halide::Runtime::Internal::Synchronization::hash_bucket"* %14, i64 0, i32 2
  %37 = load %"struct.Halide::Runtime::Internal::Synchronization::queue_data"*, %"struct.Halide::Runtime::Internal::Synchronization::queue_data"** %36, align 8, !tbaa !69
  %38 = getelementptr inbounds %"struct.Halide::Runtime::Internal::Synchronization::queue_data", %"struct.Halide::Runtime::Internal::Synchronization::queue_data"* %37, i64 0, i32 2
  store %"struct.Halide::Runtime::Internal::Synchronization::queue_data"* %3, %"struct.Halide::Runtime::Internal::Synchronization::queue_data"** %38, align 8, !tbaa !63
  br label %41

; <label>:39:                                     ; preds = %30
  store %"struct.Halide::Runtime::Internal::Synchronization::queue_data"* %3, %"struct.Halide::Runtime::Internal::Synchronization::queue_data"** %32, align 8, !tbaa !88
  %40 = getelementptr inbounds %"struct.Halide::Runtime::Internal::Synchronization::hash_bucket", %"struct.Halide::Runtime::Internal::Synchronization::hash_bucket"* %14, i64 0, i32 2
  br label %41

; <label>:41:                                     ; preds = %39, %35
  %42 = phi %"struct.Halide::Runtime::Internal::Synchronization::queue_data"** [ %40, %39 ], [ %36, %35 ]
  store %"struct.Halide::Runtime::Internal::Synchronization::queue_data"* %3, %"struct.Halide::Runtime::Internal::Synchronization::queue_data"** %42, align 8, !tbaa !69
  %43 = getelementptr inbounds %"struct.Halide::Runtime::Internal::Synchronization::hash_bucket", %"struct.Halide::Runtime::Internal::Synchronization::hash_bucket"* %14, i64 0, i32 0, i32 0
  %44 = atomicrmw and i64* %43, i64 -2 release
  %45 = and i64 %44, 2
  %46 = icmp eq i64 %45, 0
  %47 = icmp ugt i64 %44, 3
  %48 = and i1 %47, %46
  br i1 %48, label %49, label %51

; <label>:49:                                     ; preds = %41
  %50 = getelementptr inbounds %"struct.Halide::Runtime::Internal::Synchronization::hash_bucket", %"struct.Halide::Runtime::Internal::Synchronization::hash_bucket"* %14, i64 0, i32 0
  call void @_ZN6Halide7Runtime8Internal15Synchronization9word_lock11unlock_fullEv(%"class.Halide::Runtime::Internal::Synchronization::word_lock"* nonnull %50) #13
  br label %51

; <label>:51:                                     ; preds = %49, %41
  %52 = getelementptr inbounds %"struct.Halide::Runtime::Internal::Synchronization::parking_control", %"struct.Halide::Runtime::Internal::Synchronization::parking_control"* %1, i64 0, i32 1
  %53 = load void (i8*)*, void (i8*)** %52, align 8, !tbaa !35
  call void %53(i8* nonnull %19) #13
  %54 = call i32 @pthread_mutex_lock(%struct.pthread_mutex_t* nonnull %7) #13
  %55 = load i8, i8* %6, align 8, !tbaa !73, !range !14
  %56 = icmp eq i8 %55, 0
  br i1 %56, label %.loopexit, label %.preheader

.preheader:                                       ; preds = %51
  br label %57

; <label>:57:                                     ; preds = %57, %.preheader
  %58 = call i32 @pthread_cond_wait(%struct.pthread_mutex_t* nonnull %9, %struct.pthread_mutex_t* nonnull %7) #13
  %59 = load i8, i8* %6, align 8, !tbaa !73, !range !14
  %60 = icmp eq i8 %59, 0
  br i1 %60, label %.loopexit, label %57

.loopexit:                                        ; preds = %57, %51
  %61 = call i32 @pthread_mutex_unlock(%struct.pthread_mutex_t* nonnull %7) #13
  br label %62

; <label>:62:                                     ; preds = %.loopexit, %28, %21
  %63 = phi i64* [ %12, %.loopexit ], [ %16, %21 ], [ %16, %28 ]
  %64 = load i64, i64* %63, align 8, !tbaa !89
  call void @llvm.lifetime.end.p0i8(i64 16, i8* nonnull %15) #11
  %65 = call i32 @pthread_cond_destroy(%struct.pthread_mutex_t* nonnull %9) #13
  %66 = call i32 @pthread_mutex_destroy(%struct.pthread_mutex_t* nonnull %7) #13
  call void @llvm.lifetime.end.p0i8(i64 160, i8* nonnull %5) #11
  ret i64 %64
}

; Function Attrs: norecurse nounwind
define linkonce i64 @_ZN6Halide7Runtime8Internal15Synchronization22parking_control_unparkEPvib(i8*, i32, i1 zeroext) #2 {
  ret i64 0
}

; Function Attrs: norecurse nounwind
define linkonce zeroext i1 @_ZN6Halide7Runtime8Internal15Synchronization34broadcast_parking_control_validateEPvRNS2_15validate_actionE(i8*, %"struct.Halide::Runtime::Internal::Synchronization::validate_action"* dereferenceable(16)) #2 {
  %3 = getelementptr inbounds i8, i8* %0, i64 32
  %4 = bitcast i8* %3 to i64**
  %5 = load i64*, i64** %4, align 8, !tbaa !78
  %6 = load atomic i64, i64* %5 monotonic, align 8
  %7 = getelementptr inbounds i8, i8* %0, i64 40
  %8 = bitcast i8* %7 to i64*
  %9 = load i64, i64* %8, align 8, !tbaa !80
  %10 = icmp eq i64 %6, %9
  br i1 %10, label %11, label %29

; <label>:11:                                     ; preds = %2
  %12 = bitcast i8* %7 to %"class.Halide::Runtime::Internal::Synchronization::word_lock"**
  store atomic i64 0, i64* %5 monotonic, align 8
  %13 = load %"class.Halide::Runtime::Internal::Synchronization::word_lock"*, %"class.Halide::Runtime::Internal::Synchronization::word_lock"** %12, align 8, !tbaa !80
  %14 = getelementptr inbounds %"class.Halide::Runtime::Internal::Synchronization::word_lock", %"class.Halide::Runtime::Internal::Synchronization::word_lock"* %13, i64 0, i32 0
  %15 = load atomic i64, i64* %14 monotonic, align 8
  %16 = and i64 %15, 1
  %17 = icmp eq i64 %16, 0
  br i1 %17, label %.loopexit, label %.preheader

.preheader:                                       ; preds = %11
  br label %18

; <label>:18:                                     ; preds = %23, %.preheader
  %19 = phi i64 [ %24, %23 ], [ %15, %.preheader ]
  %20 = or i64 %19, 2
  %21 = cmpxchg weak i64* %14, i64 %19, i64 %20 monotonic monotonic
  %22 = extractvalue { i64, i1 } %21, 1
  br i1 %22, label %.loopexit, label %23

; <label>:23:                                     ; preds = %18
  %24 = extractvalue { i64, i1 } %21, 0
  %25 = and i64 %24, 1
  %26 = icmp eq i64 %25, 0
  br i1 %26, label %.loopexit, label %18

.loopexit:                                        ; preds = %23, %18, %11
  %27 = phi i8 [ 1, %11 ], [ 0, %18 ], [ 1, %23 ]
  %28 = getelementptr inbounds %"struct.Halide::Runtime::Internal::Synchronization::validate_action", %"struct.Halide::Runtime::Internal::Synchronization::validate_action"* %1, i64 0, i32 0
  store i8 %27, i8* %28, align 8, !tbaa !86
  br label %29

; <label>:29:                                     ; preds = %.loopexit, %2
  %30 = phi i1 [ true, %.loopexit ], [ false, %2 ]
  ret i1 %30
}

; Function Attrs: norecurse nounwind
define linkonce void @_ZN6Halide7Runtime8Internal15Synchronization42broadcast_parking_control_requeue_callbackEPvRKNS2_15validate_actionEbb(i8*, %"struct.Halide::Runtime::Internal::Synchronization::validate_action"* dereferenceable(16), i1 zeroext, i1 zeroext) #2 {
  %5 = getelementptr inbounds %"struct.Halide::Runtime::Internal::Synchronization::validate_action", %"struct.Halide::Runtime::Internal::Synchronization::validate_action"* %1, i64 0, i32 0
  %6 = load i8, i8* %5, align 8, !tbaa !86, !range !14
  %7 = icmp eq i8 %6, 0
  %8 = xor i1 %3, true
  %9 = or i1 %7, %8
  br i1 %9, label %16, label %10

; <label>:10:                                     ; preds = %4
  %11 = getelementptr inbounds i8, i8* %0, i64 40
  %12 = bitcast i8* %11 to %"class.Halide::Runtime::Internal::Synchronization::word_lock"**
  %13 = load %"class.Halide::Runtime::Internal::Synchronization::word_lock"*, %"class.Halide::Runtime::Internal::Synchronization::word_lock"** %12, align 8, !tbaa !80
  %14 = getelementptr inbounds %"class.Halide::Runtime::Internal::Synchronization::word_lock", %"class.Halide::Runtime::Internal::Synchronization::word_lock"* %13, i64 0, i32 0
  %15 = atomicrmw or i64* %14, i64 2 monotonic
  br label %16

; <label>:16:                                     ; preds = %10, %4
  ret void
}

; Function Attrs: nounwind
define linkonce i32 @_ZN6Halide7Runtime8Internal15Synchronization14unpark_requeueEyyRNS2_15parking_controlEy(i64, i64, %"struct.Halide::Runtime::Internal::Synchronization::parking_control"* dereferenceable(32), i64) local_unnamed_addr #0 {
  %5 = alloca %"struct.Halide::Runtime::Internal::Synchronization::bucket_pair", align 8
  %6 = alloca %"struct.Halide::Runtime::Internal::Synchronization::validate_action", align 8
  %7 = bitcast %"struct.Halide::Runtime::Internal::Synchronization::bucket_pair"* %5 to i8*
  call void @llvm.lifetime.start.p0i8(i64 16, i8* nonnull %7) #11
  call void @_ZN6Halide7Runtime8Internal15Synchronization16lock_bucket_pairEyy(%"struct.Halide::Runtime::Internal::Synchronization::bucket_pair"* nonnull sret %5, i64 %0, i64 %1) #14
  %8 = getelementptr inbounds %"struct.Halide::Runtime::Internal::Synchronization::validate_action", %"struct.Halide::Runtime::Internal::Synchronization::validate_action"* %6, i64 0, i32 0
  call void @llvm.lifetime.start.p0i8(i64 16, i8* nonnull %8) #11
  store i8 0, i8* %8, align 8, !tbaa !86
  %9 = getelementptr inbounds %"struct.Halide::Runtime::Internal::Synchronization::validate_action", %"struct.Halide::Runtime::Internal::Synchronization::validate_action"* %6, i64 0, i32 2
  store i64 0, i64* %9, align 8, !tbaa !84
  %10 = getelementptr inbounds %"struct.Halide::Runtime::Internal::Synchronization::parking_control", %"struct.Halide::Runtime::Internal::Synchronization::parking_control"* %2, i64 0, i32 0
  %11 = load i1 (i8*, %"struct.Halide::Runtime::Internal::Synchronization::validate_action"*)*, i1 (i8*, %"struct.Halide::Runtime::Internal::Synchronization::validate_action"*)** %10, align 8, !tbaa !40
  %12 = bitcast %"struct.Halide::Runtime::Internal::Synchronization::parking_control"* %2 to i8*
  %13 = call zeroext i1 %11(i8* nonnull %12, %"struct.Halide::Runtime::Internal::Synchronization::validate_action"* nonnull dereferenceable(16) %6) #13
  br i1 %13, label %15, label %14

; <label>:14:                                     ; preds = %4
  call void @_ZN6Halide7Runtime8Internal15Synchronization18unlock_bucket_pairERNS2_11bucket_pairE(%"struct.Halide::Runtime::Internal::Synchronization::bucket_pair"* nonnull dereferenceable(16) %5) #14
  br label %126

; <label>:15:                                     ; preds = %4
  %16 = getelementptr inbounds %"struct.Halide::Runtime::Internal::Synchronization::bucket_pair", %"struct.Halide::Runtime::Internal::Synchronization::bucket_pair"* %5, i64 0, i32 0
  %17 = load %"struct.Halide::Runtime::Internal::Synchronization::hash_bucket"*, %"struct.Halide::Runtime::Internal::Synchronization::hash_bucket"** %16, align 8, !tbaa !90
  %18 = getelementptr inbounds %"struct.Halide::Runtime::Internal::Synchronization::hash_bucket", %"struct.Halide::Runtime::Internal::Synchronization::hash_bucket"* %17, i64 0, i32 1
  %19 = load %"struct.Halide::Runtime::Internal::Synchronization::queue_data"*, %"struct.Halide::Runtime::Internal::Synchronization::queue_data"** %18, align 8, !tbaa !7
  %20 = icmp eq %"struct.Halide::Runtime::Internal::Synchronization::queue_data"* %19, null
  br i1 %20, label %105, label %21

; <label>:21:                                     ; preds = %15
  %22 = load i8, i8* %8, align 8
  %23 = icmp eq i8 %22, 0
  br i1 %23, label %.preheader, label %.preheader21

.preheader21:                                     ; preds = %21
  br label %24

.preheader:                                       ; preds = %21
  br label %57

; <label>:24:                                     ; preds = %50, %.preheader21
  %25 = phi %"struct.Halide::Runtime::Internal::Synchronization::queue_data"* [ %55, %50 ], [ null, %.preheader21 ]
  %26 = phi %"struct.Halide::Runtime::Internal::Synchronization::queue_data"* [ %54, %50 ], [ null, %.preheader21 ]
  %27 = phi %"struct.Halide::Runtime::Internal::Synchronization::queue_data"* [ %53, %50 ], [ null, %.preheader21 ]
  %28 = phi %"struct.Halide::Runtime::Internal::Synchronization::queue_data"* [ %34, %50 ], [ %19, %.preheader21 ]
  %29 = phi %"struct.Halide::Runtime::Internal::Synchronization::queue_data"* [ %52, %50 ], [ null, %.preheader21 ]
  %30 = phi %"struct.Halide::Runtime::Internal::Synchronization::queue_data"** [ %51, %50 ], [ %18, %.preheader21 ]
  %31 = getelementptr inbounds %"struct.Halide::Runtime::Internal::Synchronization::queue_data", %"struct.Halide::Runtime::Internal::Synchronization::queue_data"* %28, i64 0, i32 1
  %32 = load atomic i64, i64* %31 monotonic, align 8
  %33 = getelementptr inbounds %"struct.Halide::Runtime::Internal::Synchronization::queue_data", %"struct.Halide::Runtime::Internal::Synchronization::queue_data"* %28, i64 0, i32 2
  %34 = load %"struct.Halide::Runtime::Internal::Synchronization::queue_data"*, %"struct.Halide::Runtime::Internal::Synchronization::queue_data"** %33, align 8, !tbaa !63
  %35 = icmp eq i64 %32, %0
  br i1 %35, label %36, label %50

; <label>:36:                                     ; preds = %24
  store %"struct.Halide::Runtime::Internal::Synchronization::queue_data"* %34, %"struct.Halide::Runtime::Internal::Synchronization::queue_data"** %30, align 8, !tbaa !7
  %37 = load %"struct.Halide::Runtime::Internal::Synchronization::hash_bucket"*, %"struct.Halide::Runtime::Internal::Synchronization::hash_bucket"** %16, align 8, !tbaa !90
  %38 = getelementptr inbounds %"struct.Halide::Runtime::Internal::Synchronization::hash_bucket", %"struct.Halide::Runtime::Internal::Synchronization::hash_bucket"* %37, i64 0, i32 2
  %39 = load %"struct.Halide::Runtime::Internal::Synchronization::queue_data"*, %"struct.Halide::Runtime::Internal::Synchronization::queue_data"** %38, align 8, !tbaa !69
  %40 = icmp eq %"struct.Halide::Runtime::Internal::Synchronization::queue_data"* %39, %28
  br i1 %40, label %41, label %42

; <label>:41:                                     ; preds = %36
  store %"struct.Halide::Runtime::Internal::Synchronization::queue_data"* %29, %"struct.Halide::Runtime::Internal::Synchronization::queue_data"** %38, align 8, !tbaa !69
  br label %42

; <label>:42:                                     ; preds = %41, %36
  %43 = icmp eq %"struct.Halide::Runtime::Internal::Synchronization::queue_data"* %25, null
  br i1 %43, label %50, label %44

; <label>:44:                                     ; preds = %42
  %45 = icmp eq %"struct.Halide::Runtime::Internal::Synchronization::queue_data"* %27, null
  br i1 %45, label %48, label %46

; <label>:46:                                     ; preds = %44
  %47 = getelementptr inbounds %"struct.Halide::Runtime::Internal::Synchronization::queue_data", %"struct.Halide::Runtime::Internal::Synchronization::queue_data"* %26, i64 0, i32 2
  store %"struct.Halide::Runtime::Internal::Synchronization::queue_data"* %28, %"struct.Halide::Runtime::Internal::Synchronization::queue_data"** %47, align 8, !tbaa !63
  br label %48

; <label>:48:                                     ; preds = %46, %44
  %49 = phi %"struct.Halide::Runtime::Internal::Synchronization::queue_data"* [ %27, %46 ], [ %28, %44 ]
  store atomic i64 %1, i64* %31 monotonic, align 8
  br label %50

; <label>:50:                                     ; preds = %48, %42, %24
  %51 = phi %"struct.Halide::Runtime::Internal::Synchronization::queue_data"** [ %30, %42 ], [ %30, %48 ], [ %33, %24 ]
  %52 = phi %"struct.Halide::Runtime::Internal::Synchronization::queue_data"* [ %29, %42 ], [ %29, %48 ], [ %28, %24 ]
  %53 = phi %"struct.Halide::Runtime::Internal::Synchronization::queue_data"* [ %27, %42 ], [ %49, %48 ], [ %27, %24 ]
  %54 = phi %"struct.Halide::Runtime::Internal::Synchronization::queue_data"* [ %26, %42 ], [ %28, %48 ], [ %26, %24 ]
  %55 = phi %"struct.Halide::Runtime::Internal::Synchronization::queue_data"* [ %28, %42 ], [ %25, %48 ], [ %25, %24 ]
  %56 = icmp eq %"struct.Halide::Runtime::Internal::Synchronization::queue_data"* %34, null
  br i1 %56, label %.loopexit, label %24

; <label>:57:                                     ; preds = %80, %.preheader
  %58 = phi %"struct.Halide::Runtime::Internal::Synchronization::queue_data"* [ %84, %80 ], [ null, %.preheader ]
  %59 = phi %"struct.Halide::Runtime::Internal::Synchronization::queue_data"* [ %83, %80 ], [ null, %.preheader ]
  %60 = phi %"struct.Halide::Runtime::Internal::Synchronization::queue_data"* [ %66, %80 ], [ %19, %.preheader ]
  %61 = phi %"struct.Halide::Runtime::Internal::Synchronization::queue_data"* [ %82, %80 ], [ null, %.preheader ]
  %62 = phi %"struct.Halide::Runtime::Internal::Synchronization::queue_data"** [ %81, %80 ], [ %18, %.preheader ]
  %63 = getelementptr inbounds %"struct.Halide::Runtime::Internal::Synchronization::queue_data", %"struct.Halide::Runtime::Internal::Synchronization::queue_data"* %60, i64 0, i32 1
  %64 = load atomic i64, i64* %63 monotonic, align 8
  %65 = getelementptr inbounds %"struct.Halide::Runtime::Internal::Synchronization::queue_data", %"struct.Halide::Runtime::Internal::Synchronization::queue_data"* %60, i64 0, i32 2
  %66 = load %"struct.Halide::Runtime::Internal::Synchronization::queue_data"*, %"struct.Halide::Runtime::Internal::Synchronization::queue_data"** %65, align 8, !tbaa !63
  %67 = icmp eq i64 %64, %0
  br i1 %67, label %68, label %80

; <label>:68:                                     ; preds = %57
  store %"struct.Halide::Runtime::Internal::Synchronization::queue_data"* %66, %"struct.Halide::Runtime::Internal::Synchronization::queue_data"** %62, align 8, !tbaa !7
  %69 = load %"struct.Halide::Runtime::Internal::Synchronization::hash_bucket"*, %"struct.Halide::Runtime::Internal::Synchronization::hash_bucket"** %16, align 8, !tbaa !90
  %70 = getelementptr inbounds %"struct.Halide::Runtime::Internal::Synchronization::hash_bucket", %"struct.Halide::Runtime::Internal::Synchronization::hash_bucket"* %69, i64 0, i32 2
  %71 = load %"struct.Halide::Runtime::Internal::Synchronization::queue_data"*, %"struct.Halide::Runtime::Internal::Synchronization::queue_data"** %70, align 8, !tbaa !69
  %72 = icmp eq %"struct.Halide::Runtime::Internal::Synchronization::queue_data"* %71, %60
  br i1 %72, label %73, label %74

; <label>:73:                                     ; preds = %68
  store %"struct.Halide::Runtime::Internal::Synchronization::queue_data"* %61, %"struct.Halide::Runtime::Internal::Synchronization::queue_data"** %70, align 8, !tbaa !69
  br label %74

; <label>:74:                                     ; preds = %73, %68
  %75 = icmp eq %"struct.Halide::Runtime::Internal::Synchronization::queue_data"* %59, null
  br i1 %75, label %78, label %76

; <label>:76:                                     ; preds = %74
  %77 = getelementptr inbounds %"struct.Halide::Runtime::Internal::Synchronization::queue_data", %"struct.Halide::Runtime::Internal::Synchronization::queue_data"* %58, i64 0, i32 2
  store %"struct.Halide::Runtime::Internal::Synchronization::queue_data"* %60, %"struct.Halide::Runtime::Internal::Synchronization::queue_data"** %77, align 8, !tbaa !63
  br label %78

; <label>:78:                                     ; preds = %76, %74
  %79 = phi %"struct.Halide::Runtime::Internal::Synchronization::queue_data"* [ %59, %76 ], [ %60, %74 ]
  store atomic i64 %1, i64* %63 monotonic, align 8
  br label %80

; <label>:80:                                     ; preds = %78, %57
  %81 = phi %"struct.Halide::Runtime::Internal::Synchronization::queue_data"** [ %62, %78 ], [ %65, %57 ]
  %82 = phi %"struct.Halide::Runtime::Internal::Synchronization::queue_data"* [ %61, %78 ], [ %60, %57 ]
  %83 = phi %"struct.Halide::Runtime::Internal::Synchronization::queue_data"* [ %79, %78 ], [ %59, %57 ]
  %84 = phi %"struct.Halide::Runtime::Internal::Synchronization::queue_data"* [ %60, %78 ], [ %58, %57 ]
  %85 = icmp eq %"struct.Halide::Runtime::Internal::Synchronization::queue_data"* %66, null
  br i1 %85, label %.loopexit, label %57

.loopexit:                                        ; preds = %80, %50
  %86 = phi %"struct.Halide::Runtime::Internal::Synchronization::queue_data"* [ %83, %80 ], [ %53, %50 ]
  %87 = phi %"struct.Halide::Runtime::Internal::Synchronization::queue_data"* [ %84, %80 ], [ %54, %50 ]
  %88 = phi %"struct.Halide::Runtime::Internal::Synchronization::queue_data"* [ null, %80 ], [ %55, %50 ]
  %89 = icmp eq %"struct.Halide::Runtime::Internal::Synchronization::queue_data"* %86, null
  br i1 %89, label %105, label %90

; <label>:90:                                     ; preds = %.loopexit
  %91 = getelementptr inbounds %"struct.Halide::Runtime::Internal::Synchronization::queue_data", %"struct.Halide::Runtime::Internal::Synchronization::queue_data"* %87, i64 0, i32 2
  store %"struct.Halide::Runtime::Internal::Synchronization::queue_data"* null, %"struct.Halide::Runtime::Internal::Synchronization::queue_data"** %91, align 8, !tbaa !63
  %92 = getelementptr inbounds %"struct.Halide::Runtime::Internal::Synchronization::bucket_pair", %"struct.Halide::Runtime::Internal::Synchronization::bucket_pair"* %5, i64 0, i32 1
  %93 = load %"struct.Halide::Runtime::Internal::Synchronization::hash_bucket"*, %"struct.Halide::Runtime::Internal::Synchronization::hash_bucket"** %92, align 8, !tbaa !92
  %94 = getelementptr inbounds %"struct.Halide::Runtime::Internal::Synchronization::hash_bucket", %"struct.Halide::Runtime::Internal::Synchronization::hash_bucket"* %93, i64 0, i32 1
  %95 = load %"struct.Halide::Runtime::Internal::Synchronization::queue_data"*, %"struct.Halide::Runtime::Internal::Synchronization::queue_data"** %94, align 8, !tbaa !88
  %96 = icmp eq %"struct.Halide::Runtime::Internal::Synchronization::queue_data"* %95, null
  br i1 %96, label %97, label %99

; <label>:97:                                     ; preds = %90
  store %"struct.Halide::Runtime::Internal::Synchronization::queue_data"* %86, %"struct.Halide::Runtime::Internal::Synchronization::queue_data"** %94, align 8, !tbaa !88
  %98 = getelementptr inbounds %"struct.Halide::Runtime::Internal::Synchronization::hash_bucket", %"struct.Halide::Runtime::Internal::Synchronization::hash_bucket"* %93, i64 0, i32 2
  br label %103

; <label>:99:                                     ; preds = %90
  %100 = getelementptr inbounds %"struct.Halide::Runtime::Internal::Synchronization::hash_bucket", %"struct.Halide::Runtime::Internal::Synchronization::hash_bucket"* %93, i64 0, i32 2
  %101 = load %"struct.Halide::Runtime::Internal::Synchronization::queue_data"*, %"struct.Halide::Runtime::Internal::Synchronization::queue_data"** %100, align 8, !tbaa !69
  %102 = getelementptr inbounds %"struct.Halide::Runtime::Internal::Synchronization::queue_data", %"struct.Halide::Runtime::Internal::Synchronization::queue_data"* %101, i64 0, i32 2
  store %"struct.Halide::Runtime::Internal::Synchronization::queue_data"* %86, %"struct.Halide::Runtime::Internal::Synchronization::queue_data"** %102, align 8, !tbaa !63
  br label %103

; <label>:103:                                    ; preds = %99, %97
  %104 = phi %"struct.Halide::Runtime::Internal::Synchronization::queue_data"** [ %100, %99 ], [ %98, %97 ]
  store %"struct.Halide::Runtime::Internal::Synchronization::queue_data"* %87, %"struct.Halide::Runtime::Internal::Synchronization::queue_data"** %104, align 8, !tbaa !69
  br label %105

; <label>:105:                                    ; preds = %103, %.loopexit, %15
  %106 = phi i1 [ true, %103 ], [ false, %.loopexit ], [ false, %15 ]
  %107 = phi %"struct.Halide::Runtime::Internal::Synchronization::queue_data"* [ %88, %103 ], [ %88, %.loopexit ], [ null, %15 ]
  %108 = getelementptr inbounds %"struct.Halide::Runtime::Internal::Synchronization::parking_control", %"struct.Halide::Runtime::Internal::Synchronization::parking_control"* %2, i64 0, i32 3
  %109 = load void (i8*, %"struct.Halide::Runtime::Internal::Synchronization::validate_action"*, i1, i1)*, void (i8*, %"struct.Halide::Runtime::Internal::Synchronization::validate_action"*, i1, i1)** %108, align 8, !tbaa !37
  %110 = icmp ne %"struct.Halide::Runtime::Internal::Synchronization::queue_data"* %107, null
  call void %109(i8* nonnull %12, %"struct.Halide::Runtime::Internal::Synchronization::validate_action"* nonnull dereferenceable(16) %6, i1 zeroext %110, i1 zeroext %106) #13
  br i1 %110, label %111, label %119

; <label>:111:                                    ; preds = %105
  %112 = getelementptr inbounds %"struct.Halide::Runtime::Internal::Synchronization::queue_data", %"struct.Halide::Runtime::Internal::Synchronization::queue_data"* %107, i64 0, i32 3
  store i64 %3, i64* %112, align 8, !tbaa !72
  %113 = getelementptr inbounds %"struct.Halide::Runtime::Internal::Synchronization::queue_data", %"struct.Halide::Runtime::Internal::Synchronization::queue_data"* %107, i64 0, i32 0, i32 0
  %114 = call i32 @pthread_mutex_lock(%struct.pthread_mutex_t* nonnull %113) #13
  call void @_ZN6Halide7Runtime8Internal15Synchronization18unlock_bucket_pairERNS2_11bucket_pairE(%"struct.Halide::Runtime::Internal::Synchronization::bucket_pair"* nonnull dereferenceable(16) %5) #14
  %115 = getelementptr inbounds %"struct.Halide::Runtime::Internal::Synchronization::queue_data", %"struct.Halide::Runtime::Internal::Synchronization::queue_data"* %107, i64 0, i32 0, i32 2
  store i8 0, i8* %115, align 8, !tbaa !73
  %116 = getelementptr inbounds %"struct.Halide::Runtime::Internal::Synchronization::queue_data", %"struct.Halide::Runtime::Internal::Synchronization::queue_data"* %107, i64 0, i32 0, i32 1
  %117 = call i32 @pthread_cond_signal(%struct.pthread_mutex_t* nonnull %116) #13
  %118 = call i32 @pthread_mutex_unlock(%struct.pthread_mutex_t* nonnull %113) #13
  br label %120

; <label>:119:                                    ; preds = %105
  call void @_ZN6Halide7Runtime8Internal15Synchronization18unlock_bucket_pairERNS2_11bucket_pairE(%"struct.Halide::Runtime::Internal::Synchronization::bucket_pair"* nonnull dereferenceable(16) %5) #14
  br label %120

; <label>:120:                                    ; preds = %119, %111
  %121 = load i8, i8* %8, align 8
  %122 = and i8 %121, 1
  %123 = icmp ne i8 %122, 0
  %124 = and i1 %110, %123
  %125 = zext i1 %124 to i32
  br label %126

; <label>:126:                                    ; preds = %120, %14
  %127 = phi i32 [ %125, %120 ], [ 0, %14 ]
  call void @llvm.lifetime.end.p0i8(i64 16, i8* nonnull %8) #11
  call void @llvm.lifetime.end.p0i8(i64 16, i8* nonnull %7) #11
  ret i32 %127
}

; Function Attrs: nounwind
define linkonce void @_ZN6Halide7Runtime8Internal15Synchronization16lock_bucket_pairEyy(%"struct.Halide::Runtime::Internal::Synchronization::bucket_pair"* noalias sret, i64, i64) local_unnamed_addr #0 {
  %4 = mul i64 %1, -7046029254386353131
  %5 = lshr i64 %4, 54
  %6 = mul i64 %2, -7046029254386353131
  %7 = lshr i64 %6, 54
  %8 = icmp eq i64 %5, %7
  br i1 %8, label %9, label %16

; <label>:9:                                      ; preds = %3
  %10 = getelementptr inbounds [1024 x %"struct.Halide::Runtime::Internal::Synchronization::hash_bucket"], [1024 x %"struct.Halide::Runtime::Internal::Synchronization::hash_bucket"]* bitcast ([24576 x i8]* @_ZN6Halide7Runtime8Internal15Synchronization13table_storageE to [1024 x %"struct.Halide::Runtime::Internal::Synchronization::hash_bucket"]*), i64 0, i64 %5
  %11 = getelementptr inbounds %"struct.Halide::Runtime::Internal::Synchronization::hash_bucket", %"struct.Halide::Runtime::Internal::Synchronization::hash_bucket"* %10, i64 0, i32 0, i32 0
  %12 = cmpxchg weak i64* %11, i64 0, i64 1 acquire monotonic
  %13 = extractvalue { i64, i1 } %12, 1
  br i1 %13, label %46, label %14

; <label>:14:                                     ; preds = %9
  %15 = getelementptr inbounds %"struct.Halide::Runtime::Internal::Synchronization::hash_bucket", %"struct.Halide::Runtime::Internal::Synchronization::hash_bucket"* %10, i64 0, i32 0
  tail call void @_ZN6Halide7Runtime8Internal15Synchronization9word_lock9lock_fullEv(%"class.Halide::Runtime::Internal::Synchronization::word_lock"* %15) #13
  br label %46

; <label>:16:                                     ; preds = %3
  %17 = icmp ult i64 %5, %7
  br i1 %17, label %18, label %32

; <label>:18:                                     ; preds = %16
  %19 = getelementptr inbounds [1024 x %"struct.Halide::Runtime::Internal::Synchronization::hash_bucket"], [1024 x %"struct.Halide::Runtime::Internal::Synchronization::hash_bucket"]* bitcast ([24576 x i8]* @_ZN6Halide7Runtime8Internal15Synchronization13table_storageE to [1024 x %"struct.Halide::Runtime::Internal::Synchronization::hash_bucket"]*), i64 0, i64 %5
  %20 = getelementptr inbounds [1024 x %"struct.Halide::Runtime::Internal::Synchronization::hash_bucket"], [1024 x %"struct.Halide::Runtime::Internal::Synchronization::hash_bucket"]* bitcast ([24576 x i8]* @_ZN6Halide7Runtime8Internal15Synchronization13table_storageE to [1024 x %"struct.Halide::Runtime::Internal::Synchronization::hash_bucket"]*), i64 0, i64 %7
  %21 = getelementptr inbounds %"struct.Halide::Runtime::Internal::Synchronization::hash_bucket", %"struct.Halide::Runtime::Internal::Synchronization::hash_bucket"* %19, i64 0, i32 0, i32 0
  %22 = cmpxchg weak i64* %21, i64 0, i64 1 acquire monotonic
  %23 = extractvalue { i64, i1 } %22, 1
  br i1 %23, label %26, label %24

; <label>:24:                                     ; preds = %18
  %25 = getelementptr inbounds %"struct.Halide::Runtime::Internal::Synchronization::hash_bucket", %"struct.Halide::Runtime::Internal::Synchronization::hash_bucket"* %19, i64 0, i32 0
  tail call void @_ZN6Halide7Runtime8Internal15Synchronization9word_lock9lock_fullEv(%"class.Halide::Runtime::Internal::Synchronization::word_lock"* %25) #13
  br label %26

; <label>:26:                                     ; preds = %24, %18
  %27 = getelementptr inbounds %"struct.Halide::Runtime::Internal::Synchronization::hash_bucket", %"struct.Halide::Runtime::Internal::Synchronization::hash_bucket"* %20, i64 0, i32 0, i32 0
  %28 = cmpxchg weak i64* %27, i64 0, i64 1 acquire monotonic
  %29 = extractvalue { i64, i1 } %28, 1
  br i1 %29, label %46, label %30

; <label>:30:                                     ; preds = %26
  %31 = getelementptr inbounds %"struct.Halide::Runtime::Internal::Synchronization::hash_bucket", %"struct.Halide::Runtime::Internal::Synchronization::hash_bucket"* %20, i64 0, i32 0
  tail call void @_ZN6Halide7Runtime8Internal15Synchronization9word_lock9lock_fullEv(%"class.Halide::Runtime::Internal::Synchronization::word_lock"* %31) #13
  br label %46

; <label>:32:                                     ; preds = %16
  %33 = getelementptr inbounds [1024 x %"struct.Halide::Runtime::Internal::Synchronization::hash_bucket"], [1024 x %"struct.Halide::Runtime::Internal::Synchronization::hash_bucket"]* bitcast ([24576 x i8]* @_ZN6Halide7Runtime8Internal15Synchronization13table_storageE to [1024 x %"struct.Halide::Runtime::Internal::Synchronization::hash_bucket"]*), i64 0, i64 %7
  %34 = getelementptr inbounds [1024 x %"struct.Halide::Runtime::Internal::Synchronization::hash_bucket"], [1024 x %"struct.Halide::Runtime::Internal::Synchronization::hash_bucket"]* bitcast ([24576 x i8]* @_ZN6Halide7Runtime8Internal15Synchronization13table_storageE to [1024 x %"struct.Halide::Runtime::Internal::Synchronization::hash_bucket"]*), i64 0, i64 %5
  %35 = getelementptr inbounds %"struct.Halide::Runtime::Internal::Synchronization::hash_bucket", %"struct.Halide::Runtime::Internal::Synchronization::hash_bucket"* %33, i64 0, i32 0, i32 0
  %36 = cmpxchg weak i64* %35, i64 0, i64 1 acquire monotonic
  %37 = extractvalue { i64, i1 } %36, 1
  br i1 %37, label %40, label %38

; <label>:38:                                     ; preds = %32
  %39 = getelementptr inbounds %"struct.Halide::Runtime::Internal::Synchronization::hash_bucket", %"struct.Halide::Runtime::Internal::Synchronization::hash_bucket"* %33, i64 0, i32 0
  tail call void @_ZN6Halide7Runtime8Internal15Synchronization9word_lock9lock_fullEv(%"class.Halide::Runtime::Internal::Synchronization::word_lock"* %39) #13
  br label %40

; <label>:40:                                     ; preds = %38, %32
  %41 = getelementptr inbounds %"struct.Halide::Runtime::Internal::Synchronization::hash_bucket", %"struct.Halide::Runtime::Internal::Synchronization::hash_bucket"* %34, i64 0, i32 0, i32 0
  %42 = cmpxchg weak i64* %41, i64 0, i64 1 acquire monotonic
  %43 = extractvalue { i64, i1 } %42, 1
  br i1 %43, label %46, label %44

; <label>:44:                                     ; preds = %40
  %45 = getelementptr inbounds %"struct.Halide::Runtime::Internal::Synchronization::hash_bucket", %"struct.Halide::Runtime::Internal::Synchronization::hash_bucket"* %34, i64 0, i32 0
  tail call void @_ZN6Halide7Runtime8Internal15Synchronization9word_lock9lock_fullEv(%"class.Halide::Runtime::Internal::Synchronization::word_lock"* %45) #13
  br label %46

; <label>:46:                                     ; preds = %44, %40, %30, %26, %14, %9
  %47 = phi %"struct.Halide::Runtime::Internal::Synchronization::hash_bucket"* [ %10, %9 ], [ %10, %14 ], [ %19, %26 ], [ %19, %30 ], [ %34, %40 ], [ %34, %44 ]
  %48 = phi %"struct.Halide::Runtime::Internal::Synchronization::hash_bucket"* [ %10, %9 ], [ %10, %14 ], [ %20, %26 ], [ %20, %30 ], [ %33, %40 ], [ %33, %44 ]
  %49 = getelementptr inbounds %"struct.Halide::Runtime::Internal::Synchronization::bucket_pair", %"struct.Halide::Runtime::Internal::Synchronization::bucket_pair"* %0, i64 0, i32 0
  store %"struct.Halide::Runtime::Internal::Synchronization::hash_bucket"* %47, %"struct.Halide::Runtime::Internal::Synchronization::hash_bucket"** %49, align 8, !tbaa !7
  %50 = getelementptr inbounds %"struct.Halide::Runtime::Internal::Synchronization::bucket_pair", %"struct.Halide::Runtime::Internal::Synchronization::bucket_pair"* %0, i64 0, i32 1
  store %"struct.Halide::Runtime::Internal::Synchronization::hash_bucket"* %48, %"struct.Halide::Runtime::Internal::Synchronization::hash_bucket"** %50, align 8, !tbaa !7
  ret void
}

; Function Attrs: nounwind
define linkonce void @_ZN6Halide7Runtime8Internal15Synchronization18unlock_bucket_pairERNS2_11bucket_pairE(%"struct.Halide::Runtime::Internal::Synchronization::bucket_pair"* dereferenceable(16)) local_unnamed_addr #0 {
  %2 = getelementptr inbounds %"struct.Halide::Runtime::Internal::Synchronization::bucket_pair", %"struct.Halide::Runtime::Internal::Synchronization::bucket_pair"* %0, i64 0, i32 0
  %3 = load %"struct.Halide::Runtime::Internal::Synchronization::hash_bucket"*, %"struct.Halide::Runtime::Internal::Synchronization::hash_bucket"** %2, align 8, !tbaa !90
  %4 = getelementptr inbounds %"struct.Halide::Runtime::Internal::Synchronization::bucket_pair", %"struct.Halide::Runtime::Internal::Synchronization::bucket_pair"* %0, i64 0, i32 1
  %5 = load %"struct.Halide::Runtime::Internal::Synchronization::hash_bucket"*, %"struct.Halide::Runtime::Internal::Synchronization::hash_bucket"** %4, align 8, !tbaa !92
  %6 = icmp eq %"struct.Halide::Runtime::Internal::Synchronization::hash_bucket"* %3, %5
  br i1 %6, label %7, label %16

; <label>:7:                                      ; preds = %1
  %8 = getelementptr inbounds %"struct.Halide::Runtime::Internal::Synchronization::hash_bucket", %"struct.Halide::Runtime::Internal::Synchronization::hash_bucket"* %3, i64 0, i32 0, i32 0
  %9 = atomicrmw and i64* %8, i64 -2 release
  %10 = and i64 %9, 2
  %11 = icmp eq i64 %10, 0
  %12 = icmp ugt i64 %9, 3
  %13 = and i1 %12, %11
  br i1 %13, label %14, label %56

; <label>:14:                                     ; preds = %7
  %15 = getelementptr inbounds %"struct.Halide::Runtime::Internal::Synchronization::hash_bucket", %"struct.Halide::Runtime::Internal::Synchronization::hash_bucket"* %3, i64 0, i32 0
  tail call void @_ZN6Halide7Runtime8Internal15Synchronization9word_lock11unlock_fullEv(%"class.Halide::Runtime::Internal::Synchronization::word_lock"* %15) #13
  br label %56

; <label>:16:                                     ; preds = %1
  %17 = icmp ugt %"struct.Halide::Runtime::Internal::Synchronization::hash_bucket"* %3, %5
  br i1 %17, label %18, label %37

; <label>:18:                                     ; preds = %16
  %19 = getelementptr inbounds %"struct.Halide::Runtime::Internal::Synchronization::hash_bucket", %"struct.Halide::Runtime::Internal::Synchronization::hash_bucket"* %3, i64 0, i32 0, i32 0
  %20 = atomicrmw and i64* %19, i64 -2 release
  %21 = and i64 %20, 2
  %22 = icmp eq i64 %21, 0
  %23 = icmp ugt i64 %20, 3
  %24 = and i1 %23, %22
  br i1 %24, label %25, label %27

; <label>:25:                                     ; preds = %18
  %26 = getelementptr inbounds %"struct.Halide::Runtime::Internal::Synchronization::hash_bucket", %"struct.Halide::Runtime::Internal::Synchronization::hash_bucket"* %3, i64 0, i32 0
  tail call void @_ZN6Halide7Runtime8Internal15Synchronization9word_lock11unlock_fullEv(%"class.Halide::Runtime::Internal::Synchronization::word_lock"* %26) #13
  br label %27

; <label>:27:                                     ; preds = %25, %18
  %28 = load %"struct.Halide::Runtime::Internal::Synchronization::hash_bucket"*, %"struct.Halide::Runtime::Internal::Synchronization::hash_bucket"** %4, align 8, !tbaa !92
  %29 = getelementptr inbounds %"struct.Halide::Runtime::Internal::Synchronization::hash_bucket", %"struct.Halide::Runtime::Internal::Synchronization::hash_bucket"* %28, i64 0, i32 0, i32 0
  %30 = atomicrmw and i64* %29, i64 -2 release
  %31 = and i64 %30, 2
  %32 = icmp eq i64 %31, 0
  %33 = icmp ugt i64 %30, 3
  %34 = and i1 %33, %32
  br i1 %34, label %35, label %56

; <label>:35:                                     ; preds = %27
  %36 = getelementptr inbounds %"struct.Halide::Runtime::Internal::Synchronization::hash_bucket", %"struct.Halide::Runtime::Internal::Synchronization::hash_bucket"* %28, i64 0, i32 0
  tail call void @_ZN6Halide7Runtime8Internal15Synchronization9word_lock11unlock_fullEv(%"class.Halide::Runtime::Internal::Synchronization::word_lock"* %36) #13
  br label %56

; <label>:37:                                     ; preds = %16
  %38 = getelementptr inbounds %"struct.Halide::Runtime::Internal::Synchronization::hash_bucket", %"struct.Halide::Runtime::Internal::Synchronization::hash_bucket"* %5, i64 0, i32 0, i32 0
  %39 = atomicrmw and i64* %38, i64 -2 release
  %40 = and i64 %39, 2
  %41 = icmp eq i64 %40, 0
  %42 = icmp ugt i64 %39, 3
  %43 = and i1 %42, %41
  br i1 %43, label %44, label %46

; <label>:44:                                     ; preds = %37
  %45 = getelementptr inbounds %"struct.Halide::Runtime::Internal::Synchronization::hash_bucket", %"struct.Halide::Runtime::Internal::Synchronization::hash_bucket"* %5, i64 0, i32 0
  tail call void @_ZN6Halide7Runtime8Internal15Synchronization9word_lock11unlock_fullEv(%"class.Halide::Runtime::Internal::Synchronization::word_lock"* %45) #13
  br label %46

; <label>:46:                                     ; preds = %44, %37
  %47 = load %"struct.Halide::Runtime::Internal::Synchronization::hash_bucket"*, %"struct.Halide::Runtime::Internal::Synchronization::hash_bucket"** %2, align 8, !tbaa !90
  %48 = getelementptr inbounds %"struct.Halide::Runtime::Internal::Synchronization::hash_bucket", %"struct.Halide::Runtime::Internal::Synchronization::hash_bucket"* %47, i64 0, i32 0, i32 0
  %49 = atomicrmw and i64* %48, i64 -2 release
  %50 = and i64 %49, 2
  %51 = icmp eq i64 %50, 0
  %52 = icmp ugt i64 %49, 3
  %53 = and i1 %52, %51
  br i1 %53, label %54, label %56

; <label>:54:                                     ; preds = %46
  %55 = getelementptr inbounds %"struct.Halide::Runtime::Internal::Synchronization::hash_bucket", %"struct.Halide::Runtime::Internal::Synchronization::hash_bucket"* %47, i64 0, i32 0
  tail call void @_ZN6Halide7Runtime8Internal15Synchronization9word_lock11unlock_fullEv(%"class.Halide::Runtime::Internal::Synchronization::word_lock"* %55) #13
  br label %56

; <label>:56:                                     ; preds = %54, %46, %35, %27, %14, %7
  ret void
}

; Function Attrs: nounwind
define linkonce i32 @_ZN6Halide7Runtime8Internal27default_desired_num_threadsEv() local_unnamed_addr #0 {
  %1 = tail call i8* @getenv(i8* getelementptr inbounds ([15 x i8], [15 x i8]* @.str.1, i64 0, i64 0)) #13
  %2 = icmp eq i8* %1, null
  br i1 %2, label %3, label %6

; <label>:3:                                      ; preds = %0
  %4 = tail call i8* @getenv(i8* getelementptr inbounds ([14 x i8], [14 x i8]* @.str.2, i64 0, i64 0)) #13
  %5 = icmp eq i8* %4, null
  br i1 %5, label %9, label %6

; <label>:6:                                      ; preds = %3, %0
  %7 = phi i8* [ %4, %3 ], [ %1, %0 ]
  %8 = tail call i32 @atoi(i8* nonnull %7) #13
  br label %11

; <label>:9:                                      ; preds = %3
  %10 = tail call i32 @halide_host_cpu_count() #13
  br label %11

; <label>:11:                                     ; preds = %9, %6
  %12 = phi i32 [ %8, %6 ], [ %10, %9 ]
  ret i32 %12
}

; Function Attrs: norecurse nounwind
define linkonce i32 @_ZN6Halide7Runtime8Internal17clamp_num_threadsEi(i32) local_unnamed_addr #2 {
  %2 = icmp sgt i32 %0, 256
  br i1 %2, label %6, label %3

; <label>:3:                                      ; preds = %1
  %4 = icmp sgt i32 %0, 1
  %5 = select i1 %4, i32 %0, i32 1
  ret i32 %5

; <label>:6:                                      ; preds = %1
  ret i32 256
}

; Function Attrs: nounwind
define linkonce void @_ZN6Halide7Runtime8Internal13worker_threadEPv(i8*) #0 {
  tail call void @halide_mutex_lock(%struct.halide_mutex* getelementptr inbounds (%"struct.Halide::Runtime::Internal::work_queue_t", %"struct.Halide::Runtime::Internal::work_queue_t"* @_ZN6Halide7Runtime8Internal10work_queueE, i64 0, i32 0)) #14
  %2 = bitcast i8* %0 to %"struct.Halide::Runtime::Internal::work"*
  tail call void @_ZN6Halide7Runtime8Internal28worker_thread_already_lockedEPNS1_4workE(%"struct.Halide::Runtime::Internal::work"* %2) #14
  tail call void @halide_mutex_unlock(%struct.halide_mutex* getelementptr inbounds (%"struct.Halide::Runtime::Internal::work_queue_t", %"struct.Halide::Runtime::Internal::work_queue_t"* @_ZN6Halide7Runtime8Internal10work_queueE, i64 0, i32 0)) #14
  ret void
}

; Function Attrs: nounwind
define weak %struct.halide_thread* @halide_spawn_thread(void (i8*)*, i8*) local_unnamed_addr #0 {
  %3 = tail call i8* @malloc(i64 24) #13
  %4 = bitcast i8* %3 to void (i8*)**
  store void (i8*)* %0, void (i8*)** %4, align 8, !tbaa !93
  %5 = getelementptr inbounds i8, i8* %3, i64 8
  %6 = bitcast i8* %5 to i8**
  store i8* %1, i8** %6, align 8, !tbaa !95
  %7 = getelementptr inbounds i8, i8* %3, i64 16
  %8 = bitcast i8* %7 to i64*
  store i64 0, i64* %8, align 8, !tbaa !96
  %9 = tail call i32 @pthread_create(i64* nonnull %8, i8* null, i8* (i8*)* nonnull @_ZN6Halide7Runtime8Internal19spawn_thread_helperEPv, i8* %3) #13
  %10 = bitcast i8* %3 to %struct.halide_thread*
  ret %struct.halide_thread* %10
}

; Function Attrs: nounwind
define linkonce i8* @_ZN6Halide7Runtime8Internal19spawn_thread_helperEPv(i8*) #0 {
  %2 = bitcast i8* %0 to void (i8*)**
  %3 = load void (i8*)*, void (i8*)** %2, align 8, !tbaa !93
  %4 = getelementptr inbounds i8, i8* %0, i64 8
  %5 = bitcast i8* %4 to i8**
  %6 = load i8*, i8** %5, align 8, !tbaa !95
  tail call void %3(i8* %6) #13
  ret i8* null
}

declare i32 @pthread_create(i64*, i8*, i8* (i8*)*, i8*) local_unnamed_addr #4

; Function Attrs: nounwind readonly
declare i8* @getenv(i8* nocapture) local_unnamed_addr #6

; Function Attrs: nounwind readonly
declare i32 @atoi(i8* nocapture) local_unnamed_addr #6

; Function Attrs: nounwind
define weak i32 @halide_default_do_parallel_tasks(i8*, i32, %struct.halide_parallel_task_t*, i8*) #0 {
  %5 = sext i32 %1 to i64
  %6 = alloca %"struct.Halide::Runtime::Internal::work", i64 %5, align 8
  %7 = icmp sgt i32 %1, 0
  br i1 %7, label %.preheader, label %.loopexit1

.preheader:                                       ; preds = %4
  br label %10

.loopexit1:                                       ; preds = %30, %4
  %8 = phi i32 [ %1, %4 ], [ %32, %30 ]
  %9 = icmp eq i32 %8, 0
  br i1 %9, label %52, label %36

; <label>:10:                                     ; preds = %30, %.preheader
  %11 = phi i64 [ %33, %30 ], [ 0, %.preheader ]
  %12 = phi i32 [ %32, %30 ], [ %1, %.preheader ]
  %13 = phi %struct.halide_parallel_task_t* [ %31, %30 ], [ %2, %.preheader ]
  %14 = getelementptr inbounds %struct.halide_parallel_task_t, %struct.halide_parallel_task_t* %13, i64 0, i32 6
  %15 = load i32, i32* %14, align 8, !tbaa !97
  %16 = icmp slt i32 %15, 1
  br i1 %16, label %17, label %19

; <label>:17:                                     ; preds = %10
  %18 = add nsw i32 %12, -1
  br label %30

; <label>:19:                                     ; preds = %10
  %20 = getelementptr inbounds %struct.halide_parallel_task_t, %struct.halide_parallel_task_t* %13, i64 1
  %21 = getelementptr inbounds %"struct.Halide::Runtime::Internal::work", %"struct.Halide::Runtime::Internal::work"* %6, i64 %11
  %22 = bitcast %"struct.Halide::Runtime::Internal::work"* %21 to i8*
  %23 = bitcast %struct.halide_parallel_task_t* %13 to i8*
  call void @llvm.memcpy.p0i8.p0i8.i64(i8* nonnull %22, i8* %23, i64 56, i32 8, i1 false), !tbaa.struct !98
  %24 = getelementptr inbounds %"struct.Halide::Runtime::Internal::work", %"struct.Halide::Runtime::Internal::work"* %6, i64 %11, i32 1
  store i32 (i8*, i32, i8*)* null, i32 (i8*, i32, i8*)** %24, align 8, !tbaa !29
  %25 = getelementptr inbounds %"struct.Halide::Runtime::Internal::work", %"struct.Halide::Runtime::Internal::work"* %6, i64 %11, i32 7
  store i8* %0, i8** %25, align 8, !tbaa !30
  %26 = getelementptr inbounds %"struct.Halide::Runtime::Internal::work", %"struct.Halide::Runtime::Internal::work"* %6, i64 %11, i32 8
  %27 = getelementptr inbounds %"struct.Halide::Runtime::Internal::work", %"struct.Halide::Runtime::Internal::work"* %6, i64 %11, i32 5
  %28 = bitcast %"struct.Halide::Runtime::Internal::work"** %27 to i8**
  %29 = bitcast i32* %26 to i8*
  call void @llvm.memset.p0i8.i64(i8* nonnull %29, i8 0, i64 13, i32 8, i1 false)
  store i8* %3, i8** %28, align 8, !tbaa !33
  br label %30

; <label>:30:                                     ; preds = %19, %17
  %31 = phi %struct.halide_parallel_task_t* [ %13, %17 ], [ %20, %19 ]
  %32 = phi i32 [ %18, %17 ], [ %12, %19 ]
  %33 = add nuw nsw i64 %11, 1
  %34 = sext i32 %32 to i64
  %35 = icmp slt i64 %33, %34
  br i1 %35, label %10, label %.loopexit1

; <label>:36:                                     ; preds = %.loopexit1
  tail call void @halide_mutex_lock(%struct.halide_mutex* getelementptr inbounds (%"struct.Halide::Runtime::Internal::work_queue_t", %"struct.Halide::Runtime::Internal::work_queue_t"* @_ZN6Halide7Runtime8Internal10work_queueE, i64 0, i32 0)) #14
  %37 = bitcast i8* %3 to %"struct.Halide::Runtime::Internal::work"*
  call void @_ZN6Halide7Runtime8Internal27enqueue_work_already_lockedEiPNS1_4workES3_(i32 %8, %"struct.Halide::Runtime::Internal::work"* nonnull %6, %"struct.Halide::Runtime::Internal::work"* %37) #14
  %38 = icmp sgt i32 %8, 0
  br i1 %38, label %39, label %.loopexit

; <label>:39:                                     ; preds = %36
  %40 = zext i32 %8 to i64
  br label %42

.loopexit:                                        ; preds = %42, %36
  %41 = phi i32 [ 0, %36 ], [ %49, %42 ]
  call void @halide_mutex_unlock(%struct.halide_mutex* getelementptr inbounds (%"struct.Halide::Runtime::Internal::work_queue_t", %"struct.Halide::Runtime::Internal::work_queue_t"* @_ZN6Halide7Runtime8Internal10work_queueE, i64 0, i32 0)) #14
  br label %52

; <label>:42:                                     ; preds = %42, %39
  %43 = phi i64 [ 0, %39 ], [ %50, %42 ]
  %44 = phi i32 [ 0, %39 ], [ %49, %42 ]
  %45 = getelementptr inbounds %"struct.Halide::Runtime::Internal::work", %"struct.Halide::Runtime::Internal::work"* %6, i64 %43
  call void @_ZN6Halide7Runtime8Internal28worker_thread_already_lockedEPNS1_4workE(%"struct.Halide::Runtime::Internal::work"* nonnull %45) #14
  %46 = getelementptr inbounds %"struct.Halide::Runtime::Internal::work", %"struct.Halide::Runtime::Internal::work"* %6, i64 %43, i32 9
  %47 = load i32, i32* %46, align 4, !tbaa !34
  %48 = icmp eq i32 %47, 0
  %49 = select i1 %48, i32 %44, i32 %47
  %50 = add nuw nsw i64 %43, 1
  %51 = icmp eq i64 %50, %40
  br i1 %51, label %.loopexit, label %42

; <label>:52:                                     ; preds = %.loopexit, %.loopexit1
  %53 = phi i32 [ %41, %.loopexit ], [ 0, %.loopexit1 ]
  ret i32 %53
}

; Function Attrs: argmemonly nounwind
declare void @llvm.memcpy.p0i8.p0i8.i64(i8* nocapture writeonly, i8* nocapture readonly, i64, i32, i1) #3

; Function Attrs: norecurse nounwind
define weak i32 @halide_default_semaphore_init(%struct.halide_semaphore_t*, i32) #2 {
  %3 = bitcast %struct.halide_semaphore_t* %0 to i32*
  store atomic i32 %1, i32* %3 release, align 4
  ret i32 %1
}

; Function Attrs: nounwind
define weak i32 @halide_default_semaphore_release(%struct.halide_semaphore_t*, i32) #0 {
  %3 = bitcast %struct.halide_semaphore_t* %0 to i32*
  %4 = atomicrmw add i32* %3, i32 %1 acq_rel
  %5 = icmp eq i32 %4, 0
  %6 = icmp ne i32 %1, 0
  %7 = and i1 %6, %5
  br i1 %7, label %8, label %9

; <label>:8:                                      ; preds = %2
  tail call void @halide_mutex_lock(%struct.halide_mutex* getelementptr inbounds (%"struct.Halide::Runtime::Internal::work_queue_t", %"struct.Halide::Runtime::Internal::work_queue_t"* @_ZN6Halide7Runtime8Internal10work_queueE, i64 0, i32 0)) #14
  tail call void @halide_cond_broadcast(%struct.halide_mutex* getelementptr inbounds (%"struct.Halide::Runtime::Internal::work_queue_t", %"struct.Halide::Runtime::Internal::work_queue_t"* @_ZN6Halide7Runtime8Internal10work_queueE, i64 0, i32 8)) #14
  tail call void @halide_cond_broadcast(%struct.halide_mutex* getelementptr inbounds (%"struct.Halide::Runtime::Internal::work_queue_t", %"struct.Halide::Runtime::Internal::work_queue_t"* @_ZN6Halide7Runtime8Internal10work_queueE, i64 0, i32 10)) #14
  tail call void @halide_mutex_unlock(%struct.halide_mutex* getelementptr inbounds (%"struct.Halide::Runtime::Internal::work_queue_t", %"struct.Halide::Runtime::Internal::work_queue_t"* @_ZN6Halide7Runtime8Internal10work_queueE, i64 0, i32 0)) #14
  br label %9

; <label>:9:                                      ; preds = %8, %2
  %10 = add nsw i32 %4, %1
  ret i32 %10
}

; Function Attrs: nounwind
define weak void @halide_thread_pool_cleanup() #0 {
  tail call void @halide_shutdown_thread_pool() #14
  ret void
}

; Function Attrs: nounwind
define weak void @halide_shutdown_thread_pool() local_unnamed_addr #0 {
  %1 = load i8, i8* getelementptr inbounds (%"struct.Halide::Runtime::Internal::work_queue_t", %"struct.Halide::Runtime::Internal::work_queue_t"* @_ZN6Halide7Runtime8Internal10work_queueE, i64 0, i32 15), align 1, !tbaa !42, !range !14
  %2 = icmp eq i8 %1, 0
  br i1 %2, label %15, label %3

; <label>:3:                                      ; preds = %0
  tail call void @halide_mutex_lock(%struct.halide_mutex* getelementptr inbounds (%"struct.Halide::Runtime::Internal::work_queue_t", %"struct.Halide::Runtime::Internal::work_queue_t"* @_ZN6Halide7Runtime8Internal10work_queueE, i64 0, i32 0)) #14
  store i8 1, i8* getelementptr inbounds (%"struct.Halide::Runtime::Internal::work_queue_t", %"struct.Halide::Runtime::Internal::work_queue_t"* @_ZN6Halide7Runtime8Internal10work_queueE, i64 0, i32 14), align 8, !tbaa !57
  tail call void @halide_cond_broadcast(%struct.halide_mutex* getelementptr inbounds (%"struct.Halide::Runtime::Internal::work_queue_t", %"struct.Halide::Runtime::Internal::work_queue_t"* @_ZN6Halide7Runtime8Internal10work_queueE, i64 0, i32 10)) #14
  tail call void @halide_cond_broadcast(%struct.halide_mutex* getelementptr inbounds (%"struct.Halide::Runtime::Internal::work_queue_t", %"struct.Halide::Runtime::Internal::work_queue_t"* @_ZN6Halide7Runtime8Internal10work_queueE, i64 0, i32 8)) #14
  tail call void @halide_cond_broadcast(%struct.halide_mutex* getelementptr inbounds (%"struct.Halide::Runtime::Internal::work_queue_t", %"struct.Halide::Runtime::Internal::work_queue_t"* @_ZN6Halide7Runtime8Internal10work_queueE, i64 0, i32 9)) #14
  tail call void @halide_mutex_unlock(%struct.halide_mutex* getelementptr inbounds (%"struct.Halide::Runtime::Internal::work_queue_t", %"struct.Halide::Runtime::Internal::work_queue_t"* @_ZN6Halide7Runtime8Internal10work_queueE, i64 0, i32 0)) #14
  %4 = load i32, i32* getelementptr inbounds (%"struct.Halide::Runtime::Internal::work_queue_t", %"struct.Halide::Runtime::Internal::work_queue_t"* @_ZN6Halide7Runtime8Internal10work_queueE, i64 0, i32 4), align 8, !tbaa !47
  %5 = icmp sgt i32 %4, 0
  br i1 %5, label %.preheader, label %.loopexit

.preheader:                                       ; preds = %3
  br label %7

.loopexit:                                        ; preds = %7, %3
  %6 = tail call i8* @memset(i8* nonnull bitcast (i32* getelementptr inbounds (%"struct.Halide::Runtime::Internal::work_queue_t", %"struct.Halide::Runtime::Internal::work_queue_t"* @_ZN6Halide7Runtime8Internal10work_queueE, i64 0, i32 2) to i8*), i32 0, i64 2116) #13
  br label %15

; <label>:7:                                      ; preds = %7, %.preheader
  %8 = phi i64 [ %11, %7 ], [ 0, %.preheader ]
  %9 = getelementptr inbounds %"struct.Halide::Runtime::Internal::work_queue_t", %"struct.Halide::Runtime::Internal::work_queue_t"* @_ZN6Halide7Runtime8Internal10work_queueE, i64 0, i32 13, i64 %8
  %10 = load %struct.halide_thread*, %struct.halide_thread** %9, align 8, !tbaa !7
  tail call void @halide_join_thread(%struct.halide_thread* %10) #14
  %11 = add nuw nsw i64 %8, 1
  %12 = load i32, i32* getelementptr inbounds (%"struct.Halide::Runtime::Internal::work_queue_t", %"struct.Halide::Runtime::Internal::work_queue_t"* @_ZN6Halide7Runtime8Internal10work_queueE, i64 0, i32 4), align 8, !tbaa !47
  %13 = sext i32 %12 to i64
  %14 = icmp slt i64 %11, %13
  br i1 %14, label %7, label %.loopexit

; <label>:15:                                     ; preds = %.loopexit, %0
  ret void
}

declare i8* @memset(i8*, i32, i64) local_unnamed_addr #4

; Function Attrs: nounwind
define weak void @halide_join_thread(%struct.halide_thread*) local_unnamed_addr #0 {
  %2 = alloca i8*, align 8
  %3 = bitcast %struct.halide_thread* %0 to %"struct.Halide::Runtime::Internal::spawned_thread"*
  %4 = bitcast i8** %2 to i8*
  call void @llvm.lifetime.start.p0i8(i64 8, i8* nonnull %4) #11
  store i8* null, i8** %2, align 8, !tbaa !7
  %5 = getelementptr inbounds %"struct.Halide::Runtime::Internal::spawned_thread", %"struct.Halide::Runtime::Internal::spawned_thread"* %3, i64 0, i32 2
  %6 = load i64, i64* %5, align 8, !tbaa !96
  %7 = call i32 @pthread_join(i64 %6, i8** nonnull %2) #13
  %8 = bitcast %struct.halide_thread* %0 to i8*
  call void @free(i8* %8) #13
  call void @llvm.lifetime.end.p0i8(i64 8, i8* nonnull %4) #11
  ret void
}

declare i32 @pthread_join(i64, i8**) local_unnamed_addr #4

; Function Attrs: norecurse nounwind
define linkonce zeroext i1 @_ZN6Halide7Runtime8Internal15Synchronization24parking_control_validateEPvRNS2_15validate_actionE(i8*, %"struct.Halide::Runtime::Internal::Synchronization::validate_action"* dereferenceable(16)) #2 {
  ret i1 true
}

; Function Attrs: norecurse nounwind
define linkonce i64 @_ZN6Halide7Runtime8Internal15Synchronization29signal_parking_control_unparkEPvib(i8*, i32, i1 zeroext) #2 {
  br i1 %2, label %8, label %4

; <label>:4:                                      ; preds = %3
  %5 = getelementptr inbounds i8, i8* %0, i64 32
  %6 = bitcast i8* %5 to i64**
  %7 = load i64*, i64** %6, align 8, !tbaa !100
  store atomic i64 0, i64* %7 monotonic, align 8
  br label %8

; <label>:8:                                      ; preds = %4, %3
  ret i64 0
}

; Function Attrs: nounwind
define weak void @halide_cond_signal(%struct.halide_mutex*) local_unnamed_addr #0 {
  %2 = alloca %"struct.Halide::Runtime::Internal::Synchronization::wait_parking_control", align 8
  %3 = getelementptr inbounds %struct.halide_mutex, %struct.halide_mutex* %0, i64 0, i32 0, i64 0
  %4 = load atomic i64, i64* %3 monotonic, align 8
  %5 = icmp eq i64 %4, 0
  br i1 %5, label %18, label %6

; <label>:6:                                      ; preds = %1
  %7 = bitcast %"struct.Halide::Runtime::Internal::Synchronization::wait_parking_control"* %2 to i8*
  call void @llvm.lifetime.start.p0i8(i64 48, i8* nonnull %7) #11
  %8 = inttoptr i64 %4 to %"class.Halide::Runtime::Internal::Synchronization::word_lock"*
  %9 = getelementptr inbounds %"struct.Halide::Runtime::Internal::Synchronization::wait_parking_control", %"struct.Halide::Runtime::Internal::Synchronization::wait_parking_control"* %2, i64 0, i32 0, i32 0
  store i1 (i8*, %"struct.Halide::Runtime::Internal::Synchronization::validate_action"*)* @_ZN6Halide7Runtime8Internal15Synchronization24parking_control_validateEPvRNS2_15validate_actionE, i1 (i8*, %"struct.Halide::Runtime::Internal::Synchronization::validate_action"*)** %9, align 8, !tbaa !40
  %10 = getelementptr inbounds %"struct.Halide::Runtime::Internal::Synchronization::wait_parking_control", %"struct.Halide::Runtime::Internal::Synchronization::wait_parking_control"* %2, i64 0, i32 0, i32 1
  store void (i8*)* @_ZN6Halide7Runtime8Internal15Synchronization28parking_control_before_sleepEPv, void (i8*)** %10, align 8, !tbaa !35
  %11 = getelementptr inbounds %"struct.Halide::Runtime::Internal::Synchronization::wait_parking_control", %"struct.Halide::Runtime::Internal::Synchronization::wait_parking_control"* %2, i64 0, i32 0, i32 2
  %12 = getelementptr inbounds %"struct.Halide::Runtime::Internal::Synchronization::wait_parking_control", %"struct.Halide::Runtime::Internal::Synchronization::wait_parking_control"* %2, i64 0, i32 0, i32 3
  store void (i8*, %"struct.Halide::Runtime::Internal::Synchronization::validate_action"*, i1, i1)* @_ZN6Halide7Runtime8Internal15Synchronization32parking_control_requeue_callbackEPvRKNS2_15validate_actionEbb, void (i8*, %"struct.Halide::Runtime::Internal::Synchronization::validate_action"*, i1, i1)** %12, align 8, !tbaa !37
  %13 = getelementptr inbounds %"struct.Halide::Runtime::Internal::Synchronization::wait_parking_control", %"struct.Halide::Runtime::Internal::Synchronization::wait_parking_control"* %2, i64 0, i32 1
  store i64* %3, i64** %13, align 8, !tbaa !100
  %14 = getelementptr inbounds %"struct.Halide::Runtime::Internal::Synchronization::wait_parking_control", %"struct.Halide::Runtime::Internal::Synchronization::wait_parking_control"* %2, i64 0, i32 2
  store %"class.Halide::Runtime::Internal::Synchronization::word_lock"* %8, %"class.Halide::Runtime::Internal::Synchronization::word_lock"** %14, align 8, !tbaa !102
  store i64 (i8*, i32, i1)* @_ZN6Halide7Runtime8Internal15Synchronization29signal_parking_control_unparkEPvib, i64 (i8*, i32, i1)** %11, align 8, !tbaa !41
  %15 = ptrtoint %struct.halide_mutex* %0 to i64
  %16 = getelementptr inbounds %"struct.Halide::Runtime::Internal::Synchronization::wait_parking_control", %"struct.Halide::Runtime::Internal::Synchronization::wait_parking_control"* %2, i64 0, i32 0
  %17 = call i64 @_ZN6Halide7Runtime8Internal15Synchronization10unpark_oneEyRNS2_15parking_controlE(i64 %15, %"struct.Halide::Runtime::Internal::Synchronization::parking_control"* nonnull dereferenceable(32) %16) #13
  call void @llvm.lifetime.end.p0i8(i64 48, i8* nonnull %7) #11
  br label %18

; <label>:18:                                     ; preds = %6, %1
  ret void
}

; Function Attrs: nounwind
define weak i32 @halide_set_num_threads(i32) local_unnamed_addr #0 {
  %2 = icmp slt i32 %0, 0
  br i1 %2, label %3, label %4

; <label>:3:                                      ; preds = %1
  tail call void @halide_error(i8* null, i8* getelementptr inbounds ([38 x i8], [38 x i8]* @.str.4, i64 0, i64 0)) #13
  tail call void @halide_mutex_lock(%struct.halide_mutex* getelementptr inbounds (%"struct.Halide::Runtime::Internal::work_queue_t", %"struct.Halide::Runtime::Internal::work_queue_t"* @_ZN6Halide7Runtime8Internal10work_queueE, i64 0, i32 0)) #14
  br label %8

; <label>:4:                                      ; preds = %1
  tail call void @halide_mutex_lock(%struct.halide_mutex* getelementptr inbounds (%"struct.Halide::Runtime::Internal::work_queue_t", %"struct.Halide::Runtime::Internal::work_queue_t"* @_ZN6Halide7Runtime8Internal10work_queueE, i64 0, i32 0)) #14
  %5 = icmp eq i32 %0, 0
  br i1 %5, label %6, label %8

; <label>:6:                                      ; preds = %4
  %7 = tail call i32 @_ZN6Halide7Runtime8Internal27default_desired_num_threadsEv() #14
  br label %8

; <label>:8:                                      ; preds = %6, %4, %3
  %9 = phi i32 [ %7, %6 ], [ %0, %4 ], [ %0, %3 ]
  %10 = load i32, i32* getelementptr inbounds (%"struct.Halide::Runtime::Internal::work_queue_t", %"struct.Halide::Runtime::Internal::work_queue_t"* @_ZN6Halide7Runtime8Internal10work_queueE, i64 0, i32 1), align 8, !tbaa !46
  %11 = tail call i32 @_ZN6Halide7Runtime8Internal17clamp_num_threadsEi(i32 %9) #14
  store i32 %11, i32* getelementptr inbounds (%"struct.Halide::Runtime::Internal::work_queue_t", %"struct.Halide::Runtime::Internal::work_queue_t"* @_ZN6Halide7Runtime8Internal10work_queueE, i64 0, i32 1), align 8, !tbaa !46
  tail call void @halide_mutex_unlock(%struct.halide_mutex* getelementptr inbounds (%"struct.Halide::Runtime::Internal::work_queue_t", %"struct.Halide::Runtime::Internal::work_queue_t"* @_ZN6Halide7Runtime8Internal10work_queueE, i64 0, i32 0)) #14
  ret i32 %10
}

; Function Attrs: norecurse nounwind
define weak i32 (i8*, i32 (i8*, i32, i8*)*, i32, i8*)* @halide_set_custom_do_task(i32 (i8*, i32 (i8*, i32, i8*)*, i32, i8*)*) local_unnamed_addr #2 {
  %2 = load i32 (i8*, i32 (i8*, i32, i8*)*, i32, i8*)*, i32 (i8*, i32 (i8*, i32, i8*)*, i32, i8*)** @_ZN6Halide7Runtime8Internal14custom_do_taskE, align 8, !tbaa !7
  store i32 (i8*, i32 (i8*, i32, i8*)*, i32, i8*)* %0, i32 (i8*, i32 (i8*, i32, i8*)*, i32, i8*)** @_ZN6Halide7Runtime8Internal14custom_do_taskE, align 8, !tbaa !7
  ret i32 (i8*, i32 (i8*, i32, i8*)*, i32, i8*)* %2
}

; Function Attrs: norecurse nounwind
define weak i32 (i8*, i32 (i8*, i32, i32, i8*, i8*)*, i32, i32, i8*, i8*)* @halide_set_custom_do_loop_task(i32 (i8*, i32 (i8*, i32, i32, i8*, i8*)*, i32, i32, i8*, i8*)*) local_unnamed_addr #2 {
  %2 = load i32 (i8*, i32 (i8*, i32, i32, i8*, i8*)*, i32, i32, i8*, i8*)*, i32 (i8*, i32 (i8*, i32, i32, i8*, i8*)*, i32, i32, i8*, i8*)** @_ZN6Halide7Runtime8Internal19custom_do_loop_taskE, align 8, !tbaa !7
  store i32 (i8*, i32 (i8*, i32, i32, i8*, i8*)*, i32, i32, i8*, i8*)* %0, i32 (i8*, i32 (i8*, i32, i32, i8*, i8*)*, i32, i32, i8*, i8*)** @_ZN6Halide7Runtime8Internal19custom_do_loop_taskE, align 8, !tbaa !7
  ret i32 (i8*, i32 (i8*, i32, i32, i8*, i8*)*, i32, i32, i8*, i8*)* %2
}

; Function Attrs: norecurse nounwind
define weak i32 (i8*, i32 (i8*, i32, i8*)*, i32, i32, i8*)* @halide_set_custom_do_par_for(i32 (i8*, i32 (i8*, i32, i8*)*, i32, i32, i8*)*) local_unnamed_addr #2 {
  %2 = load i32 (i8*, i32 (i8*, i32, i8*)*, i32, i32, i8*)*, i32 (i8*, i32 (i8*, i32, i8*)*, i32, i32, i8*)** @_ZN6Halide7Runtime8Internal17custom_do_par_forE, align 8, !tbaa !7
  store i32 (i8*, i32 (i8*, i32, i8*)*, i32, i32, i8*)* %0, i32 (i8*, i32 (i8*, i32, i8*)*, i32, i32, i8*)** @_ZN6Halide7Runtime8Internal17custom_do_par_forE, align 8, !tbaa !7
  ret i32 (i8*, i32 (i8*, i32, i8*)*, i32, i32, i8*)* %2
}

; Function Attrs: norecurse nounwind
define weak void @halide_set_custom_parallel_runtime(i32 (i8*, i32 (i8*, i32, i8*)*, i32, i32, i8*)*, i32 (i8*, i32 (i8*, i32, i8*)*, i32, i8*)*, i32 (i8*, i32 (i8*, i32, i32, i8*, i8*)*, i32, i32, i8*, i8*)*, i32 (i8*, i32, %struct.halide_parallel_task_t*, i8*)*, i32 (%struct.halide_semaphore_t*, i32)*, i1 (%struct.halide_semaphore_t*, i32)*, i32 (%struct.halide_semaphore_t*, i32)*) local_unnamed_addr #2 {
  store i32 (i8*, i32 (i8*, i32, i8*)*, i32, i32, i8*)* %0, i32 (i8*, i32 (i8*, i32, i8*)*, i32, i32, i8*)** @_ZN6Halide7Runtime8Internal17custom_do_par_forE, align 8, !tbaa !7
  store i32 (i8*, i32 (i8*, i32, i8*)*, i32, i8*)* %1, i32 (i8*, i32 (i8*, i32, i8*)*, i32, i8*)** @_ZN6Halide7Runtime8Internal14custom_do_taskE, align 8, !tbaa !7
  store i32 (i8*, i32 (i8*, i32, i32, i8*, i8*)*, i32, i32, i8*, i8*)* %2, i32 (i8*, i32 (i8*, i32, i32, i8*, i8*)*, i32, i32, i8*, i8*)** @_ZN6Halide7Runtime8Internal19custom_do_loop_taskE, align 8, !tbaa !7
  store i32 (i8*, i32, %struct.halide_parallel_task_t*, i8*)* %3, i32 (i8*, i32, %struct.halide_parallel_task_t*, i8*)** @_ZN6Halide7Runtime8Internal24custom_do_parallel_tasksE, align 8, !tbaa !7
  store i32 (%struct.halide_semaphore_t*, i32)* %4, i32 (%struct.halide_semaphore_t*, i32)** @_ZN6Halide7Runtime8Internal21custom_semaphore_initE, align 8, !tbaa !7
  store i1 (%struct.halide_semaphore_t*, i32)* %5, i1 (%struct.halide_semaphore_t*, i32)** @_ZN6Halide7Runtime8Internal28custom_semaphore_try_acquireE, align 8, !tbaa !7
  store i32 (%struct.halide_semaphore_t*, i32)* %6, i32 (%struct.halide_semaphore_t*, i32)** @_ZN6Halide7Runtime8Internal24custom_semaphore_releaseE, align 8, !tbaa !7
  ret void
}

; Function Attrs: nounwind
define weak i32 @halide_do_par_for(i8*, i32 (i8*, i32, i8*)*, i32, i32, i8* noalias) local_unnamed_addr #0 {
  %6 = load i32 (i8*, i32 (i8*, i32, i8*)*, i32, i32, i8*)*, i32 (i8*, i32 (i8*, i32, i8*)*, i32, i32, i8*)** @_ZN6Halide7Runtime8Internal17custom_do_par_forE, align 8, !tbaa !7
  %7 = tail call i32 %6(i8* %0, i32 (i8*, i32, i8*)* %1, i32 %2, i32 %3, i8* %4) #13
  ret i32 %7
}

; Function Attrs: nounwind
define weak i32 @halide_do_parallel_tasks(i8*, i32, %struct.halide_parallel_task_t*, i8*) local_unnamed_addr #0 {
  %5 = load i32 (i8*, i32, %struct.halide_parallel_task_t*, i8*)*, i32 (i8*, i32, %struct.halide_parallel_task_t*, i8*)** @_ZN6Halide7Runtime8Internal24custom_do_parallel_tasksE, align 8, !tbaa !7
  %6 = tail call i32 %5(i8* %0, i32 %1, %struct.halide_parallel_task_t* %2, i8* %3) #13
  ret i32 %6
}

; Function Attrs: nounwind
define weak i32 @halide_semaphore_init(%struct.halide_semaphore_t*, i32) local_unnamed_addr #0 {
  %3 = load i32 (%struct.halide_semaphore_t*, i32)*, i32 (%struct.halide_semaphore_t*, i32)** @_ZN6Halide7Runtime8Internal21custom_semaphore_initE, align 8, !tbaa !7
  %4 = tail call i32 %3(%struct.halide_semaphore_t* %0, i32 %1) #13
  ret i32 %4
}

; Function Attrs: nounwind
define weak i32 @halide_semaphore_release(%struct.halide_semaphore_t*, i32) local_unnamed_addr #0 {
  %3 = load i32 (%struct.halide_semaphore_t*, i32)*, i32 (%struct.halide_semaphore_t*, i32)** @_ZN6Halide7Runtime8Internal24custom_semaphore_releaseE, align 8, !tbaa !7
  %4 = tail call i32 %3(%struct.halide_semaphore_t* %0, i32 %1) #13
  ret i32 %4
}

; Function Attrs: nounwind
define weak zeroext i1 @halide_semaphore_try_acquire(%struct.halide_semaphore_t*, i32) local_unnamed_addr #0 {
  %3 = load i1 (%struct.halide_semaphore_t*, i32)*, i1 (%struct.halide_semaphore_t*, i32)** @_ZN6Halide7Runtime8Internal28custom_semaphore_try_acquireE, align 8, !tbaa !7
  %4 = tail call zeroext i1 %3(%struct.halide_semaphore_t* %0, i32 %1) #13
  ret i1 %4
}

; Function Attrs: nounwind
define weak i8* @halide_default_get_symbol(i8*) #0 {
  %2 = tail call i8* @dlsym(i8* null, i8* %0) #13
  ret i8* %2
}

declare i8* @dlsym(i8*, i8*) local_unnamed_addr #4

; Function Attrs: nounwind
define weak i8* @halide_default_load_library(i8*) #0 {
  %2 = tail call i8* @dlopen(i8* %0, i32 1) #13
  %3 = icmp eq i8* %2, null
  br i1 %3, label %4, label %6

; <label>:4:                                      ; preds = %1
  %5 = tail call i8* @dlerror() #13
  br label %6

; <label>:6:                                      ; preds = %4, %1
  ret i8* %2
}

declare i8* @dlopen(i8*, i32) local_unnamed_addr #4

declare i8* @dlerror() local_unnamed_addr #4

; Function Attrs: nounwind
define weak i8* @halide_default_get_library_symbol(i8*, i8*) #0 {
  %3 = tail call i8* @dlsym(i8* %0, i8* %1) #13
  ret i8* %3
}

; Function Attrs: norecurse nounwind
define weak i8* (i8*)* @halide_set_custom_get_symbol(i8* (i8*)*) local_unnamed_addr #2 {
  %2 = load i8* (i8*)*, i8* (i8*)** @_ZN6Halide7Runtime8Internal17custom_get_symbolE, align 8, !tbaa !7
  store i8* (i8*)* %0, i8* (i8*)** @_ZN6Halide7Runtime8Internal17custom_get_symbolE, align 8, !tbaa !7
  ret i8* (i8*)* %2
}

; Function Attrs: norecurse nounwind
define weak i8* (i8*)* @halide_set_custom_load_library(i8* (i8*)*) local_unnamed_addr #2 {
  %2 = load i8* (i8*)*, i8* (i8*)** @_ZN6Halide7Runtime8Internal19custom_load_libraryE, align 8, !tbaa !7
  store i8* (i8*)* %0, i8* (i8*)** @_ZN6Halide7Runtime8Internal19custom_load_libraryE, align 8, !tbaa !7
