; ModuleID = 'matmul_simple'
source_filename = "/home/sb54/halide-12/src/runtime/fake_thread_pool.cpp"
target datalayout = "e-m:e-p270:32:32-p271:32:32-p272:64:64-i64:64-f80:128-n8:16:32:64-S128"
target triple = "x86_64--"

%struct.halide_parallel_task_t = type { i32 (i8*, i32, i32, i8*, i8*)*, i8*, i8*, %struct.halide_semaphore_acquire_t*, i32, i32, i32, i32, i8, [7 x i8] }
%struct.halide_semaphore_acquire_t = type { %struct.halide_semaphore_t*, i32, [4 x i8] }
%struct.halide_semaphore_t = type { [2 x i64] }
%struct.halide_mutex_array = type { %struct.halide_mutex* }
%struct.halide_mutex = type { [1 x i64] }
%"class.Halide::Runtime::Internal::TraceBuffer" = type { %"class.Halide::Runtime::Internal::SharedExclusiveSpinLock", i32, i32, [1048576 x i8] }
%"class.Halide::Runtime::Internal::SharedExclusiveSpinLock" = type { i32 }
%struct.halide_trace_event_t = type <{ i8*, i8*, i32*, i8*, %struct.halide_type_t, i32, i32, i32, i32, [4 x i8] }>
%struct.halide_type_t = type { i8, i8, i16 }
%"struct.Halide::Runtime::Internal::CacheEntry" = type { %"struct.Halide::Runtime::Internal::CacheEntry"*, %"struct.Halide::Runtime::Internal::CacheEntry"*, %"struct.Halide::Runtime::Internal::CacheEntry"*, i8*, i64, i8*, i32, i32, i32, i32, %struct.halide_dimension_t*, %struct.halide_buffer_t*, i64, i8, [7 x i8] }
%struct.halide_dimension_t = type { i32, i32, i32, i32 }
%struct.halide_buffer_t = type { i64, %struct.halide_device_interface_t*, i8*, i64, %struct.halide_type_t, i32, %struct.halide_dimension_t*, i8* }
%struct.halide_device_interface_t = type { i32 (i8*, %struct.halide_buffer_t*, %struct.halide_device_interface_t*)*, i32 (i8*, %struct.halide_buffer_t*)*, i32 (i8*, %struct.halide_buffer_t*)*, void (i8*, %struct.halide_device_interface_t*)*, i32 (i8*, %struct.halide_buffer_t*)*, i32 (i8*, %struct.halide_buffer_t*, %struct.halide_device_interface_t*)*, i32 (i8*, %struct.halide_buffer_t*, %struct.halide_device_interface_t*)*, i32 (i8*, %struct.halide_buffer_t*)*, i32 (i8*, %struct.halide_buffer_t*, %struct.halide_device_interface_t*, %struct.halide_buffer_t*)*, i32 (i8*, %struct.halide_buffer_t*, %struct.halide_buffer_t*)*, i32 (i8*, %struct.halide_buffer_t*, i32, i32, %struct.halide_buffer_t*)*, i32 (i8*, %struct.halide_buffer_t*)*, i32 (i8*, %struct.halide_buffer_t*, i64, %struct.halide_device_interface_t*)*, i32 (i8*, %struct.halide_buffer_t*)*, i32 (i8*, i32*, i32*)*, %struct.halide_device_interface_impl_t* }
%struct.halide_device_interface_impl_t = type { void ()*, void ()*, i32 (i8*, %struct.halide_buffer_t*)*, i32 (i8*, %struct.halide_buffer_t*)*, i32 (i8*, %struct.halide_buffer_t*)*, i32 (i8*)*, i32 (i8*, %struct.halide_buffer_t*)*, i32 (i8*, %struct.halide_buffer_t*)*, i32 (i8*, %struct.halide_buffer_t*)*, i32 (i8*, %struct.halide_buffer_t*)*, i32 (i8*, %struct.halide_buffer_t*, %struct.halide_device_interface_t*, %struct.halide_buffer_t*)*, i32 (i8*, %struct.halide_buffer_t*, %struct.halide_buffer_t*)*, i32 (i8*, %struct.halide_buffer_t*, i32, i32, %struct.halide_buffer_t*)*, i32 (i8*, %struct.halide_buffer_t*)*, i32 (i8*, %struct.halide_buffer_t*, i64)*, i32 (i8*, %struct.halide_buffer_t*)* }
%struct.halide_device_allocation_pool = type { i32 (i8*)*, %struct.halide_device_allocation_pool* }
%struct.halide_filter_argument_t = type { i8*, i32, i32, %struct.halide_type_t, %struct.halide_scalar_value_t*, %struct.halide_scalar_value_t*, %struct.halide_scalar_value_t*, %struct.halide_scalar_value_t*, i64** }
%struct.halide_scalar_value_t = type { %union.anon.28 }
%union.anon.28 = type { double }
%struct.halide_filter_metadata_t = type { i32, i32, %struct.halide_filter_argument_t*, i8*, i8* }
%struct.halide_thread = type opaque
%"class.Halide::Runtime::Internal::(anonymous namespace)::Printer.0" = type <{ i8*, i8*, i8*, i8*, i8, [1 x i8], [6 x i8] }>
%"struct.Halide::Runtime::Internal::halide_tiff_header" = type <{ i16, i16, i32, i16, [15 x %"struct.Halide::Runtime::Internal::tiff_tag"], i32, [2 x i32], [2 x i32] }>
%"struct.Halide::Runtime::Internal::tiff_tag" = type { i16, i16, i32, %"class.Halide::Runtime::Internal::SharedExclusiveSpinLock" }
%"struct.Halide::Runtime::Internal::CacheBlockHeader" = type { %"struct.Halide::Runtime::Internal::CacheEntry"*, i32, [4 x i8] }
%"struct.Halide::Runtime::Internal::device_copy" = type { i64, i64, i64, [16 x i64], [16 x i64], [16 x i64], i64 }
%"struct.Halide::Runtime::Internal::CpuFeatures" = type { [2 x i64], [2 x i64] }

@.str = private unnamed_addr constant [67 x i8] c"halide_default_do_parallel_tasks not implemented on this platform.\00", align 1
@.str.1 = private unnamed_addr constant [64 x i8] c"halide_default_semaphore_init not implemented on this platform.\00", align 1
@.str.2 = private unnamed_addr constant [67 x i8] c"halide_default_semaphore_release not implemented on this platform.\00", align 1
@.str.3 = private unnamed_addr constant [71 x i8] c"halide_default_semaphore_try_acquire not implemented on this platform.\00", align 1
@_ZN6Halide7Runtime8Internal14custom_do_taskE = linkonce local_unnamed_addr global i32 (i8*, i32 (i8*, i32, i8*)*, i32, i8*)* @halide_default_do_task, align 8
@_ZN6Halide7Runtime8Internal19custom_do_loop_taskE = linkonce local_unnamed_addr global i32 (i8*, i32 (i8*, i32, i32, i8*, i8*)*, i32, i32, i8*, i8*)* @halide_default_do_loop_task, align 8
@_ZN6Halide7Runtime8Internal17custom_do_par_forE = linkonce local_unnamed_addr global i32 (i8*, i32 (i8*, i32, i8*)*, i32, i32, i8*)* @halide_default_do_par_for, align 8
@_ZN6Halide7Runtime8Internal24custom_do_parallel_tasksE = linkonce local_unnamed_addr global i32 (i8*, i32, %struct.halide_parallel_task_t*, i8*)* @halide_default_do_parallel_tasks, align 8
@_ZN6Halide7Runtime8Internal21custom_semaphore_initE = linkonce local_unnamed_addr global i32 (%struct.halide_semaphore_t*, i32)* @halide_default_semaphore_init, align 8
@_ZN6Halide7Runtime8Internal28custom_semaphore_try_acquireE = linkonce local_unnamed_addr global i1 (%struct.halide_semaphore_t*, i32)* @halide_default_semaphore_try_acquire, align 8
@_ZN6Halide7Runtime8Internal24custom_semaphore_releaseE = linkonce local_unnamed_addr global i32 (%struct.halide_semaphore_t*, i32)* @halide_default_semaphore_release, align 8
@_ZN6Halide7Runtime8Internal23halide_fake_mutex_arrayE = linkonce global %struct.halide_mutex_array zeroinitializer, align 8
@.str.4 = private unnamed_addr constant [54 x i8] c"halide_spawn_thread not implemented on this platform.\00", align 1
@.str.5 = private unnamed_addr constant [53 x i8] c"halide_join_thread not implemented on this platform.\00", align 1
@.str.6 = private unnamed_addr constant [69 x i8] c"halide_set_num_threads: only supports a value of 1 on this platform.\00", align 1
@_ZN6Halide7Runtime8Internal17halide_gpu_deviceE = linkonce local_unnamed_addr global i32 0, align 4
@_ZN6Halide7Runtime8Internal22halide_gpu_device_lockE = linkonce global i8 0, align 1
@_ZN6Halide7Runtime8Internal29halide_gpu_device_initializedE = linkonce local_unnamed_addr global i8 0, align 1
@.str.7 = private unnamed_addr constant [14 x i8] c"HL_GPU_DEVICE\00", align 1
@_ZN6Halide7Runtime8Internal19halide_trace_bufferE = linkonce local_unnamed_addr global %"class.Halide::Runtime::Internal::TraceBuffer"* null, align 8
@_ZN6Halide7Runtime8Internal17halide_trace_fileE = linkonce local_unnamed_addr global i32 -1, align 4
@_ZN6Halide7Runtime8Internal22halide_trace_file_lockE = linkonce global i8 0, align 1
@_ZN6Halide7Runtime8Internal29halide_trace_file_initializedE = linkonce local_unnamed_addr global i8 0, align 1
@_ZN6Halide7Runtime8Internal35halide_trace_file_internally_openedE = linkonce local_unnamed_addr global i8* null, align 8
@_ZN6Halide7Runtime8Internal19halide_custom_traceE = linkonce local_unnamed_addr global i32 (i8*, %struct.halide_trace_event_t*)* @halide_default_trace, align 8
@_ZZ20halide_default_traceE3ids = internal global i32 1, align 4
@.str.32 = private unnamed_addr constant [108 x i8] c"/home/sb54/halide-12/src/runtime/tracing.cpp:115 Assert failed: success && \22Could not write to trace file\22\0A\00", align 1
@.str.31 = private unnamed_addr constant [84 x i8] c"/home/sb54/halide-12/src/runtime/tracing.cpp:87 Assert failed: size <= buffer_size\0A\00", align 1
@.str.8 = private unnamed_addr constant [2 x i8] c"\0A\00", align 1
@.str.1.9 = private unnamed_addr constant [1 x i8] zeroinitializer, align 1
@.str.2.10 = private unnamed_addr constant [104 x i8] c"/home/sb54/halide-12/src/runtime/tracing.cpp:219 Assert failed: print_bits <= 64 && \22Tracing bad type\22\0A\00", align 1
@__const.halide_default_trace.event_types = private unnamed_addr constant [11 x i8*] [i8* getelementptr inbounds ([5 x i8], [5 x i8]* @.str.3.11, i32 0, i32 0), i8* getelementptr inbounds ([6 x i8], [6 x i8]* @.str.4.12, i32 0, i32 0), i8* getelementptr inbounds ([18 x i8], [18 x i8]* @.str.5.13, i32 0, i32 0), i8* getelementptr inbounds ([16 x i8], [16 x i8]* @.str.6.14, i32 0, i32 0), i8* getelementptr inbounds ([8 x i8], [8 x i8]* @.str.7.15, i32 0, i32 0), i8* getelementptr inbounds ([12 x i8], [12 x i8]* @.str.8.16, i32 0, i32 0), i8* getelementptr inbounds ([8 x i8], [8 x i8]* @.str.9, i32 0, i32 0), i8* getelementptr inbounds ([12 x i8], [12 x i8]* @.str.10, i32 0, i32 0), i8* getelementptr inbounds ([15 x i8], [15 x i8]* @.str.11, i32 0, i32 0), i8* getelementptr inbounds ([13 x i8], [13 x i8]* @.str.12, i32 0, i32 0), i8* getelementptr inbounds ([4 x i8], [4 x i8]* @.str.13, i32 0, i32 0)], align 8
@.str.14 = private unnamed_addr constant [2 x i8] c" \00", align 1
@.str.16 = private unnamed_addr constant [2 x i8] c"(\00", align 1
@.str.17 = private unnamed_addr constant [2 x i8] c"<\00", align 1
@.str.20 = private unnamed_addr constant [3 x i8] c">)\00", align 1
@.str.18 = private unnamed_addr constant [5 x i8] c">, <\00", align 1
@.str.22 = private unnamed_addr constant [5 x i8] c" = <\00", align 1
@.str.23 = private unnamed_addr constant [4 x i8] c" = \00", align 1
@.str.24 = private unnamed_addr constant [106 x i8] c"/home/sb54/halide-12/src/runtime/tracing.cpp:288 Assert failed: print_bits >= 16 && \22Tracing a bad type\22\0A\00", align 1
@.str.25 = private unnamed_addr constant [2 x i8] c">\00", align 1
@.str.26 = private unnamed_addr constant [9 x i8] c" tag = \22\00", align 1
@.str.27 = private unnamed_addr constant [2 x i8] c"\22\00", align 1
@.str.3.11 = private unnamed_addr constant [5 x i8] c"Load\00", align 1
@.str.4.12 = private unnamed_addr constant [6 x i8] c"Store\00", align 1
@.str.5.13 = private unnamed_addr constant [18 x i8] c"Begin realization\00", align 1
@.str.6.14 = private unnamed_addr constant [16 x i8] c"End realization\00", align 1
@.str.7.15 = private unnamed_addr constant [8 x i8] c"Produce\00", align 1
@.str.8.16 = private unnamed_addr constant [12 x i8] c"End produce\00", align 1
@.str.9 = private unnamed_addr constant [8 x i8] c"Consume\00", align 1
@.str.10 = private unnamed_addr constant [12 x i8] c"End consume\00", align 1
@.str.11 = private unnamed_addr constant [15 x i8] c"Begin pipeline\00", align 1
@.str.12 = private unnamed_addr constant [13 x i8] c"End pipeline\00", align 1
@.str.13 = private unnamed_addr constant [4 x i8] c"Tag\00", align 1
@.str.28 = private unnamed_addr constant [14 x i8] c"HL_TRACE_FILE\00", align 1
@.str.29 = private unnamed_addr constant [3 x i8] c"ab\00", align 1
@.str.30 = private unnamed_addr constant [103 x i8] c"/home/sb54/halide-12/src/runtime/tracing.cpp:353 Assert failed: file && \22Failed to open trace file\\n\22\0A\00", align 1
@llvm.global_dtors = appending global [2 x { i32, void ()*, i8* }] [{ i32, void ()*, i8* } { i32 65535, void ()* @halide_trace_cleanup, i8* null }, { i32, void ()*, i8* } { i32 65535, void ()* @halide_cache_cleanup, i8* null }]
@_ZN6Halide7Runtime8Internal30pixel_type_to_tiff_sample_typeE = linkonce local_unnamed_addr global [10 x i16] [i16 3, i16 3, i16 1, i16 2, i16 1, i16 2, i16 1, i16 2, i16 1, i16 2], align 2
@_ZN6Halide7Runtime8Internal31pixel_type_to_matlab_class_codeE = linkonce local_unnamed_addr global [10 x i8] c"\07\06\09\08\0B\0A\0D\0C\0F\0E", align 1
@_ZN6Halide7Runtime8Internal30pixel_type_to_matlab_type_codeE = linkonce local_unnamed_addr global [10 x i8] c"\07\09\02\01\04\03\06\05\0D\0C", align 1
@.str.35 = private unnamed_addr constant [51 x i8] c"Bounds query buffer passed to halide_debug_to_file\00", align 1
@.str.1.36 = private unnamed_addr constant [59 x i8] c"Can't debug_to_file a Func with more than four dimensions\0A\00", align 1
@.str.2.37 = private unnamed_addr constant [3 x i8] c"wb\00", align 1
@.str.3.38 = private unnamed_addr constant [6 x i8] c".tiff\00", align 1
@.str.4.39 = private unnamed_addr constant [5 x i8] c".tif\00", align 1
@.str.5.40 = private unnamed_addr constant [5 x i8] c".mat\00", align 1
@__const.halide_debug_to_file.header = private unnamed_addr constant [129 x i8] c"MATLAB 5.0 MAT-file, produced by Halide                                                                                     \00\01IM\00", align 1
@.str.6.41 = private unnamed_addr constant [53 x i8] c"Can't debug_to_file to a .mat file greater than 4GB\0A\00", align 1
@_ZN6Halide7Runtime8Internal16memoization_lockE = linkonce global %struct.halide_mutex zeroinitializer, align 8
@_ZN6Halide7Runtime8Internal13cache_entriesE = linkonce local_unnamed_addr global [256 x %"struct.Halide::Runtime::Internal::CacheEntry"*] zeroinitializer, align 8
@_ZN6Halide7Runtime8Internal18most_recently_usedE = linkonce local_unnamed_addr global %"struct.Halide::Runtime::Internal::CacheEntry"* null, align 8
@_ZN6Halide7Runtime8Internal19least_recently_usedE = linkonce local_unnamed_addr global %"struct.Halide::Runtime::Internal::CacheEntry"* null, align 8
@_ZN6Halide7Runtime8Internal14max_cache_sizeE = linkonce local_unnamed_addr global i64 1048576, align 8
@_ZN6Halide7Runtime8Internal18current_cache_sizeE = linkonce local_unnamed_addr global i64 0, align 8
@.str.1.43 = private unnamed_addr constant [90 x i8] c"/home/sb54/halide-12/src/runtime/cache.cpp:281 Assert failed: prev_hash_entry != nullptr\0A\00", align 1
@.str.2.44 = private unnamed_addr constant [93 x i8] c"/home/sb54/halide-12/src/runtime/cache.cpp:370 Assert failed: entry->more_recent != nullptr\0A\00", align 1
@.str.3.45 = private unnamed_addr constant [92 x i8] c"/home/sb54/halide-12/src/runtime/cache.cpp:374 Assert failed: least_recently_used == entry\0A\00", align 1
@.str.4.46 = private unnamed_addr constant [93 x i8] c"/home/sb54/halide-12/src/runtime/cache.cpp:377 Assert failed: entry->more_recent != nullptr\0A\00", align 1
@.str.8.47 = private unnamed_addr constant [86 x i8] c"/home/sb54/halide-12/src/runtime/cache.cpp:469 Assert failed: no_host_pointers_equal\0A\00", align 1
@.str.11.48 = private unnamed_addr constant [87 x i8] c"/home/sb54/halide-12/src/runtime/cache.cpp:547 Assert failed: entry->in_use_count > 0\0A\00", align 1
@.str.57 = private unnamed_addr constant [5 x i8] c"-nan\00", align 1
@.str.1.58 = private unnamed_addr constant [4 x i8] c"nan\00", align 1
@.str.2.59 = private unnamed_addr constant [5 x i8] c"-inf\00", align 1
@.str.3.60 = private unnamed_addr constant [4 x i8] c"inf\00", align 1
@.str.4.61 = private unnamed_addr constant [14 x i8] c"-0.000000e+00\00", align 1
@.str.5.62 = private unnamed_addr constant [13 x i8] c"0.000000e+00\00", align 1
@.str.6.63 = private unnamed_addr constant [10 x i8] c"-0.000000\00", align 1
@.str.7.64 = private unnamed_addr constant [9 x i8] c"0.000000\00", align 1
@.str.8.65 = private unnamed_addr constant [2 x i8] c"-\00", align 1
@.str.10.67 = private unnamed_addr constant [3 x i8] c"e+\00", align 1
@.str.11.68 = private unnamed_addr constant [3 x i8] c"e-\00", align 1
@.str.12.71 = private unnamed_addr constant [17 x i8] c"0123456789abcdef\00", align 1
@.str.17.72 = private unnamed_addr constant [14 x i8] c"bad_type_code\00", align 1
@.str.16.73 = private unnamed_addr constant [7 x i8] c"handle\00", align 1
@.str.15.74 = private unnamed_addr constant [6 x i8] c"float\00", align 1
@.str.14.75 = private unnamed_addr constant [5 x i8] c"uint\00", align 1
@.str.13.76 = private unnamed_addr constant [4 x i8] c"int\00", align 1
@.str.18.77 = private unnamed_addr constant [2 x i8] c"x\00", align 1
@.str.19.78 = private unnamed_addr constant [8 x i8] c"nullptr\00", align 1
@.str.20.79 = private unnamed_addr constant [8 x i8] c"buffer(\00", align 1
@.str.22.82 = private unnamed_addr constant [4 x i8] c", {\00", align 1
@.str.23.83 = private unnamed_addr constant [2 x i8] c"}\00", align 1
@_ZN6Halide7Runtime8Internal36halide_reuse_device_allocations_flagE = linkonce local_unnamed_addr global i8 1, align 1
@_ZN6Halide7Runtime8Internal21allocation_pools_lockE = linkonce global %struct.halide_mutex zeroinitializer, align 8
@_ZN6Halide7Runtime8Internal23device_allocation_poolsE = linkonce local_unnamed_addr global %struct.halide_device_allocation_pool* null, align 8
@_ZN6Halide7Runtime8Internal17device_copy_mutexE = linkonce global %struct.halide_mutex zeroinitializer, align 8
@.str.6.88 = private unnamed_addr constant [20 x i8] c"halide_copy_to_host\00", align 1
@.str.7.89 = private unnamed_addr constant [22 x i8] c"halide_copy_to_device\00", align 1
@.str.9.90 = private unnamed_addr constant [61 x i8] c"halide_copy_to_device does not support switching interfaces\0A\00", align 1
@.str.17.91 = private unnamed_addr constant [21 x i8] c"halide_device_malloc\00", align 1
@.str.20.92 = private unnamed_addr constant [59 x i8] c"halide_device_malloc doesn't support switching interfaces\0A\00", align 1
@.str.16.93 = private unnamed_addr constant [19 x i8] c"halide_device_sync\00", align 1
@.str.21.96 = private unnamed_addr constant [19 x i8] c"halide_device_free\00", align 1
@.str.22.97 = private unnamed_addr constant [91 x i8] c"/home/sb54/halide-12/src/runtime/device_interface.cpp:252 Assert failed: buf->device == 0\0A\00", align 1
@.str.23.98 = private unnamed_addr constant [30 x i8] c"halide_device_and_host_malloc\00", align 1
@.str.25.99 = private unnamed_addr constant [68 x i8] c"halide_device_and_host_malloc doesn't support switching interfaces\0A\00", align 1
@.str.26.100 = private unnamed_addr constant [42 x i8] c"allocating host and device memory failed\0A\00", align 1
@.str.27.101 = private unnamed_addr constant [28 x i8] c"halide_device_and_host_free\00", align 1
@.str.28.102 = private unnamed_addr constant [91 x i8] c"/home/sb54/halide-12/src/runtime/device_interface.cpp:317 Assert failed: buf->device == 0\0A\00", align 1
@.str.29.103 = private unnamed_addr constant [38 x i8] c"halide_default_device_and_host_malloc\00", align 1
@.str.30.104 = private unnamed_addr constant [36 x i8] c"halide_default_device_and_host_free\00", align 1
@.str.31.105 = private unnamed_addr constant [26 x i8] c"halide_device_wrap_native\00", align 1
@.str.32.106 = private unnamed_addr constant [64 x i8] c"halide_device_wrap_native doesn't support switching interfaces\0A\00", align 1
@.str.33.107 = private unnamed_addr constant [28 x i8] c"halide_device_detach_native\00", align 1
@.str.34.108 = private unnamed_addr constant [91 x i8] c"/home/sb54/halide-12/src/runtime/device_interface.cpp:403 Assert failed: buf->device == 0\0A\00", align 1
@.str.35.109 = private unnamed_addr constant [34 x i8] c"halide_default_device_wrap_native\00", align 1
@.str.36 = private unnamed_addr constant [36 x i8] c"halide_default_device_detach_native\00", align 1
@.str.42 = private unnamed_addr constant [64 x i8] c"halide_buffer_copy does not support switching device interfaces\00", align 1
@.str.58 = private unnamed_addr constant [44 x i8] c"device_interface does not support cropping\0A\00", align 1
@.str.59 = private unnamed_addr constant [43 x i8] c"device_interface does not support slicing\0A\00", align 1
@.str.60 = private unnamed_addr constant [52 x i8] c"destination buffer already has a device allocation\0A\00", align 1
@.str.61 = private unnamed_addr constant [48 x i8] c"src and dst must have identical dimensionality\0A\00", align 1
@.str.64 = private unnamed_addr constant [52 x i8] c"dst must have exactly one fewer dimension than src\0A\00", align 1
@.str.112 = private unnamed_addr constant [41 x i8] c"Bounds inference call to external stage \00", align 1
@.str.74 = private unnamed_addr constant [10 x i8] c"<nullptr>\00", align 1
@.str.1.113 = private unnamed_addr constant [27 x i8] c" returned non-zero value: \00", align 1
@.str.73 = private unnamed_addr constant [35 x i8] c"Printer buffer allocation failed.\0A\00", align 1
@.str.2.114 = private unnamed_addr constant [24 x i8] c"Call to external stage \00", align 1
@.str.3.115 = private unnamed_addr constant [18 x i8] c"Bounds given for \00", align 1
@.str.4.116 = private unnamed_addr constant [5 x i8] c" in \00", align 1
@.str.5.117 = private unnamed_addr constant [8 x i8] c" (from \00", align 1
@.str.6.118 = private unnamed_addr constant [5 x i8] c" to \00", align 1
@.str.7.119 = private unnamed_addr constant [38 x i8] c") do not cover required region (from \00", align 1
@.str.8.120 = private unnamed_addr constant [2 x i8] c")\00", align 1
@.str.9.121 = private unnamed_addr constant [11 x i8] c" has type \00", align 1
@.str.10.122 = private unnamed_addr constant [38 x i8] c" but type of the buffer passed in is \00", align 1
@.str.11.123 = private unnamed_addr constant [31 x i8] c" requires a buffer of exactly \00", align 1
@.str.12.124 = private unnamed_addr constant [43 x i8] c" dimensions, but the buffer passed in has \00", align 1
@.str.13.125 = private unnamed_addr constant [12 x i8] c" dimensions\00", align 1
@.str.14.126 = private unnamed_addr constant [17 x i8] c" is accessed at \00", align 1
@.str.15.127 = private unnamed_addr constant [28 x i8] c", which is before the min (\00", align 1
@.str.16.128 = private unnamed_addr constant [16 x i8] c") in dimension \00", align 1
@.str.17.129 = private unnamed_addr constant [28 x i8] c", which is beyond the max (\00", align 1
@.str.18.130 = private unnamed_addr constant [29 x i8] c"Total allocation for buffer \00", align 1
@.str.19.131 = private unnamed_addr constant [5 x i8] c" is \00", align 1
@.str.20.132 = private unnamed_addr constant [37 x i8] c", which exceeds the maximum size of \00", align 1
@.str.21.133 = private unnamed_addr constant [24 x i8] c"The extents for buffer \00", align 1
@.str.22.134 = private unnamed_addr constant [12 x i8] c" dimension \00", align 1
@.str.23.135 = private unnamed_addr constant [15 x i8] c" is negative (\00", align 1
@.str.24.136 = private unnamed_addr constant [31 x i8] c"Product of extents for buffer \00", align 1
@.str.25.137 = private unnamed_addr constant [29 x i8] c"Applying the constraints on \00", align 1
@.str.26.138 = private unnamed_addr constant [54 x i8] c" to the required region made it smaller in dimension \00", align 1
@.str.27.139 = private unnamed_addr constant [3 x i8] c". \00", align 1
@.str.28.140 = private unnamed_addr constant [16 x i8] c"Required size: \00", align 1
@.str.29.141 = private unnamed_addr constant [19 x i8] c"Constrained size: \00", align 1
@.str.30.142 = private unnamed_addr constant [2 x i8] c".\00", align 1
@.str.31.143 = private unnamed_addr constant [22 x i8] c"Constraint violated: \00", align 1
@.str.32.144 = private unnamed_addr constant [3 x i8] c" (\00", align 1
@.str.33.145 = private unnamed_addr constant [6 x i8] c") == \00", align 1
@.str.34.146 = private unnamed_addr constant [11 x i8] c"Parameter \00", align 1
@.str.35.147 = private unnamed_addr constant [23 x i8] c" but must be at least \00", align 1
@.str.36.148 = private unnamed_addr constant [22 x i8] c" but must be at most \00", align 1
@.str.37 = private unnamed_addr constant [47 x i8] c"Out of memory (halide_malloc returned nullptr)\00", align 1
@.str.38 = private unnamed_addr constant [17 x i8] c"Buffer argument \00", align 1
@.str.39 = private unnamed_addr constant [12 x i8] c" is nullptr\00", align 1
@.str.40 = private unnamed_addr constant [25 x i8] c"Failed to dump function \00", align 1
@.str.41 = private unnamed_addr constant [10 x i8] c" to file \00", align 1
@.str.42.149 = private unnamed_addr constant [13 x i8] c" with error \00", align 1
@.str.43 = private unnamed_addr constant [21 x i8] c"The host pointer of \00", align 1
@.str.44 = private unnamed_addr constant [22 x i8] c" is not aligned to a \00", align 1
@.str.45 = private unnamed_addr constant [17 x i8] c" bytes boundary.\00", align 1
@.str.46 = private unnamed_addr constant [12 x i8] c"The buffer \00", align 1
@.str.47 = private unnamed_addr constant [53 x i8] c" is dirty on device, but this pipeline was compiled \00", align 1
@.str.48 = private unnamed_addr constant [43 x i8] c"with no support for device to host copies.\00", align 1
@.str.49 = private unnamed_addr constant [55 x i8] c" is null, but the pipeline will access it on the host.\00", align 1
@.str.50 = private unnamed_addr constant [30 x i8] c"The folded storage dimension \00", align 1
@.str.51 = private unnamed_addr constant [5 x i8] c" of \00", align 1
@.str.52 = private unnamed_addr constant [36 x i8] c" was accessed out of order by loop \00", align 1
@.str.53 = private unnamed_addr constant [23 x i8] c"Cannot fold dimension \00", align 1
@.str.54 = private unnamed_addr constant [36 x i8] c" because an extern stage accesses [\00", align 1
@.str.55 = private unnamed_addr constant [3 x i8] c", \00", align 1
@.str.56 = private unnamed_addr constant [3 x i8] c"],\00", align 1
@.str.57.150 = private unnamed_addr constant [47 x i8] c" which is outside the range currently valid: [\00", align 1
@.str.58.151 = private unnamed_addr constant [3 x i8] c"].\00", align 1
@.str.59.152 = private unnamed_addr constant [47 x i8] c" which wraps around the boundary of the fold, \00", align 1
@.str.60.153 = private unnamed_addr constant [30 x i8] c"which occurs at multiples of \00", align 1
@.str.61.154 = private unnamed_addr constant [18 x i8] c"The fold factor (\00", align 1
@.str.62 = private unnamed_addr constant [16 x i8] c") of dimension \00", align 1
@.str.63 = private unnamed_addr constant [61 x i8] c" is too small to store the required region accessed by loop \00", align 1
@.str.64.155 = private unnamed_addr constant [3 x i8] c").\00", align 1
@.str.65 = private unnamed_addr constant [22 x i8] c"Requirement Failed: (\00", align 1
@.str.66 = private unnamed_addr constant [3 x i8] c") \00", align 1
@.str.67 = private unnamed_addr constant [59 x i8] c"A schedule specialized with specialize_fail() was chosen: \00", align 1
@.str.68 = private unnamed_addr constant [55 x i8] c"Buffer has a non-zero device but no device interface.\0A\00", align 1
@.str.69 = private unnamed_addr constant [57 x i8] c"Buffer has a non-null device_interface but device is 0.\0A\00", align 1
@.str.70 = private unnamed_addr constant [49 x i8] c"Buffer has both host and device dirty bits set.\0A\00", align 1
@.str.71 = private unnamed_addr constant [26 x i8] c"Buffer pointer passed to \00", align 1
@.str.72 = private unnamed_addr constant [11 x i8] c" is null.\0A\00", align 1
@_ZN6Halide7Runtime8Internal30custom_can_use_target_featuresE = linkonce local_unnamed_addr global i32 (i32, i64*)* @halide_default_can_use_target_features, align 8
@_ZN6Halide7Runtime8Internal36halide_cpu_features_initialized_lockE = linkonce global %struct.halide_mutex zeroinitializer, align 8
@_ZN6Halide7Runtime8Internal31halide_cpu_features_initializedE = linkonce local_unnamed_addr global i8 0, align 1
@_ZN6Halide7Runtime8Internal27halide_cpu_features_storageE = linkonce global [4 x i64] zeroinitializer, align 8
@.str.168 = private unnamed_addr constant [81 x i8] c"Internal error: wrong structure size passed to halide_can_use_target_features()\0A\00", align 1
@0 = private constant [4 x i64*] zeroinitializer
@str = private constant [2 x i8] c"A\00", align 32
@1 = private constant [4 x i64*] zeroinitializer
@str.172 = private constant [2 x i8] c"B\00", align 32
@2 = private constant [4 x i64*] zeroinitializer
@str.173 = private constant [4 x i8] c"res\00", align 32
@3 = private constant [3 x %struct.halide_filter_argument_t] [%struct.halide_filter_argument_t { i8* getelementptr inbounds ([2 x i8], [2 x i8]* @str, i32 0, i32 0), i32 1, i32 2, %struct.halide_type_t { i8 0, i8 32, i16 1 }, %struct.halide_scalar_value_t* null, %struct.halide_scalar_value_t* null, %struct.halide_scalar_value_t* null, %struct.halide_scalar_value_t* null, i64** getelementptr inbounds ([4 x i64*], [4 x i64*]* @0, i32 0, i32 0) }, %struct.halide_filter_argument_t { i8* getelementptr inbounds ([2 x i8], [2 x i8]* @str.172, i32 0, i32 0), i32 1, i32 2, %struct.halide_type_t { i8 0, i8 32, i16 1 }, %struct.halide_scalar_value_t* null, %struct.halide_scalar_value_t* null, %struct.halide_scalar_value_t* null, %struct.halide_scalar_value_t* null, i64** getelementptr inbounds ([4 x i64*], [4 x i64*]* @1, i32 0, i32 0) }, %struct.halide_filter_argument_t { i8* getelementptr inbounds ([4 x i8], [4 x i8]* @str.173, i32 0, i32 0), i32 2, i32 2, %struct.halide_type_t { i8 0, i8 32, i16 1 }, %struct.halide_scalar_value_t* null, %struct.halide_scalar_value_t* null, %struct.halide_scalar_value_t* null, %struct.halide_scalar_value_t* null, i64** getelementptr inbounds ([4 x i64*], [4 x i64*]* @2, i32 0, i32 0) }]
@str.174 = private constant [85 x i8] c"x86-64-noos-avx-avx2-avx512-avx512_skylake-f16c-fma-no_asserts-no_bounds_query-sse41\00", align 64
@str.175 = private constant [14 x i8] c"matmul_simple\00", align 32
@matmul_simple_metadata_storage = private constant %struct.halide_filter_metadata_t { i32 1, i32 3, %struct.halide_filter_argument_t* getelementptr inbounds ([3 x %struct.halide_filter_argument_t], [3 x %struct.halide_filter_argument_t]* @3, i32 0, i32 0), i8* getelementptr inbounds ([85 x i8], [85 x i8]* @str.174, i32 0, i32 0), i8* getelementptr inbounds ([14 x i8], [14 x i8]* @str.175, i32 0, i32 0) }
@switch.table.halide_type_to_string = private unnamed_addr constant [4 x i8*] [i8* getelementptr inbounds ([4 x i8], [4 x i8]* @.str.13.76, i64 0, i64 0), i8* getelementptr inbounds ([5 x i8], [5 x i8]* @.str.14.75, i64 0, i64 0), i8* getelementptr inbounds ([6 x i8], [6 x i8]* @.str.15.74, i64 0, i64 0), i8* getelementptr inbounds ([7 x i8], [7 x i8]* @.str.16.73, i64 0, i64 0)], align 8

; Function Attrs: nounwind mustprogress
define weak i32 @halide_default_do_task(i8* %0, i32 (i8*, i32, i8*)* %1, i32 %2, i8* %3) #0 {
  %5 = tail call i32 %1(i8* %0, i32 %2, i8* %3) #16
  ret i32 %5
}

; Function Attrs: nounwind mustprogress
define weak i32 @halide_default_do_loop_task(i8* %0, i32 (i8*, i32, i32, i8*, i8*)* %1, i32 %2, i32 %3, i8* %4, i8* %5) #0 {
  %7 = tail call i32 %1(i8* %0, i32 %2, i32 %3, i8* %4, i8* %5) #16
  ret i32 %7
}

; Function Attrs: nounwind mustprogress
define weak i32 @halide_default_do_par_for(i8* %0, i32 (i8*, i32, i8*)* %1, i32 %2, i32 %3, i8* %4) #0 {
  %6 = add nsw i32 %3, %2
  %7 = icmp sgt i32 %3, 0
  br i1 %7, label %.preheader, label %.loopexit

8:                                                ; preds = %.preheader
  %9 = icmp slt i32 %13, %6
  br i1 %9, label %.preheader, label %.loopexit, !llvm.loop !10

.preheader:                                       ; preds = %5, %8
  %10 = phi i32 [ %13, %8 ], [ %2, %5 ]
  %11 = tail call i32 @halide_do_task(i8* %0, i32 (i8*, i32, i8*)* %1, i32 %10, i8* %4) #17
  %12 = icmp eq i32 %11, 0
  %13 = add nsw i32 %10, 1
  br i1 %12, label %8, label %.loopexit

.loopexit:                                        ; preds = %.preheader, %8, %5
  %14 = phi i32 [ 0, %5 ], [ %11, %.preheader ], [ 0, %8 ]
  ret i32 %14
}

; Function Attrs: nounwind mustprogress
define weak i32 @halide_do_task(i8* %0, i32 (i8*, i32, i8*)* %1, i32 %2, i8* %3) local_unnamed_addr #0 {
  %5 = load i32 (i8*, i32 (i8*, i32, i8*)*, i32, i8*)*, i32 (i8*, i32 (i8*, i32, i8*)*, i32, i8*)** @_ZN6Halide7Runtime8Internal14custom_do_taskE, align 8, !tbaa !12
  %6 = tail call i32 %5(i8* %0, i32 (i8*, i32, i8*)* %1, i32 %2, i8* %3) #16
  ret i32 %6
}

; Function Attrs: nounwind mustprogress
define weak i32 @halide_default_do_parallel_tasks(i8* %0, i32 %1, %struct.halide_parallel_task_t* %2, i8* %3) #0 {
  tail call void @halide_error(i8* null, i8* getelementptr inbounds ([67 x i8], [67 x i8]* @.str, i64 0, i64 0)) #16
  ret i32 -1
}

declare void @halide_error(i8*, i8*) local_unnamed_addr #1

; Function Attrs: nounwind mustprogress
define weak i32 @halide_default_semaphore_init(%struct.halide_semaphore_t* %0, i32 %1) #0 {
  tail call void @halide_error(i8* null, i8* getelementptr inbounds ([64 x i8], [64 x i8]* @.str.1, i64 0, i64 0)) #16
  ret i32 0
}

; Function Attrs: nounwind mustprogress
define weak i32 @halide_default_semaphore_release(%struct.halide_semaphore_t* %0, i32 %1) #0 {
  tail call void @halide_error(i8* null, i8* getelementptr inbounds ([67 x i8], [67 x i8]* @.str.2, i64 0, i64 0)) #16
  ret i32 0
}

; Function Attrs: nounwind mustprogress
define weak zeroext i1 @halide_default_semaphore_try_acquire(%struct.halide_semaphore_t* %0, i32 %1) #0 {
  tail call void @halide_error(i8* null, i8* getelementptr inbounds ([71 x i8], [71 x i8]* @.str.3, i64 0, i64 0)) #16
  ret i1 false
}

; Function Attrs: nounwind mustprogress
define weak %struct.halide_thread* @halide_spawn_thread(void (i8*)* %0, i8* %1) local_unnamed_addr #0 {
  tail call void @halide_error(i8* null, i8* getelementptr inbounds ([54 x i8], [54 x i8]* @.str.4, i64 0, i64 0)) #16
  ret %struct.halide_thread* null
}

; Function Attrs: nounwind mustprogress
define weak void @halide_join_thread(%struct.halide_thread* %0) local_unnamed_addr #0 {
  tail call void @halide_error(i8* null, i8* getelementptr inbounds ([53 x i8], [53 x i8]* @.str.5, i64 0, i64 0)) #16
  ret void
}

; Function Attrs: nounwind willreturn mustprogress
define weak void @halide_mutex_lock(%struct.halide_mutex* %0) local_unnamed_addr #2 {
  ret void
}

; Function Attrs: nounwind willreturn mustprogress
define weak void @halide_mutex_unlock(%struct.halide_mutex* %0) local_unnamed_addr #2 {
  ret void
}

; Function Attrs: nounwind willreturn mustprogress
define weak %struct.halide_mutex_array* @halide_mutex_array_create(i32 %0) local_unnamed_addr #2 {
  ret %struct.halide_mutex_array* @_ZN6Halide7Runtime8Internal23halide_fake_mutex_arrayE
}

; Function Attrs: nounwind willreturn mustprogress
define weak void @halide_mutex_array_destroy(i8* %0, i8* %1) local_unnamed_addr #2 {
  ret void
}

; Function Attrs: nounwind willreturn mustprogress
define weak i32 @halide_mutex_array_lock(%struct.halide_mutex_array* %0, i32 %1) local_unnamed_addr #2 {
  ret i32 0
}

; Function Attrs: nounwind willreturn mustprogress
define weak i32 @halide_mutex_array_unlock(%struct.halide_mutex_array* %0, i32 %1) local_unnamed_addr #2 {
  ret i32 0
}

; Function Attrs: nounwind willreturn mustprogress
define weak void @halide_shutdown_thread_pool() local_unnamed_addr #2 {
  ret void
}

; Function Attrs: nounwind mustprogress
define weak i32 @halide_set_num_threads(i32 %0) local_unnamed_addr #0 {
  %2 = icmp eq i32 %0, 1
  br i1 %2, label %4, label %3

3:                                                ; preds = %1
  tail call void @halide_error(i8* null, i8* getelementptr inbounds ([69 x i8], [69 x i8]* @.str.6, i64 0, i64 0)) #16
  br label %4

4:                                                ; preds = %3, %1
  ret i32 1
}

; Function Attrs: nounwind willreturn mustprogress
define weak i32 (i8*, i32 (i8*, i32, i8*)*, i32, i8*)* @halide_set_custom_do_task(i32 (i8*, i32 (i8*, i32, i8*)*, i32, i8*)* %0) local_unnamed_addr #2 {
  %2 = load i32 (i8*, i32 (i8*, i32, i8*)*, i32, i8*)*, i32 (i8*, i32 (i8*, i32, i8*)*, i32, i8*)** @_ZN6Halide7Runtime8Internal14custom_do_taskE, align 8, !tbaa !12
  store i32 (i8*, i32 (i8*, i32, i8*)*, i32, i8*)* %0, i32 (i8*, i32 (i8*, i32, i8*)*, i32, i8*)** @_ZN6Halide7Runtime8Internal14custom_do_taskE, align 8, !tbaa !12
  ret i32 (i8*, i32 (i8*, i32, i8*)*, i32, i8*)* %2
}

; Function Attrs: nounwind willreturn mustprogress
define weak i32 (i8*, i32 (i8*, i32, i8*)*, i32, i32, i8*)* @halide_set_custom_do_par_for(i32 (i8*, i32 (i8*, i32, i8*)*, i32, i32, i8*)* %0) local_unnamed_addr #2 {
  %2 = load i32 (i8*, i32 (i8*, i32, i8*)*, i32, i32, i8*)*, i32 (i8*, i32 (i8*, i32, i8*)*, i32, i32, i8*)** @_ZN6Halide7Runtime8Internal17custom_do_par_forE, align 8, !tbaa !12
  store i32 (i8*, i32 (i8*, i32, i8*)*, i32, i32, i8*)* %0, i32 (i8*, i32 (i8*, i32, i8*)*, i32, i32, i8*)** @_ZN6Halide7Runtime8Internal17custom_do_par_forE, align 8, !tbaa !12
  ret i32 (i8*, i32 (i8*, i32, i8*)*, i32, i32, i8*)* %2
}

; Function Attrs: nounwind mustprogress
define weak i32 @halide_do_par_for(i8* %0, i32 (i8*, i32, i8*)* %1, i32 %2, i32 %3, i8* %4) local_unnamed_addr #0 {
  %6 = load i32 (i8*, i32 (i8*, i32, i8*)*, i32, i32, i8*)*, i32 (i8*, i32 (i8*, i32, i8*)*, i32, i32, i8*)** @_ZN6Halide7Runtime8Internal17custom_do_par_forE, align 8, !tbaa !12
  %7 = tail call i32 %6(i8* %0, i32 (i8*, i32, i8*)* %1, i32 %2, i32 %3, i8* %4) #16
  ret i32 %7
}

; Function Attrs: nounwind mustprogress
define weak i32 @halide_do_loop_task(i8* %0, i32 (i8*, i32, i32, i8*, i8*)* %1, i32 %2, i32 %3, i8* %4, i8* %5) local_unnamed_addr #0 {
  %7 = load i32 (i8*, i32 (i8*, i32, i32, i8*, i8*)*, i32, i32, i8*, i8*)*, i32 (i8*, i32 (i8*, i32, i32, i8*, i8*)*, i32, i32, i8*, i8*)** @_ZN6Halide7Runtime8Internal19custom_do_loop_taskE, align 8, !tbaa !12
  %8 = tail call i32 %7(i8* %0, i32 (i8*, i32, i32, i8*, i8*)* %1, i32 %2, i32 %3, i8* %4, i8* %5) #16
  ret i32 %8
}

; Function Attrs: nounwind mustprogress
define weak i32 @halide_do_parallel_tasks(i8* %0, i32 %1, %struct.halide_parallel_task_t* %2, i8* %3) local_unnamed_addr #0 {
  %5 = load i32 (i8*, i32, %struct.halide_parallel_task_t*, i8*)*, i32 (i8*, i32, %struct.halide_parallel_task_t*, i8*)** @_ZN6Halide7Runtime8Internal24custom_do_parallel_tasksE, align 8, !tbaa !12
  %6 = tail call i32 %5(i8* %0, i32 %1, %struct.halide_parallel_task_t* %2, i8* %3) #16
  ret i32 %6
}

; Function Attrs: nounwind mustprogress
define weak i32 @halide_semaphore_init(%struct.halide_semaphore_t* %0, i32 %1) local_unnamed_addr #0 {
  %3 = load i32 (%struct.halide_semaphore_t*, i32)*, i32 (%struct.halide_semaphore_t*, i32)** @_ZN6Halide7Runtime8Internal21custom_semaphore_initE, align 8, !tbaa !12
  %4 = tail call i32 %3(%struct.halide_semaphore_t* %0, i32 %1) #16
  ret i32 %4
}

; Function Attrs: nounwind mustprogress
define weak i32 @halide_semaphore_release(%struct.halide_semaphore_t* %0, i32 %1) local_unnamed_addr #0 {
  %3 = load i32 (%struct.halide_semaphore_t*, i32)*, i32 (%struct.halide_semaphore_t*, i32)** @_ZN6Halide7Runtime8Internal24custom_semaphore_releaseE, align 8, !tbaa !12
  %4 = tail call i32 %3(%struct.halide_semaphore_t* %0, i32 %1) #16
  ret i32 %4
}

; Function Attrs: nounwind mustprogress
define weak zeroext i1 @halide_semaphore_try_acquire(%struct.halide_semaphore_t* %0, i32 %1) local_unnamed_addr #0 {
  %3 = load i1 (%struct.halide_semaphore_t*, i32)*, i1 (%struct.halide_semaphore_t*, i32)** @_ZN6Halide7Runtime8Internal28custom_semaphore_try_acquireE, align 8, !tbaa !12
  %4 = tail call zeroext i1 %3(%struct.halide_semaphore_t* %0, i32 %1) #16
  ret i1 %4
}

; Function Attrs: argmemonly nofree nosync nounwind willreturn
declare void @llvm.lifetime.start.p0i8(i64 immarg, i8* nocapture) #3

declare i8* @memcpy(i8*, i8*, i64) local_unnamed_addr #1

; Function Attrs: argmemonly nofree nosync nounwind willreturn
declare void @llvm.lifetime.end.p0i8(i64 immarg, i8* nocapture) #3

; Function Attrs: argmemonly nofree nosync nounwind willreturn
declare void @llvm.memcpy.p0i8.p0i8.i64(i8* noalias nocapture writeonly, i8* noalias nocapture readonly, i64, i1 immarg) #3

declare void @halide_free(i8*, i8*) local_unnamed_addr #1

declare i8* @halide_malloc(i8*, i64) local_unnamed_addr #1

; Function Attrs: nounwind willreturn mustprogress
define weak void @halide_set_gpu_device(i32 %0) local_unnamed_addr #2 {
  store i32 %0, i32* @_ZN6Halide7Runtime8Internal17halide_gpu_deviceE, align 4, !tbaa !16
  store i8 1, i8* @_ZN6Halide7Runtime8Internal29halide_gpu_device_initializedE, align 1, !tbaa !18
  ret void
}

; Function Attrs: nounwind
define weak i32 @halide_get_gpu_device(i8* %0) local_unnamed_addr #4 {
  br label %2

2:                                                ; preds = %2, %1
  %3 = atomicrmw volatile xchg i8* @_ZN6Halide7Runtime8Internal22halide_gpu_device_lockE, i8 1 acquire
  %4 = icmp eq i8 %3, 0
  br i1 %4, label %5, label %2, !llvm.loop !20

5:                                                ; preds = %2
  %6 = load i8, i8* @_ZN6Halide7Runtime8Internal29halide_gpu_device_initializedE, align 1, !tbaa !18, !range !21
  %7 = icmp eq i8 %6, 0
  br i1 %7, label %10, label %8

8:                                                ; preds = %5
  %9 = load i32, i32* @_ZN6Halide7Runtime8Internal17halide_gpu_deviceE, align 4, !tbaa !16
  br label %17

10:                                               ; preds = %5
  %11 = tail call i8* @getenv(i8* getelementptr inbounds ([14 x i8], [14 x i8]* @.str.7, i64 0, i64 0)) #16
  %12 = icmp eq i8* %11, null
  br i1 %12, label %15, label %13

13:                                               ; preds = %10
  %14 = tail call i32 @atoi(i8* nonnull %11) #16
  br label %15

15:                                               ; preds = %13, %10
  %16 = phi i32 [ %14, %13 ], [ -1, %10 ]
  store i32 %16, i32* @_ZN6Halide7Runtime8Internal17halide_gpu_deviceE, align 4, !tbaa !16
  store i8 1, i8* @_ZN6Halide7Runtime8Internal29halide_gpu_device_initializedE, align 1, !tbaa !18
  br label %17

17:                                               ; preds = %15, %8
  %18 = phi i32 [ %9, %8 ], [ %16, %15 ]
  store atomic volatile i8 0, i8* @_ZN6Halide7Runtime8Internal22halide_gpu_device_lockE release, align 1
  ret i32 %18
}

declare i8* @getenv(i8*) local_unnamed_addr #1

declare i32 @atoi(i8*) local_unnamed_addr #1

; Function Attrs: nounwind
define weak i32 @halide_default_trace(i8* %0, %struct.halide_trace_event_t* %1) #4 {
  %3 = alloca [4096 x i8], align 1
  %4 = alloca %"class.Halide::Runtime::Internal::(anonymous namespace)::Printer.0", align 8
  %5 = atomicrmw add i32* @_ZZ20halide_default_traceE3ids, i32 1 seq_cst
  %6 = tail call i32 @halide_get_trace_file(i8* %0) #17
  %7 = icmp sgt i32 %6, 0
  br i1 %7, label %8, label %239

8:                                                ; preds = %2
  %9 = getelementptr inbounds %struct.halide_trace_event_t, %struct.halide_trace_event_t* %1, i64 0, i32 4
  %10 = getelementptr inbounds %struct.halide_trace_event_t, %struct.halide_trace_event_t* %1, i64 0, i32 4, i32 2
  %11 = load i16, i16* %10, align 2, !tbaa !22
  %12 = zext i16 %11 to i32
  %13 = getelementptr inbounds %struct.halide_trace_event_t, %struct.halide_trace_event_t* %1, i64 0, i32 4, i32 1
  %14 = load i8, i8* %13, align 1, !tbaa !28
  %15 = zext i8 %14 to i32
  %16 = add nuw nsw i32 %15, 7
  %17 = lshr i32 %16, 3
  %18 = mul nuw nsw i32 %17, %12
  %19 = getelementptr inbounds %struct.halide_trace_event_t, %struct.halide_trace_event_t* %1, i64 0, i32 8
  %20 = load i32, i32* %19, align 8, !tbaa !29
  %21 = shl i32 %20, 2
  %22 = getelementptr inbounds %struct.halide_trace_event_t, %struct.halide_trace_event_t* %1, i64 0, i32 0
  %23 = load i8*, i8** %22, align 8, !tbaa !30
  %24 = tail call i64 @strlen(i8* %23) #16
  %25 = trunc i64 %24 to i32
  %26 = add i32 %25, 1
  %27 = getelementptr inbounds %struct.halide_trace_event_t, %struct.halide_trace_event_t* %1, i64 0, i32 3
  %28 = load i8*, i8** %27, align 8, !tbaa !31
  %29 = icmp eq i8* %28, null
  br i1 %29, label %34, label %30

30:                                               ; preds = %8
  %31 = tail call i64 @strlen(i8* nonnull %28) #16
  %32 = trunc i64 %31 to i32
  %33 = add i32 %32, 1
  br label %34

34:                                               ; preds = %30, %8
  %35 = phi i32 [ %33, %30 ], [ 1, %8 ]
  %36 = add i32 %21, 31
  %37 = add i32 %36, %18
  %38 = add i32 %37, %26
  %39 = add i32 %38, %35
  %40 = and i32 %39, -4
  %41 = load %"class.Halide::Runtime::Internal::TraceBuffer"*, %"class.Halide::Runtime::Internal::TraceBuffer"** @_ZN6Halide7Runtime8Internal19halide_trace_bufferE, align 8, !tbaa !12
  %42 = getelementptr inbounds %"class.Halide::Runtime::Internal::TraceBuffer", %"class.Halide::Runtime::Internal::TraceBuffer"* %41, i64 0, i32 0, i32 0
  %43 = icmp ult i32 %40, 1048577
  %44 = getelementptr inbounds %"class.Halide::Runtime::Internal::TraceBuffer", %"class.Halide::Runtime::Internal::TraceBuffer"* %41, i64 0, i32 1
  %45 = getelementptr inbounds %"class.Halide::Runtime::Internal::TraceBuffer", %"class.Halide::Runtime::Internal::TraceBuffer"* %41, i64 0, i32 2
  %46 = getelementptr inbounds %"class.Halide::Runtime::Internal::TraceBuffer", %"class.Halide::Runtime::Internal::TraceBuffer"* %41, i64 0, i32 3, i64 0
  br i1 %43, label %.preheader, label %.preheader23

.preheader:                                       ; preds = %34, %.preheader.backedge
  %47 = load volatile i32, i32* %42, align 4, !tbaa !32
  %48 = and i32 %47, 1073741823
  %49 = add nuw nsw i32 %48, 1
  %50 = cmpxchg i32* %42, i32 %48, i32 %49 seq_cst seq_cst
  %51 = extractvalue { i32, i1 } %50, 1
  br i1 %51, label %52, label %.preheader.backedge

52:                                               ; preds = %.preheader
  %53 = atomicrmw add i32* %44, i32 %40 seq_cst
  %54 = add i32 %53, %40
  %55 = icmp ugt i32 %54, 1048576
  br i1 %55, label %56, label %.loopexit

56:                                               ; preds = %52
  %57 = atomicrmw add i32* %45, i32 %40 seq_cst
  %58 = atomicrmw sub i32* %42, i32 1 seq_cst
  br label %59

59:                                               ; preds = %59, %56
  %60 = atomicrmw or i32* %42, i32 1073741824 seq_cst
  %61 = cmpxchg i32* %42, i32 1073741824, i32 -2147483648 seq_cst seq_cst
  %62 = extractvalue { i32, i1 } %61, 1
  br i1 %62, label %63, label %59

63:                                               ; preds = %59
  %64 = load i32, i32* %44, align 4, !tbaa !34
  %65 = icmp eq i32 %64, 0
  br i1 %65, label %75, label %66

66:                                               ; preds = %63
  %67 = load i32, i32* %45, align 4, !tbaa !36
  %68 = sub i32 %64, %67
  store i32 %68, i32* %44, align 4, !tbaa !34
  %69 = zext i32 %68 to i64
  %70 = tail call i64 @write(i32 %6, i8* nonnull %46, i64 %69) #16
  %71 = trunc i64 %70 to i32
  %72 = icmp eq i32 %68, %71
  store i32 0, i32* %44, align 4, !tbaa !34
  store i32 0, i32* %45, align 4, !tbaa !36
  %73 = atomicrmw and i32* %42, i32 2147483647 seq_cst
  br i1 %72, label %.preheader.backedge, label %74

74:                                               ; preds = %66
  tail call void @halide_print(i8* %0, i8* getelementptr inbounds ([108 x i8], [108 x i8]* @.str.32, i64 0, i64 0)) #16
  tail call void @abort() #16
  br label %.preheader.backedge

75:                                               ; preds = %63
  %76 = atomicrmw and i32* %42, i32 2147483647 seq_cst
  br label %.preheader.backedge

.preheader.backedge:                              ; preds = %75, %74, %66, %.preheader
  br label %.preheader, !llvm.loop !37

.preheader23:                                     ; preds = %34, %.preheader23.backedge
  %77 = load volatile i32, i32* %42, align 4, !tbaa !32
  %78 = and i32 %77, 1073741823
  %79 = add nuw nsw i32 %78, 1
  %80 = cmpxchg i32* %42, i32 %78, i32 %79 seq_cst seq_cst
  %81 = extractvalue { i32, i1 } %80, 1
  br i1 %81, label %82, label %.preheader23.backedge

82:                                               ; preds = %.preheader23
  tail call void @halide_print(i8* %0, i8* getelementptr inbounds ([84 x i8], [84 x i8]* @.str.31, i64 0, i64 0)) #16
  tail call void @abort() #16
  %83 = atomicrmw add i32* %44, i32 %40 seq_cst
  %84 = add i32 %83, %40
  %85 = icmp ugt i32 %84, 1048576
  br i1 %85, label %86, label %.loopexit

86:                                               ; preds = %82
  %87 = atomicrmw add i32* %45, i32 %40 seq_cst
  %88 = atomicrmw sub i32* %42, i32 1 seq_cst
  br label %89

89:                                               ; preds = %89, %86
  %90 = atomicrmw or i32* %42, i32 1073741824 seq_cst
  %91 = cmpxchg i32* %42, i32 1073741824, i32 -2147483648 seq_cst seq_cst
  %92 = extractvalue { i32, i1 } %91, 1
  br i1 %92, label %93, label %89

93:                                               ; preds = %89
  %94 = load i32, i32* %44, align 4, !tbaa !34
  %95 = icmp eq i32 %94, 0
  br i1 %95, label %105, label %96

96:                                               ; preds = %93
  %97 = load i32, i32* %45, align 4, !tbaa !36
  %98 = sub i32 %94, %97
  store i32 %98, i32* %44, align 4, !tbaa !34
  %99 = zext i32 %98 to i64
  %100 = tail call i64 @write(i32 %6, i8* nonnull %46, i64 %99) #16
  %101 = trunc i64 %100 to i32
  %102 = icmp eq i32 %98, %101
  store i32 0, i32* %44, align 4, !tbaa !34
  store i32 0, i32* %45, align 4, !tbaa !36
  %103 = atomicrmw and i32* %42, i32 2147483647 seq_cst
  br i1 %102, label %.preheader23.backedge, label %104

104:                                              ; preds = %96
  tail call void @halide_print(i8* %0, i8* getelementptr inbounds ([108 x i8], [108 x i8]* @.str.32, i64 0, i64 0)) #16
  tail call void @abort() #16
  br label %.preheader23.backedge

105:                                              ; preds = %93
  %106 = atomicrmw and i32* %42, i32 2147483647 seq_cst
  br label %.preheader23.backedge

.preheader23.backedge:                            ; preds = %105, %104, %96, %.preheader23
  br label %.preheader23, !llvm.loop !37

.loopexit:                                        ; preds = %82, %52
  %107 = phi i32 [ %53, %52 ], [ %83, %82 ]
  %108 = zext i32 %107 to i64
  %109 = getelementptr inbounds %"class.Halide::Runtime::Internal::TraceBuffer", %"class.Halide::Runtime::Internal::TraceBuffer"* %41, i64 0, i32 3, i64 %108
  %110 = icmp ugt i32 %40, 4096
  br i1 %110, label %111, label %129

111:                                              ; preds = %.loopexit
  %112 = tail call i8* @malloc(i64 1024) #16
  %113 = icmp eq i8* %112, null
  br i1 %113, label %114, label %118

114:                                              ; preds = %111
  %115 = zext i32 %40 to i64
  %116 = tail call i8* @halide_uint64_to_string(i8* null, i8* null, i64 %115, i32 1) #16
  %117 = tail call i8* @halide_string_to_string(i8* %116, i8* null, i8* getelementptr inbounds ([2 x i8], [2 x i8]* @.str.8, i64 0, i64 0)) #16
  tail call void @halide_error(i8* null, i8* getelementptr inbounds ([35 x i8], [35 x i8]* @.str.73, i64 0, i64 0)) #16
  br label %128

118:                                              ; preds = %111
  %119 = getelementptr inbounds i8, i8* %112, i64 1023
  store i8 0, i8* %119, align 1, !tbaa !38
  %120 = zext i32 %40 to i64
  %121 = tail call i8* @halide_uint64_to_string(i8* nonnull %112, i8* nonnull %119, i64 %120, i32 1) #16
  %122 = tail call i8* @halide_string_to_string(i8* %121, i8* nonnull %119, i8* getelementptr inbounds ([2 x i8], [2 x i8]* @.str.8, i64 0, i64 0)) #16
  %123 = ptrtoint i8* %122 to i64
  %124 = ptrtoint i8* %112 to i64
  %125 = sub i64 1, %124
  %126 = add i64 %125, %123
  %127 = tail call i32 @halide_msan_annotate_memory_is_initialized(i8* null, i8* nonnull %112, i64 %126) #16
  tail call void @halide_print(i8* null, i8* nonnull %112) #16
  br label %128

128:                                              ; preds = %118, %114
  tail call void @free(i8* %112) #16
  br label %129

129:                                              ; preds = %128, %.loopexit
  %130 = bitcast i8* %109 to i32*
  store i32 %40, i32* %130, align 4, !tbaa !39
  %131 = getelementptr inbounds i8, i8* %109, i64 4
  %132 = bitcast i8* %131 to i32*
  store i32 %5, i32* %132, align 4, !tbaa !41
  %133 = getelementptr inbounds i8, i8* %109, i64 8
  %134 = bitcast %struct.halide_type_t* %9 to i32*
  %135 = bitcast i8* %133 to i32*
  %136 = load i32, i32* %134, align 8
  store i32 %136, i32* %135, align 4
  %137 = getelementptr inbounds %struct.halide_trace_event_t, %struct.halide_trace_event_t* %1, i64 0, i32 5
  %138 = getelementptr inbounds i8, i8* %109, i64 12
  %139 = bitcast i32* %137 to <4 x i32>*
  %140 = load <4 x i32>, <4 x i32>* %139, align 4, !tbaa !38
  %141 = getelementptr inbounds i8, i8* %109, i64 24
  %142 = bitcast i8* %141 to i32*
  %143 = bitcast i8* %138 to <4 x i32>*
  store <4 x i32> %140, <4 x i32>* %143, align 4, !tbaa !38
  %144 = getelementptr inbounds %struct.halide_trace_event_t, %struct.halide_trace_event_t* %1, i64 0, i32 2
  %145 = load i32*, i32** %144, align 8, !tbaa !42
  %146 = icmp eq i32* %145, null
  br i1 %146, label %152, label %147

147:                                              ; preds = %129
  %148 = bitcast i32* %145 to i8*
  %149 = getelementptr inbounds i8, i8* %109, i64 28
  %150 = zext i32 %21 to i64
  %151 = tail call i8* @memcpy(i8* nonnull %149, i8* nonnull %148, i64 %150) #16
  br label %152

152:                                              ; preds = %147, %129
  %153 = getelementptr inbounds %struct.halide_trace_event_t, %struct.halide_trace_event_t* %1, i64 0, i32 1
  %154 = load i8*, i8** %153, align 8, !tbaa !43
  %155 = icmp eq i8* %154, null
  br i1 %155, label %._crit_edge43, label %156

156:                                              ; preds = %152
  %157 = getelementptr inbounds i8, i8* %109, i64 28
  %158 = bitcast i8* %157 to i32*
  %159 = load i32, i32* %142, align 4, !tbaa !44
  %160 = sext i32 %159 to i64
  %161 = getelementptr inbounds i32, i32* %158, i64 %160
  %162 = bitcast i32* %161 to i8*
  %163 = zext i32 %18 to i64
  %164 = tail call i8* @memcpy(i8* nonnull %162, i8* nonnull %154, i64 %163) #16
  br label %._crit_edge43

._crit_edge43:                                    ; preds = %152, %156
  %165 = getelementptr inbounds i8, i8* %109, i64 28
  %166 = bitcast i8* %165 to i32*
  %167 = load i32, i32* %142, align 4, !tbaa !44
  %168 = sext i32 %167 to i64
  %169 = getelementptr inbounds i32, i32* %166, i64 %168
  %170 = bitcast i32* %169 to i8*
  %171 = getelementptr inbounds i8, i8* %109, i64 10
  %172 = bitcast i8* %171 to i16*
  %173 = load i16, i16* %172, align 2, !tbaa !45
  %174 = zext i16 %173 to i32
  %175 = getelementptr inbounds i8, i8* %109, i64 9
  %176 = load i8, i8* %175, align 1, !tbaa !28
  %177 = zext i8 %176 to i32
  %178 = add nuw nsw i32 %177, 7
  %179 = lshr i32 %178, 3
  %180 = mul nuw nsw i32 %179, %174
  %181 = zext i32 %180 to i64
  %182 = getelementptr inbounds i8, i8* %170, i64 %181
  %183 = load i8*, i8** %22, align 8, !tbaa !30
  %184 = zext i32 %26 to i64
  %185 = tail call i8* @memcpy(i8* nonnull %182, i8* %183, i64 %184) #16
  %186 = load i32, i32* %142, align 4, !tbaa !44
  %187 = sext i32 %186 to i64
  %188 = getelementptr inbounds i32, i32* %166, i64 %187
  %189 = bitcast i32* %188 to i8*
  %190 = load i16, i16* %172, align 2, !tbaa !45
  %191 = zext i16 %190 to i32
  %192 = load i8, i8* %175, align 1, !tbaa !28
  %193 = zext i8 %192 to i32
  %194 = add nuw nsw i32 %193, 7
  %195 = lshr i32 %194, 3
  %196 = mul nuw nsw i32 %195, %191
  %197 = zext i32 %196 to i64
  %198 = getelementptr inbounds i8, i8* %189, i64 %197
  br label %199

199:                                              ; preds = %199, %._crit_edge43
  %200 = phi i8* [ %198, %._crit_edge43 ], [ %201, %199 ]
  %201 = getelementptr inbounds i8, i8* %200, i64 1
  %202 = load i8, i8* %200, align 1, !tbaa !38
  %203 = icmp eq i8 %202, 0
  br i1 %203, label %204, label %199, !llvm.loop !46

204:                                              ; preds = %199
  %205 = load i8*, i8** %27, align 8, !tbaa !31
  %206 = icmp eq i8* %205, null
  %207 = select i1 %206, i8* getelementptr inbounds ([1 x i8], [1 x i8]* @.str.1.9, i64 0, i64 0), i8* %205
  %208 = zext i32 %35 to i64
  %209 = tail call i8* @memcpy(i8* nonnull %201, i8* %207, i64 %208) #16
  %210 = load %"class.Halide::Runtime::Internal::TraceBuffer"*, %"class.Halide::Runtime::Internal::TraceBuffer"** @_ZN6Halide7Runtime8Internal19halide_trace_bufferE, align 8, !tbaa !12
  fence seq_cst
  %211 = getelementptr inbounds %"class.Halide::Runtime::Internal::TraceBuffer", %"class.Halide::Runtime::Internal::TraceBuffer"* %210, i64 0, i32 0, i32 0
  %212 = atomicrmw sub i32* %211, i32 1 seq_cst
  %213 = load i32, i32* %137, align 4, !tbaa !47
  %214 = icmp eq i32 %213, 9
  br i1 %214, label %215, label %603

215:                                              ; preds = %204
  %216 = load %"class.Halide::Runtime::Internal::TraceBuffer"*, %"class.Halide::Runtime::Internal::TraceBuffer"** @_ZN6Halide7Runtime8Internal19halide_trace_bufferE, align 8, !tbaa !12
  %217 = getelementptr inbounds %"class.Halide::Runtime::Internal::TraceBuffer", %"class.Halide::Runtime::Internal::TraceBuffer"* %216, i64 0, i32 0, i32 0
  br label %218

218:                                              ; preds = %218, %215
  %219 = atomicrmw or i32* %217, i32 1073741824 seq_cst
  %220 = cmpxchg i32* %217, i32 1073741824, i32 -2147483648 seq_cst seq_cst
  %221 = extractvalue { i32, i1 } %220, 1
  br i1 %221, label %222, label %218

222:                                              ; preds = %218
  %223 = getelementptr inbounds %"class.Halide::Runtime::Internal::TraceBuffer", %"class.Halide::Runtime::Internal::TraceBuffer"* %216, i64 0, i32 1
  %224 = load i32, i32* %223, align 4, !tbaa !34
  %225 = icmp eq i32 %224, 0
  br i1 %225, label %237, label %226

226:                                              ; preds = %222
  %227 = getelementptr inbounds %"class.Halide::Runtime::Internal::TraceBuffer", %"class.Halide::Runtime::Internal::TraceBuffer"* %216, i64 0, i32 2
  %228 = load i32, i32* %227, align 4, !tbaa !36
  %229 = sub i32 %224, %228
  store i32 %229, i32* %223, align 4, !tbaa !34
  %230 = getelementptr inbounds %"class.Halide::Runtime::Internal::TraceBuffer", %"class.Halide::Runtime::Internal::TraceBuffer"* %216, i64 0, i32 3, i64 0
  %231 = zext i32 %229 to i64
  %232 = tail call i64 @write(i32 %6, i8* nonnull %230, i64 %231) #16
  %233 = trunc i64 %232 to i32
  %234 = icmp eq i32 %229, %233
  store i32 0, i32* %223, align 4, !tbaa !34
  store i32 0, i32* %227, align 4, !tbaa !36
  %235 = atomicrmw and i32* %217, i32 2147483647 seq_cst
  br i1 %234, label %603, label %236

236:                                              ; preds = %226
  tail call void @halide_print(i8* %0, i8* getelementptr inbounds ([108 x i8], [108 x i8]* @.str.32, i64 0, i64 0)) #16
  tail call void @abort() #16
  br label %603

237:                                              ; preds = %222
  %238 = atomicrmw and i32* %217, i32 2147483647 seq_cst
  br label %603

239:                                              ; preds = %2
  %240 = getelementptr inbounds [4096 x i8], [4096 x i8]* %3, i64 0, i64 0
  call void @llvm.lifetime.start.p0i8(i64 4096, i8* nonnull %240) #18
  %241 = bitcast %"class.Halide::Runtime::Internal::(anonymous namespace)::Printer.0"* %4 to i8*
  call void @llvm.lifetime.start.p0i8(i64 40, i8* nonnull %241) #18
  %242 = getelementptr inbounds %"class.Halide::Runtime::Internal::(anonymous namespace)::Printer.0", %"class.Halide::Runtime::Internal::(anonymous namespace)::Printer.0"* %4, i64 0, i32 3
  store i8* %0, i8** %242, align 8, !tbaa !48
  %243 = getelementptr inbounds %"class.Halide::Runtime::Internal::(anonymous namespace)::Printer.0", %"class.Halide::Runtime::Internal::(anonymous namespace)::Printer.0"* %4, i64 0, i32 4
  store i8 0, i8* %243, align 8, !tbaa !50
  %244 = getelementptr inbounds %"class.Halide::Runtime::Internal::(anonymous namespace)::Printer.0", %"class.Halide::Runtime::Internal::(anonymous namespace)::Printer.0"* %4, i64 0, i32 0
  store i8* %240, i8** %244, align 8
  %245 = getelementptr inbounds %"class.Halide::Runtime::Internal::(anonymous namespace)::Printer.0", %"class.Halide::Runtime::Internal::(anonymous namespace)::Printer.0"* %4, i64 0, i32 1
  store i8* %240, i8** %245, align 8, !tbaa !51
  %246 = getelementptr inbounds [4096 x i8], [4096 x i8]* %3, i64 0, i64 4095
  %247 = getelementptr inbounds %"class.Halide::Runtime::Internal::(anonymous namespace)::Printer.0", %"class.Halide::Runtime::Internal::(anonymous namespace)::Printer.0"* %4, i64 0, i32 2
  store i8* %246, i8** %247, align 8, !tbaa !52
  store i8 0, i8* %246, align 1, !tbaa !38
  %248 = getelementptr inbounds %struct.halide_trace_event_t, %struct.halide_trace_event_t* %1, i64 0, i32 4, i32 1
  %249 = load i8, i8* %248, align 1, !tbaa !53
  %250 = zext i8 %249 to i32
  br label %251

251:                                              ; preds = %251, %239
  %252 = phi i32 [ 8, %239 ], [ %254, %251 ]
  %253 = icmp slt i32 %252, %250
  %254 = shl i32 %252, 1
  br i1 %253, label %251, label %255, !llvm.loop !54

255:                                              ; preds = %251
  %256 = icmp slt i32 %252, 65
  br i1 %256, label %260, label %257

257:                                              ; preds = %255
  call void @halide_print(i8* %0, i8* getelementptr inbounds ([104 x i8], [104 x i8]* @.str.2.10, i64 0, i64 0)) #16
  call void @abort() #16
  %258 = load i8*, i8** %245, align 8, !tbaa !51
  %259 = load i8*, i8** %247, align 8, !tbaa !52
  br label %260

260:                                              ; preds = %257, %255
  %261 = phi i8* [ %259, %257 ], [ %246, %255 ]
  %262 = phi i8* [ %258, %257 ], [ %240, %255 ]
  %263 = getelementptr inbounds %struct.halide_trace_event_t, %struct.halide_trace_event_t* %1, i64 0, i32 5
  %264 = load i32, i32* %263, align 4, !tbaa !47
  %265 = icmp slt i32 %264, 2
  %266 = zext i32 %264 to i64
  %267 = getelementptr inbounds [11 x i8*], [11 x i8*]* @__const.halide_default_trace.event_types, i64 0, i64 %266
  %268 = load i8*, i8** %267, align 8, !tbaa !12
  %269 = call i8* @halide_string_to_string(i8* %262, i8* %261, i8* nonnull %268) #16
  store i8* %269, i8** %245, align 8, !tbaa !51
  %270 = load i8*, i8** %247, align 8, !tbaa !52
  %271 = call i8* @halide_string_to_string(i8* %269, i8* %270, i8* nonnull getelementptr inbounds ([2 x i8], [2 x i8]* @.str.14, i64 0, i64 0)) #16
  store i8* %271, i8** %245, align 8, !tbaa !51
  %272 = getelementptr inbounds %struct.halide_trace_event_t, %struct.halide_trace_event_t* %1, i64 0, i32 0
  %273 = load i8*, i8** %272, align 8, !tbaa !30
  %274 = icmp eq i8* %273, null
  %275 = load i8*, i8** %247, align 8, !tbaa !52
  br i1 %274, label %276, label %278

276:                                              ; preds = %260
  %277 = call i8* @halide_string_to_string(i8* %271, i8* %275, i8* getelementptr inbounds ([10 x i8], [10 x i8]* @.str.74, i64 0, i64 0)) #16
  br label %280

278:                                              ; preds = %260
  %279 = call i8* @halide_string_to_string(i8* %271, i8* %275, i8* nonnull %273) #16
  br label %280

280:                                              ; preds = %278, %276
  %281 = phi i8* [ %279, %278 ], [ %277, %276 ]
  store i8* %281, i8** %245, align 8, !tbaa !51
  %282 = load i8*, i8** %247, align 8, !tbaa !52
  %283 = call i8* @halide_string_to_string(i8* %281, i8* %282, i8* nonnull getelementptr inbounds ([2 x i8], [2 x i8]* @.str.30.142, i64 0, i64 0)) #16
  store i8* %283, i8** %245, align 8, !tbaa !51
  %284 = getelementptr inbounds %struct.halide_trace_event_t, %struct.halide_trace_event_t* %1, i64 0, i32 7
  %285 = load i32, i32* %284, align 4, !tbaa !55
  %286 = load i8*, i8** %247, align 8, !tbaa !52
  %287 = sext i32 %285 to i64
  %288 = call i8* @halide_int64_to_string(i8* %283, i8* %286, i64 %287, i32 1) #16
  store i8* %288, i8** %245, align 8, !tbaa !51
  %289 = load i8*, i8** %247, align 8, !tbaa !52
  %290 = call i8* @halide_string_to_string(i8* %288, i8* %289, i8* nonnull getelementptr inbounds ([2 x i8], [2 x i8]* @.str.16, i64 0, i64 0)) #16
  store i8* %290, i8** %245, align 8, !tbaa !51
  %291 = getelementptr inbounds %struct.halide_trace_event_t, %struct.halide_trace_event_t* %1, i64 0, i32 4, i32 2
  %292 = load i16, i16* %291, align 2, !tbaa !22
  %293 = icmp ugt i16 %292, 1
  br i1 %293, label %294, label %297

294:                                              ; preds = %280
  %295 = load i8*, i8** %247, align 8, !tbaa !52
  %296 = call i8* @halide_string_to_string(i8* %290, i8* %295, i8* nonnull getelementptr inbounds ([2 x i8], [2 x i8]* @.str.17, i64 0, i64 0)) #16
  store i8* %296, i8** %245, align 8, !tbaa !51
  br label %297

297:                                              ; preds = %294, %280
  %298 = phi i8* [ %296, %294 ], [ %290, %280 ]
  %299 = getelementptr inbounds %struct.halide_trace_event_t, %struct.halide_trace_event_t* %1, i64 0, i32 8
  %300 = load i32, i32* %299, align 8, !tbaa !29
  %301 = icmp sgt i32 %300, 0
  br i1 %301, label %302, label %.loopexit26

302:                                              ; preds = %297
  %303 = getelementptr inbounds %struct.halide_trace_event_t, %struct.halide_trace_event_t* %1, i64 0, i32 2
  %304 = load i32*, i32** %303, align 8, !tbaa !42
  %305 = load i32, i32* %304, align 4, !tbaa !16
  %306 = load i8*, i8** %247, align 8, !tbaa !52
  %307 = sext i32 %305 to i64
  %308 = call i8* @halide_int64_to_string(i8* %298, i8* %306, i64 %307, i32 1) #16
  store i8* %308, i8** %245, align 8, !tbaa !51
  %309 = load i32, i32* %299, align 8, !tbaa !29
  %310 = icmp sgt i32 %309, 1
  br i1 %310, label %.preheader25, label %.loopexit26

.loopexit26:                                      ; preds = %327, %302, %297
  %311 = phi i8* [ %298, %297 ], [ %308, %302 ], [ %336, %327 ]
  %312 = load i16, i16* %291, align 2, !tbaa !22
  %313 = icmp ugt i16 %312, 1
  %314 = load i8*, i8** %247, align 8, !tbaa !52
  %315 = select i1 %313, i8* getelementptr inbounds ([3 x i8], [3 x i8]* @.str.20, i64 0, i64 0), i8* getelementptr inbounds ([2 x i8], [2 x i8]* @.str.8.120, i64 0, i64 0)
  %316 = call i8* @halide_string_to_string(i8* %311, i8* %314, i8* nonnull %315) #16
  store i8* %316, i8** %245, align 8, !tbaa !51
  br i1 %265, label %341, label %.loopexit41.thread

.preheader25:                                     ; preds = %302, %327
  %317 = phi i8* [ %336, %327 ], [ %308, %302 ]
  %318 = phi i64 [ %337, %327 ], [ 1, %302 ]
  %319 = load i16, i16* %291, align 2, !tbaa !22
  %320 = icmp ugt i16 %319, 1
  br i1 %320, label %321, label %326

321:                                              ; preds = %.preheader25
  %322 = zext i16 %319 to i32
  %323 = trunc i64 %318 to i32
  %324 = urem i32 %323, %322
  %325 = icmp eq i32 %324, 0
  br i1 %325, label %327, label %326

326:                                              ; preds = %321, %.preheader25
  br label %327

327:                                              ; preds = %326, %321
  %328 = phi i8* [ getelementptr inbounds ([3 x i8], [3 x i8]* @.str.55, i64 0, i64 0), %326 ], [ getelementptr inbounds ([5 x i8], [5 x i8]* @.str.18, i64 0, i64 0), %321 ]
  %329 = load i8*, i8** %247, align 8, !tbaa !52
  %330 = call i8* @halide_string_to_string(i8* %317, i8* %329, i8* nonnull %328) #16
  store i8* %330, i8** %245, align 8, !tbaa !51
  %331 = load i32*, i32** %303, align 8, !tbaa !42
  %332 = getelementptr inbounds i32, i32* %331, i64 %318
  %333 = load i32, i32* %332, align 4, !tbaa !16
  %334 = load i8*, i8** %247, align 8, !tbaa !52
  %335 = sext i32 %333 to i64
  %336 = call i8* @halide_int64_to_string(i8* %330, i8* %334, i64 %335, i32 1) #16
  store i8* %336, i8** %245, align 8, !tbaa !51
  %337 = add nuw nsw i64 %318, 1
  %338 = load i32, i32* %299, align 8, !tbaa !29
  %339 = sext i32 %338 to i64
  %340 = icmp slt i64 %337, %339
  br i1 %340, label %.preheader25, label %.loopexit26, !llvm.loop !56

341:                                              ; preds = %.loopexit26
  %342 = load i16, i16* %291, align 2, !tbaa !22
  %343 = icmp ugt i16 %342, 1
  %344 = load i8*, i8** %247, align 8, !tbaa !52
  %345 = select i1 %343, i8* getelementptr inbounds ([5 x i8], [5 x i8]* @.str.22, i64 0, i64 0), i8* getelementptr inbounds ([4 x i8], [4 x i8]* @.str.23, i64 0, i64 0)
  %346 = call i8* @halide_string_to_string(i8* %316, i8* %344, i8* nonnull %345) #16
  store i8* %346, i8** %245, align 8, !tbaa !51
  %347 = load i16, i16* %291, align 2, !tbaa !22
  %348 = icmp eq i16 %347, 0
  br i1 %348, label %.loopexit41.thread, label %349

349:                                              ; preds = %341
  %350 = getelementptr inbounds %struct.halide_trace_event_t, %struct.halide_trace_event_t* %1, i64 0, i32 4, i32 0
  %351 = getelementptr inbounds %struct.halide_trace_event_t, %struct.halide_trace_event_t* %1, i64 0, i32 1
  %352 = bitcast i8** %351 to i8***
  %353 = icmp sgt i32 %252, 15
  %354 = bitcast i8** %351 to i16**
  %355 = bitcast i8** %351 to float**
  %356 = bitcast i8** %351 to double**
  %357 = bitcast i8** %351 to i32**
  %358 = bitcast i8** %351 to i64**
  %.pre = load i8, i8* %350, align 8, !tbaa !58
  switch i8 %.pre, label %437 [
    i8 0, label %411
    i8 1, label %387
    i8 2, label %364
    i8 3, label %359
  ]

359:                                              ; preds = %349
  %360 = load i8**, i8*** %352, align 8, !tbaa !43
  %361 = load i8*, i8** %360, align 8, !tbaa !12
  %362 = load i8*, i8** %247, align 8, !tbaa !52
  %363 = call i8* @halide_pointer_to_string(i8* %346, i8* %362, i8* %361) #16
  br label %435

364:                                              ; preds = %349
  br i1 %353, label %366, label %365

365:                                              ; preds = %364
  call void @halide_print(i8* %0, i8* getelementptr inbounds ([106 x i8], [106 x i8]* @.str.24, i64 0, i64 0)) #16
  call void @abort() #16
  br label %366

366:                                              ; preds = %365, %364
  switch i32 %252, label %381 [
    i32 32, label %374
    i32 16, label %367
  ]

367:                                              ; preds = %366
  %368 = load i16*, i16** %354, align 8, !tbaa !43
  %369 = load i16, i16* %368, align 2, !tbaa !59
  %370 = call double @halide_float16_bits_to_double(i16 zeroext %369) #16
  %371 = load i8*, i8** %245, align 8, !tbaa !51
  %372 = load i8*, i8** %247, align 8, !tbaa !52
  %373 = call i8* @halide_double_to_string(i8* %371, i8* %372, double %370, i32 1) #16
  br label %435

374:                                              ; preds = %366
  %375 = load float*, float** %355, align 8, !tbaa !43
  %376 = load float, float* %375, align 4, !tbaa !60
  %377 = load i8*, i8** %245, align 8, !tbaa !51
  %378 = load i8*, i8** %247, align 8, !tbaa !52
  %379 = fpext float %376 to double
  %380 = call i8* @halide_double_to_string(i8* %377, i8* %378, double %379, i32 0) #16
  br label %435

381:                                              ; preds = %366
  %382 = load double*, double** %356, align 8, !tbaa !43
  %383 = load double, double* %382, align 8, !tbaa !62
  %384 = load i8*, i8** %245, align 8, !tbaa !51
  %385 = load i8*, i8** %247, align 8, !tbaa !52
  %386 = call i8* @halide_double_to_string(i8* %384, i8* %385, double %383, i32 1) #16
  br label %435

387:                                              ; preds = %349
  switch i32 %252, label %406 [
    i32 8, label %400
    i32 16, label %394
    i32 32, label %388
  ]

388:                                              ; preds = %387
  %389 = load i32*, i32** %357, align 8, !tbaa !43
  %390 = load i32, i32* %389, align 4, !tbaa !16
  %391 = load i8*, i8** %247, align 8, !tbaa !52
  %392 = zext i32 %390 to i64
  %393 = call i8* @halide_uint64_to_string(i8* %346, i8* %391, i64 %392, i32 1) #16
  br label %435

394:                                              ; preds = %387
  %395 = load i16*, i16** %354, align 8, !tbaa !43
  %396 = load i16, i16* %395, align 2, !tbaa !59
  %397 = load i8*, i8** %247, align 8, !tbaa !52
  %398 = zext i16 %396 to i64
  %399 = call i8* @halide_int64_to_string(i8* %346, i8* %397, i64 %398, i32 1) #16
  br label %435

400:                                              ; preds = %387
  %401 = load i8*, i8** %351, align 8, !tbaa !43
  %402 = load i8, i8* %401, align 1, !tbaa !38
  %403 = load i8*, i8** %247, align 8, !tbaa !52
  %404 = zext i8 %402 to i64
  %405 = call i8* @halide_int64_to_string(i8* %346, i8* %403, i64 %404, i32 1) #16
  br label %435

406:                                              ; preds = %387
  %407 = load i64*, i64** %358, align 8, !tbaa !43
  %408 = load i64, i64* %407, align 8, !tbaa !64
  %409 = load i8*, i8** %247, align 8, !tbaa !52
  %410 = call i8* @halide_uint64_to_string(i8* %346, i8* %409, i64 %408, i32 1) #16
  br label %435

411:                                              ; preds = %349
  switch i32 %252, label %430 [
    i32 8, label %424
    i32 16, label %418
    i32 32, label %412
  ]

412:                                              ; preds = %411
  %413 = load i32*, i32** %357, align 8, !tbaa !43
  %414 = load i32, i32* %413, align 4, !tbaa !16
  %415 = load i8*, i8** %247, align 8, !tbaa !52
  %416 = sext i32 %414 to i64
  %417 = call i8* @halide_int64_to_string(i8* %346, i8* %415, i64 %416, i32 1) #16
  br label %435

418:                                              ; preds = %411
  %419 = load i16*, i16** %354, align 8, !tbaa !43
  %420 = load i16, i16* %419, align 2, !tbaa !59
  %421 = load i8*, i8** %247, align 8, !tbaa !52
  %422 = sext i16 %420 to i64
  %423 = call i8* @halide_int64_to_string(i8* %346, i8* %421, i64 %422, i32 1) #16
  br label %435

424:                                              ; preds = %411
  %425 = load i8*, i8** %351, align 8, !tbaa !43
  %426 = load i8, i8* %425, align 1, !tbaa !38
  %427 = load i8*, i8** %247, align 8, !tbaa !52
  %428 = sext i8 %426 to i64
  %429 = call i8* @halide_int64_to_string(i8* %346, i8* %427, i64 %428, i32 1) #16
  br label %435

430:                                              ; preds = %411
  %431 = load i64*, i64** %358, align 8, !tbaa !43
  %432 = load i64, i64* %431, align 8, !tbaa !64
  %433 = load i8*, i8** %247, align 8, !tbaa !52
  %434 = call i8* @halide_int64_to_string(i8* %346, i8* %433, i64 %432, i32 1) #16
  br label %435

435:                                              ; preds = %430, %424, %418, %412, %406, %400, %394, %388, %381, %374, %367, %359
  %436 = phi i8* [ %423, %418 ], [ %434, %430 ], [ %417, %412 ], [ %429, %424 ], [ %373, %367 ], [ %386, %381 ], [ %380, %374 ], [ %363, %359 ], [ %405, %400 ], [ %393, %388 ], [ %410, %406 ], [ %399, %394 ]
  store i8* %436, i8** %245, align 8, !tbaa !51
  %.pre42 = load i16, i16* %291, align 2, !tbaa !22
  br label %437

437:                                              ; preds = %435, %349
  %438 = phi i16 [ %347, %349 ], [ %.pre42, %435 ]
  %439 = phi i8* [ %346, %349 ], [ %436, %435 ]
  %440 = icmp ugt i16 %438, 1
  br i1 %440, label %.peel.next, label %.loopexit41.thread

.loopexit41:                                      ; preds = %537
  %441 = icmp ugt i16 %540, 1
  br i1 %441, label %543, label %.loopexit41.thread

.peel.next:                                       ; preds = %437, %537
  %442 = phi i8* [ %538, %537 ], [ %439, %437 ]
  %443 = phi i64 [ %539, %537 ], [ 1, %437 ]
  %444 = load i8*, i8** %247, align 8, !tbaa !52
  %445 = call i8* @halide_string_to_string(i8* %442, i8* %444, i8* nonnull getelementptr inbounds ([3 x i8], [3 x i8]* @.str.55, i64 0, i64 0)) #16
  store i8* %445, i8** %245, align 8, !tbaa !51
  %446 = load i8, i8* %350, align 8, !tbaa !58
  switch i8 %446, label %537 [
    i8 0, label %447
    i8 1, label %475
    i8 2, label %503
    i8 3, label %529
  ]

447:                                              ; preds = %.peel.next
  switch i32 %252, label %469 [
    i32 8, label %448
    i32 16, label %455
    i32 32, label %462
  ]

448:                                              ; preds = %447
  %449 = load i8*, i8** %351, align 8, !tbaa !43
  %450 = getelementptr inbounds i8, i8* %449, i64 %443
  %451 = load i8, i8* %450, align 1, !tbaa !38
  %452 = load i8*, i8** %247, align 8, !tbaa !52
  %453 = sext i8 %451 to i64
  %454 = call i8* @halide_int64_to_string(i8* %445, i8* %452, i64 %453, i32 1) #16
  br label %535

455:                                              ; preds = %447
  %456 = load i16*, i16** %354, align 8, !tbaa !43
  %457 = getelementptr inbounds i16, i16* %456, i64 %443
  %458 = load i16, i16* %457, align 2, !tbaa !59
  %459 = load i8*, i8** %247, align 8, !tbaa !52
  %460 = sext i16 %458 to i64
  %461 = call i8* @halide_int64_to_string(i8* %445, i8* %459, i64 %460, i32 1) #16
  br label %535

462:                                              ; preds = %447
  %463 = load i32*, i32** %357, align 8, !tbaa !43
  %464 = getelementptr inbounds i32, i32* %463, i64 %443
  %465 = load i32, i32* %464, align 4, !tbaa !16
  %466 = load i8*, i8** %247, align 8, !tbaa !52
  %467 = sext i32 %465 to i64
  %468 = call i8* @halide_int64_to_string(i8* %445, i8* %466, i64 %467, i32 1) #16
  br label %535

469:                                              ; preds = %447
  %470 = load i64*, i64** %358, align 8, !tbaa !43
  %471 = getelementptr inbounds i64, i64* %470, i64 %443
  %472 = load i64, i64* %471, align 8, !tbaa !64
  %473 = load i8*, i8** %247, align 8, !tbaa !52
  %474 = call i8* @halide_int64_to_string(i8* %445, i8* %473, i64 %472, i32 1) #16
  br label %535

475:                                              ; preds = %.peel.next
  switch i32 %252, label %497 [
    i32 8, label %476
    i32 16, label %483
    i32 32, label %490
  ]

476:                                              ; preds = %475
  %477 = load i8*, i8** %351, align 8, !tbaa !43
  %478 = getelementptr inbounds i8, i8* %477, i64 %443
  %479 = load i8, i8* %478, align 1, !tbaa !38
  %480 = load i8*, i8** %247, align 8, !tbaa !52
  %481 = zext i8 %479 to i64
  %482 = call i8* @halide_int64_to_string(i8* %445, i8* %480, i64 %481, i32 1) #16
  br label %535

483:                                              ; preds = %475
  %484 = load i16*, i16** %354, align 8, !tbaa !43
  %485 = getelementptr inbounds i16, i16* %484, i64 %443
  %486 = load i16, i16* %485, align 2, !tbaa !59
  %487 = load i8*, i8** %247, align 8, !tbaa !52
  %488 = zext i16 %486 to i64
  %489 = call i8* @halide_int64_to_string(i8* %445, i8* %487, i64 %488, i32 1) #16
  br label %535

490:                                              ; preds = %475
  %491 = load i32*, i32** %357, align 8, !tbaa !43
  %492 = getelementptr inbounds i32, i32* %491, i64 %443
  %493 = load i32, i32* %492, align 4, !tbaa !16
  %494 = load i8*, i8** %247, align 8, !tbaa !52
  %495 = zext i32 %493 to i64
  %496 = call i8* @halide_uint64_to_string(i8* %445, i8* %494, i64 %495, i32 1) #16
  br label %535

497:                                              ; preds = %475
  %498 = load i64*, i64** %358, align 8, !tbaa !43
  %499 = getelementptr inbounds i64, i64* %498, i64 %443
  %500 = load i64, i64* %499, align 8, !tbaa !64
  %501 = load i8*, i8** %247, align 8, !tbaa !52
  %502 = call i8* @halide_uint64_to_string(i8* %445, i8* %501, i64 %500, i32 1) #16
  br label %535

503:                                              ; preds = %.peel.next
  br i1 %353, label %505, label %504

504:                                              ; preds = %503
  call void @halide_print(i8* %0, i8* getelementptr inbounds ([106 x i8], [106 x i8]* @.str.24, i64 0, i64 0)) #16
  call void @abort() #16
  br label %505

505:                                              ; preds = %504, %503
  switch i32 %252, label %522 [
    i32 32, label %506
    i32 16, label %514
  ]

506:                                              ; preds = %505
  %507 = load float*, float** %355, align 8, !tbaa !43
  %508 = getelementptr inbounds float, float* %507, i64 %443
  %509 = load float, float* %508, align 4, !tbaa !60
  %510 = load i8*, i8** %245, align 8, !tbaa !51
  %511 = load i8*, i8** %247, align 8, !tbaa !52
  %512 = fpext float %509 to double
  %513 = call i8* @halide_double_to_string(i8* %510, i8* %511, double %512, i32 0) #16
  br label %535

514:                                              ; preds = %505
  %515 = load i16*, i16** %354, align 8, !tbaa !43
  %516 = getelementptr inbounds i16, i16* %515, i64 %443
  %517 = load i16, i16* %516, align 2, !tbaa !59
  %518 = call double @halide_float16_bits_to_double(i16 zeroext %517) #16
  %519 = load i8*, i8** %245, align 8, !tbaa !51
  %520 = load i8*, i8** %247, align 8, !tbaa !52
  %521 = call i8* @halide_double_to_string(i8* %519, i8* %520, double %518, i32 1) #16
  br label %535

522:                                              ; preds = %505
  %523 = load double*, double** %356, align 8, !tbaa !43
  %524 = getelementptr inbounds double, double* %523, i64 %443
  %525 = load double, double* %524, align 8, !tbaa !62
  %526 = load i8*, i8** %245, align 8, !tbaa !51
  %527 = load i8*, i8** %247, align 8, !tbaa !52
  %528 = call i8* @halide_double_to_string(i8* %526, i8* %527, double %525, i32 1) #16
  br label %535

529:                                              ; preds = %.peel.next
  %530 = load i8**, i8*** %352, align 8, !tbaa !43
  %531 = getelementptr inbounds i8*, i8** %530, i64 %443
  %532 = load i8*, i8** %531, align 8, !tbaa !12
  %533 = load i8*, i8** %247, align 8, !tbaa !52
  %534 = call i8* @halide_pointer_to_string(i8* %445, i8* %533, i8* %532) #16
  br label %535

535:                                              ; preds = %529, %522, %514, %506, %497, %490, %483, %476, %469, %462, %455, %448
  %536 = phi i8* [ %461, %455 ], [ %474, %469 ], [ %468, %462 ], [ %454, %448 ], [ %521, %514 ], [ %528, %522 ], [ %513, %506 ], [ %534, %529 ], [ %482, %476 ], [ %496, %490 ], [ %502, %497 ], [ %489, %483 ]
  store i8* %536, i8** %245, align 8, !tbaa !51
  br label %537

537:                                              ; preds = %535, %.peel.next
  %538 = phi i8* [ %445, %.peel.next ], [ %536, %535 ]
  %539 = add nuw nsw i64 %443, 1
  %540 = load i16, i16* %291, align 2, !tbaa !22
  %541 = zext i16 %540 to i64
  %542 = icmp ult i64 %539, %541
  br i1 %542, label %.peel.next, label %.loopexit41, !llvm.loop !66

543:                                              ; preds = %.loopexit41
  %544 = load i8*, i8** %247, align 8, !tbaa !52
  %545 = call i8* @halide_string_to_string(i8* %538, i8* %544, i8* nonnull getelementptr inbounds ([2 x i8], [2 x i8]* @.str.25, i64 0, i64 0)) #16
  store i8* %545, i8** %245, align 8, !tbaa !51
  br label %.loopexit41.thread

.loopexit41.thread:                               ; preds = %437, %543, %.loopexit41, %341, %.loopexit26
  %546 = phi i8* [ %538, %.loopexit41 ], [ %545, %543 ], [ %316, %.loopexit26 ], [ %346, %341 ], [ %439, %437 ]
  %547 = getelementptr inbounds %struct.halide_trace_event_t, %struct.halide_trace_event_t* %1, i64 0, i32 3
  %548 = load i8*, i8** %547, align 8, !tbaa !31
  %549 = icmp eq i8* %548, null
  br i1 %549, label %567, label %550

550:                                              ; preds = %.loopexit41.thread
  %551 = load i8, i8* %548, align 1, !tbaa !38
  %552 = icmp eq i8 %551, 0
  br i1 %552, label %567, label %553

553:                                              ; preds = %550
  %554 = load i8*, i8** %247, align 8, !tbaa !52
  %555 = call i8* @halide_string_to_string(i8* %546, i8* %554, i8* nonnull getelementptr inbounds ([9 x i8], [9 x i8]* @.str.26, i64 0, i64 0)) #16
  store i8* %555, i8** %245, align 8, !tbaa !51
  %556 = load i8*, i8** %547, align 8, !tbaa !31
  %557 = icmp eq i8* %556, null
  %558 = load i8*, i8** %247, align 8, !tbaa !52
  br i1 %557, label %559, label %561

559:                                              ; preds = %553
  %560 = call i8* @halide_string_to_string(i8* %555, i8* %558, i8* getelementptr inbounds ([10 x i8], [10 x i8]* @.str.74, i64 0, i64 0)) #16
  br label %563

561:                                              ; preds = %553
  %562 = call i8* @halide_string_to_string(i8* %555, i8* %558, i8* nonnull %556) #16
  br label %563

563:                                              ; preds = %561, %559
  %564 = phi i8* [ %562, %561 ], [ %560, %559 ]
  store i8* %564, i8** %245, align 8, !tbaa !51
  %565 = load i8*, i8** %247, align 8, !tbaa !52
  %566 = call i8* @halide_string_to_string(i8* %564, i8* %565, i8* nonnull getelementptr inbounds ([2 x i8], [2 x i8]* @.str.27, i64 0, i64 0)) #16
  store i8* %566, i8** %245, align 8, !tbaa !51
  br label %567

567:                                              ; preds = %563, %550, %.loopexit41.thread
  %568 = phi i8* [ %566, %563 ], [ %546, %550 ], [ %546, %.loopexit41.thread ]
  %569 = load i8*, i8** %247, align 8, !tbaa !52
  %570 = call i8* @halide_string_to_string(i8* %568, i8* %569, i8* nonnull getelementptr inbounds ([2 x i8], [2 x i8]* @.str.8, i64 0, i64 0)) #16
  store i8* %570, i8** %245, align 8, !tbaa !51
  %571 = load i8*, i8** %244, align 8, !tbaa !67
  %572 = load i8*, i8** %242, align 8, !tbaa !48
  %573 = ptrtoint i8* %570 to i64
  %574 = ptrtoint i8* %571 to i64
  %575 = add i64 %573, 1
  %576 = sub i64 %575, %574
  %577 = call i32 @halide_msan_annotate_memory_is_initialized(i8* %572, i8* %571, i64 %576) #16
  br label %578

578:                                              ; preds = %578, %567
  %579 = atomicrmw volatile xchg i8* @_ZN6Halide7Runtime8Internal22halide_trace_file_lockE, i8 1 acquire
  %580 = icmp eq i8 %579, 0
  br i1 %580, label %581, label %578, !llvm.loop !68

581:                                              ; preds = %578
  call void @halide_print(i8* %0, i8* nonnull %240) #16
  store atomic volatile i8 0, i8* @_ZN6Halide7Runtime8Internal22halide_trace_file_lockE release, align 1
  %582 = load i8*, i8** %244, align 8, !tbaa !67
  %583 = icmp eq i8* %582, null
  br i1 %583, label %584, label %586

584:                                              ; preds = %581
  %585 = load i8*, i8** %242, align 8, !tbaa !48
  call void @halide_error(i8* %585, i8* getelementptr inbounds ([35 x i8], [35 x i8]* @.str.73, i64 0, i64 0)) #16
  br label %594

586:                                              ; preds = %581
  %587 = load i8*, i8** %245, align 8, !tbaa !51
  %588 = load i8*, i8** %242, align 8, !tbaa !48
  %589 = ptrtoint i8* %587 to i64
  %590 = ptrtoint i8* %582 to i64
  %591 = sub i64 1, %590
  %592 = add i64 %591, %589
  %593 = call i32 @halide_msan_annotate_memory_is_initialized(i8* %588, i8* nonnull %582, i64 %592) #16
  br label %594

594:                                              ; preds = %586, %584
  %595 = load i8, i8* %243, align 8, !tbaa !50, !range !21
  %596 = icmp eq i8 %595, 0
  br i1 %596, label %602, label %597

597:                                              ; preds = %594
  %598 = load i8*, i8** %244, align 8, !tbaa !67
  %599 = getelementptr inbounds %"class.Halide::Runtime::Internal::(anonymous namespace)::Printer.0", %"class.Halide::Runtime::Internal::(anonymous namespace)::Printer.0"* %4, i64 0, i32 5, i64 0
  %600 = icmp eq i8* %598, %599
  br i1 %600, label %602, label %601

601:                                              ; preds = %597
  call void @free(i8* %598) #16
  br label %602

602:                                              ; preds = %601, %597, %594
  call void @llvm.lifetime.end.p0i8(i64 40, i8* nonnull %241) #18
  call void @llvm.lifetime.end.p0i8(i64 4096, i8* nonnull %240) #18
  br label %603

603:                                              ; preds = %602, %237, %236, %226, %204
  ret i32 %5
}

; Function Attrs: nounwind
define weak i32 @halide_get_trace_file(i8* %0) local_unnamed_addr #4 {
  br label %2

2:                                                ; preds = %2, %1
  %3 = atomicrmw volatile xchg i8* @_ZN6Halide7Runtime8Internal22halide_trace_file_lockE, i8 1 acquire
  %4 = icmp eq i8 %3, 0
  br i1 %4, label %5, label %2, !llvm.loop !68

5:                                                ; preds = %2
  %6 = load i32, i32* @_ZN6Halide7Runtime8Internal17halide_trace_fileE, align 4, !tbaa !16
  %7 = icmp slt i32 %6, 0
  br i1 %7, label %8, label %27

8:                                                ; preds = %5
  %9 = tail call i8* @getenv(i8* getelementptr inbounds ([14 x i8], [14 x i8]* @.str.28, i64 0, i64 0)) #16
  %10 = icmp eq i8* %9, null
  br i1 %10, label %26, label %11

11:                                               ; preds = %8
  %12 = tail call i8* @fopen(i8* nonnull %9, i8* getelementptr inbounds ([3 x i8], [3 x i8]* @.str.29, i64 0, i64 0)) #16
  %13 = icmp eq i8* %12, null
  br i1 %13, label %14, label %15

14:                                               ; preds = %11
  tail call void @halide_print(i8* %0, i8* getelementptr inbounds ([103 x i8], [103 x i8]* @.str.30, i64 0, i64 0)) #16
  tail call void @abort() #16
  br label %15

15:                                               ; preds = %14, %11
  %16 = tail call i32 @fileno(i8* %12) #16
  tail call void @halide_set_trace_file(i32 %16) #17
  store i8* %12, i8** @_ZN6Halide7Runtime8Internal35halide_trace_file_internally_openedE, align 8, !tbaa !12
  %17 = load %"class.Halide::Runtime::Internal::TraceBuffer"*, %"class.Halide::Runtime::Internal::TraceBuffer"** @_ZN6Halide7Runtime8Internal19halide_trace_bufferE, align 8, !tbaa !12
  %18 = icmp eq %"class.Halide::Runtime::Internal::TraceBuffer"* %17, null
  br i1 %18, label %19, label %27

19:                                               ; preds = %15
  %20 = tail call i8* @malloc(i64 1048588) #16
  store i8* %20, i8** bitcast (%"class.Halide::Runtime::Internal::TraceBuffer"** @_ZN6Halide7Runtime8Internal19halide_trace_bufferE to i8**), align 8, !tbaa !12
  %21 = getelementptr inbounds i8, i8* %20, i64 4
  %22 = bitcast i8* %21 to i32*
  store i32 0, i32* %22, align 4, !tbaa !34
  %23 = getelementptr inbounds i8, i8* %20, i64 8
  %24 = bitcast i8* %23 to i32*
  store i32 0, i32* %24, align 4, !tbaa !36
  %25 = bitcast i8* %20 to i32*
  store volatile i32 0, i32* %25, align 4, !tbaa !32
  br label %27

26:                                               ; preds = %8
  tail call void @halide_set_trace_file(i32 0) #17
  br label %27

27:                                               ; preds = %26, %19, %15, %5
  %28 = load i32, i32* @_ZN6Halide7Runtime8Internal17halide_trace_fileE, align 4, !tbaa !16
  store atomic volatile i8 0, i8* @_ZN6Halide7Runtime8Internal22halide_trace_file_lockE release, align 1
  ret i32 %28
}

declare i64 @strlen(i8*) local_unnamed_addr #1

declare i64 @write(i32, i8*, i64) local_unnamed_addr #1

declare void @halide_print(i8*, i8*) local_unnamed_addr #1

declare void @abort() local_unnamed_addr #1

declare i8* @malloc(i64) local_unnamed_addr #1

declare void @free(i8*) local_unnamed_addr #1

declare i8* @fopen(i8*, i8*) local_unnamed_addr #1

declare i32 @fileno(i8*) local_unnamed_addr #1

; Function Attrs: nounwind willreturn mustprogress
define weak void @halide_set_trace_file(i32 %0) local_unnamed_addr #2 {
  store i32 %0, i32* @_ZN6Halide7Runtime8Internal17halide_trace_fileE, align 4, !tbaa !16
  ret void
}

; Function Attrs: nounwind mustprogress
define weak void @halide_trace_cleanup() #0 {
  %1 = tail call i32 @halide_shutdown_trace() #17
  ret void
}

; Function Attrs: nounwind mustprogress
define weak i32 @halide_shutdown_trace() local_unnamed_addr #0 {
  %1 = load i8*, i8** @_ZN6Halide7Runtime8Internal35halide_trace_file_internally_openedE, align 8, !tbaa !12
  %2 = icmp eq i8* %1, null
  br i1 %2, label %9, label %3

3:                                                ; preds = %0
  %4 = tail call i32 @fclose(i8* nonnull %1) #16
  store i32 0, i32* @_ZN6Halide7Runtime8Internal17halide_trace_fileE, align 4, !tbaa !16
  store i8 0, i8* @_ZN6Halide7Runtime8Internal29halide_trace_file_initializedE, align 1, !tbaa !18
  store i8* null, i8** @_ZN6Halide7Runtime8Internal35halide_trace_file_internally_openedE, align 8, !tbaa !12
  %5 = load %"class.Halide::Runtime::Internal::TraceBuffer"*, %"class.Halide::Runtime::Internal::TraceBuffer"** @_ZN6Halide7Runtime8Internal19halide_trace_bufferE, align 8, !tbaa !12
  %6 = icmp eq %"class.Halide::Runtime::Internal::TraceBuffer"* %5, null
  br i1 %6, label %9, label %7

7:                                                ; preds = %3
  %8 = bitcast %"class.Halide::Runtime::Internal::TraceBuffer"* %5 to i8*
  tail call void @free(i8* nonnull %8) #16
  br label %9

9:                                                ; preds = %7, %3, %0
  %10 = phi i32 [ %4, %7 ], [ %4, %3 ], [ 0, %0 ]
  ret i32 %10
}

declare i32 @fclose(i8*) local_unnamed_addr #1

; Function Attrs: nounwind willreturn mustprogress
define weak i32 (i8*, %struct.halide_trace_event_t*)* @halide_set_custom_trace(i32 (i8*, %struct.halide_trace_event_t*)* %0) local_unnamed_addr #2 {
  %2 = load i32 (i8*, %struct.halide_trace_event_t*)*, i32 (i8*, %struct.halide_trace_event_t*)** @_ZN6Halide7Runtime8Internal19halide_custom_traceE, align 8, !tbaa !12
  store i32 (i8*, %struct.halide_trace_event_t*)* %0, i32 (i8*, %struct.halide_trace_event_t*)** @_ZN6Halide7Runtime8Internal19halide_custom_traceE, align 8, !tbaa !12
  ret i32 (i8*, %struct.halide_trace_event_t*)* %2
}

; Function Attrs: nounwind mustprogress
define weak i32 @halide_trace(i8* %0, %struct.halide_trace_event_t* %1) local_unnamed_addr #0 {
  %3 = load i32 (i8*, %struct.halide_trace_event_t*)*, i32 (i8*, %struct.halide_trace_event_t*)** @_ZN6Halide7Runtime8Internal19halide_custom_traceE, align 8, !tbaa !12
  %4 = tail call i32 %3(i8* %0, %struct.halide_trace_event_t* %1) #16
  ret i32 %4
}

; Function Attrs: nounwind
define weak i32 @halide_trace_helper(i8* %0, i8* %1, i8* %2, i32* %3, i32 %4, i32 %5, i32 %6, i32 %7, i32 %8, i32 %9, i32 %10, i8* %11) local_unnamed_addr #4 {
  %13 = alloca %struct.halide_trace_event_t, align 8
  %14 = bitcast %struct.halide_trace_event_t* %13 to i8*
  call void @llvm.lifetime.start.p0i8(i64 56, i8* nonnull %14) #18
  %15 = getelementptr inbounds %struct.halide_trace_event_t, %struct.halide_trace_event_t* %13, i64 0, i32 4, i32 0
  %16 = getelementptr inbounds %struct.halide_trace_event_t, %struct.halide_trace_event_t* %13, i64 0, i32 4, i32 1
  %17 = getelementptr inbounds %struct.halide_trace_event_t, %struct.halide_trace_event_t* %13, i64 0, i32 4, i32 2
  %18 = getelementptr inbounds %struct.halide_trace_event_t, %struct.halide_trace_event_t* %13, i64 0, i32 0
  store i8* %1, i8** %18, align 8, !tbaa !30
  %19 = getelementptr inbounds %struct.halide_trace_event_t, %struct.halide_trace_event_t* %13, i64 0, i32 1
  store i8* %2, i8** %19, align 8, !tbaa !43
  %20 = getelementptr inbounds %struct.halide_trace_event_t, %struct.halide_trace_event_t* %13, i64 0, i32 2
  store i32* %3, i32** %20, align 8, !tbaa !42
  %21 = getelementptr inbounds %struct.halide_trace_event_t, %struct.halide_trace_event_t* %13, i64 0, i32 3
  store i8* %11, i8** %21, align 8, !tbaa !31
  %22 = trunc i32 %4 to i8
  store i8 %22, i8* %15, align 8, !tbaa !58
  %23 = trunc i32 %5 to i8
  store i8 %23, i8* %16, align 1, !tbaa !53
  %24 = trunc i32 %6 to i16
  store i16 %24, i16* %17, align 2, !tbaa !22
  %25 = getelementptr inbounds %struct.halide_trace_event_t, %struct.halide_trace_event_t* %13, i64 0, i32 5
  store i32 %7, i32* %25, align 4, !tbaa !47
  %26 = getelementptr inbounds %struct.halide_trace_event_t, %struct.halide_trace_event_t* %13, i64 0, i32 6
  store i32 %8, i32* %26, align 8, !tbaa !69
  %27 = getelementptr inbounds %struct.halide_trace_event_t, %struct.halide_trace_event_t* %13, i64 0, i32 7
  store i32 %9, i32* %27, align 4, !tbaa !55
  %28 = getelementptr inbounds %struct.halide_trace_event_t, %struct.halide_trace_event_t* %13, i64 0, i32 8
  store i32 %10, i32* %28, align 8, !tbaa !29
  %29 = call i32 @halide_msan_annotate_memory_is_initialized(i8* %0, i8* nonnull %14, i64 56) #16
  %30 = add nsw i32 %5, 7
  %31 = sdiv i32 %30, 8
  %32 = mul nsw i32 %31, %6
  %33 = sext i32 %32 to i64
  %34 = call i32 @halide_msan_annotate_memory_is_initialized(i8* %0, i8* %2, i64 %33) #16
  %35 = bitcast i32* %3 to i8*
  %36 = sext i32 %10 to i64
  %37 = shl nsw i64 %36, 2
  %38 = call i32 @halide_msan_annotate_memory_is_initialized(i8* %0, i8* %35, i64 %37) #16
  %39 = call i32 @halide_trace(i8* %0, %struct.halide_trace_event_t* nonnull %13) #16
  call void @llvm.lifetime.end.p0i8(i64 56, i8* nonnull %14) #18
  ret i32 %39
}

; Function Attrs: nounwind mustprogress
define linkonce zeroext i1 @_ZN6Halide7Runtime8Internal9ends_withEPKcS3_(i8* %0, i8* %1) local_unnamed_addr #0 {
  br label %3

3:                                                ; preds = %3, %2
  %4 = phi i8* [ %0, %2 ], [ %7, %3 ]
  %5 = load i8, i8* %4, align 1, !tbaa !38
  %6 = icmp eq i8 %5, 0
  %7 = getelementptr inbounds i8, i8* %4, i64 1
  br i1 %6, label %.preheader5, label %3, !llvm.loop !70

.preheader5:                                      ; preds = %3, %.preheader5
  %8 = phi i8* [ %11, %.preheader5 ], [ %1, %3 ]
  %9 = load i8, i8* %8, align 1, !tbaa !38
  %10 = icmp eq i8 %9, 0
  %11 = getelementptr inbounds i8, i8* %8, i64 1
  br i1 %10, label %12, label %.preheader5, !llvm.loop !71

12:                                               ; preds = %.preheader5
  %13 = icmp ne i8* %8, %1
  %14 = icmp ne i8* %4, %0
  %15 = and i1 %14, %13
  br i1 %15, label %.preheader, label %.loopexit

.preheader:                                       ; preds = %12, %25
  %16 = phi i8* [ %18, %25 ], [ %4, %12 ]
  %17 = phi i8* [ %19, %25 ], [ %8, %12 ]
  %18 = getelementptr inbounds i8, i8* %16, i64 -1
  %19 = getelementptr inbounds i8, i8* %17, i64 -1
  %20 = icmp ne i8* %19, %1
  %21 = icmp ne i8* %18, %0
  %22 = and i1 %21, %20
  %23 = load i8, i8* %18, align 1, !tbaa !38
  %24 = load i8, i8* %19, align 1, !tbaa !38
  br i1 %22, label %25, label %.loopexit, !llvm.loop !72

25:                                               ; preds = %.preheader
  %26 = icmp eq i8 %23, %24
  br i1 %26, label %.preheader, label %.loopexit4

.loopexit:                                        ; preds = %.preheader, %12
  %27 = phi i8 [ 0, %12 ], [ %24, %.preheader ]
  %28 = phi i8 [ 0, %12 ], [ %23, %.preheader ]
  %29 = icmp eq i8 %28, %27
  br label %.loopexit4

.loopexit4:                                       ; preds = %25, %.loopexit
  %30 = phi i1 [ %29, %.loopexit ], [ false, %25 ]
  ret i1 %30
}

; Function Attrs: nounwind
define weak i32 @halide_debug_to_file(i8* %0, i8* %1, i32 %2, %struct.halide_buffer_t* %3) local_unnamed_addr #4 {
  %5 = alloca [4 x %struct.halide_dimension_t], align 4
  %6 = alloca %"struct.Halide::Runtime::Internal::halide_tiff_header", align 2
  %7 = alloca i32, align 4
  %8 = alloca i32, align 4
  %9 = alloca [256 x i8], align 1
  %10 = getelementptr inbounds [256 x i8], [256 x i8]* %9, i64 0, i64 0
  %11 = alloca [129 x i8], align 1
  %12 = alloca [8 x i32], align 4
  %13 = alloca [4 x i32], align 4
  %14 = alloca [2 x i32], align 4
  %15 = alloca [2 x i32], align 4
  %16 = alloca [5 x i32], align 4
  %17 = alloca [4096 x i8], align 1
  %18 = alloca [4 x i32], align 4
  %19 = alloca i64, align 8
  %20 = getelementptr inbounds %struct.halide_buffer_t, %struct.halide_buffer_t* %3, i64 0, i32 2
  %21 = load i8*, i8** %20, align 8, !tbaa !73
  %22 = icmp eq i8* %21, null
  br i1 %22, label %23, label %28

23:                                               ; preds = %4
  %24 = getelementptr inbounds %struct.halide_buffer_t, %struct.halide_buffer_t* %3, i64 0, i32 0
  %25 = load i64, i64* %24, align 8, !tbaa !75
  %26 = icmp eq i64 %25, 0
  br i1 %26, label %27, label %28

27:                                               ; preds = %23
  tail call void @halide_error(i8* %0, i8* getelementptr inbounds ([51 x i8], [51 x i8]* @.str.35, i64 0, i64 0)) #16
  br label %925

28:                                               ; preds = %23, %4
  %29 = getelementptr inbounds %struct.halide_buffer_t, %struct.halide_buffer_t* %3, i64 0, i32 5
  %30 = load i32, i32* %29, align 4, !tbaa !76
  %31 = icmp sgt i32 %30, 4
  br i1 %31, label %32, label %33

32:                                               ; preds = %28
  tail call void @halide_error(i8* %0, i8* getelementptr inbounds ([59 x i8], [59 x i8]* @.str.1.36, i64 0, i64 0)) #16
  br label %925

33:                                               ; preds = %28
  %34 = tail call i32 @halide_copy_to_host(i8* %0, %struct.halide_buffer_t* nonnull %3) #16
  %35 = tail call i8* @fopen(i8* %1, i8* getelementptr inbounds ([3 x i8], [3 x i8]* @.str.2.37, i64 0, i64 0)) #16
  %36 = icmp eq i8* %35, null
  br i1 %36, label %925, label %37

37:                                               ; preds = %33
  %38 = bitcast [4 x %struct.halide_dimension_t]* %5 to i8*
  call void @llvm.lifetime.start.p0i8(i64 64, i8* nonnull %38) #18
  %39 = getelementptr inbounds [4 x %struct.halide_dimension_t], [4 x %struct.halide_dimension_t]* %5, i64 0, i64 0, i32 0
  %40 = getelementptr inbounds [4 x %struct.halide_dimension_t], [4 x %struct.halide_dimension_t]* %5, i64 0, i64 0, i32 1
  %41 = getelementptr inbounds [4 x %struct.halide_dimension_t], [4 x %struct.halide_dimension_t]* %5, i64 0, i64 1, i32 0
  %42 = getelementptr inbounds [4 x %struct.halide_dimension_t], [4 x %struct.halide_dimension_t]* %5, i64 0, i64 1, i32 1
  %43 = bitcast [4 x %struct.halide_dimension_t]* %5 to <8 x i32>*
  store <8 x i32> zeroinitializer, <8 x i32>* %43, align 4, !tbaa !16
  %44 = getelementptr inbounds [4 x %struct.halide_dimension_t], [4 x %struct.halide_dimension_t]* %5, i64 0, i64 2, i32 0
  %45 = getelementptr inbounds [4 x %struct.halide_dimension_t], [4 x %struct.halide_dimension_t]* %5, i64 0, i64 2, i32 1
  %46 = getelementptr inbounds [4 x %struct.halide_dimension_t], [4 x %struct.halide_dimension_t]* %5, i64 0, i64 3, i32 0
  %47 = getelementptr inbounds [4 x %struct.halide_dimension_t], [4 x %struct.halide_dimension_t]* %5, i64 0, i64 3, i32 1
  %48 = bitcast i32* %44 to <8 x i32>*
  store <8 x i32> zeroinitializer, <8 x i32>* %48, align 4, !tbaa !16
  %49 = load i32, i32* %29, align 4, !tbaa !76
  %50 = icmp sgt i32 %49, 0
  br i1 %50, label %51, label %65

51:                                               ; preds = %37
  %52 = getelementptr inbounds %struct.halide_buffer_t, %struct.halide_buffer_t* %3, i64 0, i32 6
  %53 = load %struct.halide_dimension_t*, %struct.halide_dimension_t** %52, align 8, !tbaa !77
  %54 = zext i32 %49 to i64
  %55 = add nsw i64 %54, -1
  %56 = icmp ult i64 %55, 3
  %57 = select i1 %56, i64 %54, i64 4
  %58 = bitcast [4 x %struct.halide_dimension_t]* %5 to i8*
  %59 = bitcast %struct.halide_dimension_t* %53 to i8*
  call void @llvm.memcpy.p0i8.p0i8.i64(i8* nonnull align 4 dereferenceable(16) %58, i8* nonnull align 4 dereferenceable(16) %59, i64 16, i1 false), !tbaa.struct !78
  %60 = getelementptr inbounds [4 x %struct.halide_dimension_t], [4 x %struct.halide_dimension_t]* %5, i64 0, i64 0, i32 1
  %61 = load i32, i32* %60, align 4, !tbaa !79
  %62 = zext i32 %61 to i64
  %exitcond.not = icmp eq i64 %57, 1
  br i1 %exitcond.not, label %63, label %927, !llvm.loop !81

63:                                               ; preds = %945, %936, %927, %51
  %.lcssa293 = phi i64 [ %62, %51 ], [ %935, %927 ], [ %944, %936 ], [ %953, %945 ]
  %64 = icmp slt i32 %49, 4
  br i1 %64, label %65, label %.loopexit32

65:                                               ; preds = %63, %37
  %66 = phi i64 [ %.lcssa293, %63 ], [ 1, %37 ]
  %67 = sext i32 %49 to i64
  %68 = sub i32 3, %49
  %69 = zext i32 %68 to i64
  %70 = add nuw nsw i64 %69, 1
  %min.iters.check = icmp ult i32 %68, 7
  br i1 %min.iters.check, label %scalar.ph.preheader, label %vector.ph

vector.ph:                                        ; preds = %65
  %n.vec = and i64 %70, 8589934584
  %ind.end = add nsw i64 %n.vec, %67
  %.splatinsert = insertelement <8 x i64> poison, i64 %67, i32 0
  %.splat = shufflevector <8 x i64> %.splatinsert, <8 x i64> poison, <8 x i32> zeroinitializer
  %induction = add <8 x i64> %.splat, <i64 0, i64 1, i64 2, i64 3, i64 4, i64 5, i64 6, i64 7>
  %71 = add nsw i64 %n.vec, -8
  %72 = lshr exact i64 %71, 3
  %73 = add nuw nsw i64 %72, 1
  %xtraiter = and i64 %73, 3
  %74 = icmp ult i64 %71, 24
  br i1 %74, label %middle.block.unr-lcssa, label %vector.ph.new

vector.ph.new:                                    ; preds = %vector.ph
  %unroll_iter = and i64 %73, 4611686018427387900
  br label %vector.body

vector.body:                                      ; preds = %vector.body, %vector.ph.new
  %vec.ind = phi <8 x i64> [ %induction, %vector.ph.new ], [ %vec.ind.next.3, %vector.body ]
  %niter = phi i64 [ %unroll_iter, %vector.ph.new ], [ %niter.nsub.3, %vector.body ]
  %75 = getelementptr inbounds [4 x %struct.halide_dimension_t], [4 x %struct.halide_dimension_t]* %5, i64 0, <8 x i64> %vec.ind, i32 0
  call void @llvm.masked.scatter.v8i32.v8p0i32(<8 x i32> zeroinitializer, <8 x i32*> %75, i32 4, <8 x i1> <i1 true, i1 true, i1 true, i1 true, i1 true, i1 true, i1 true, i1 true>), !tbaa !82
  %76 = getelementptr inbounds [4 x %struct.halide_dimension_t], [4 x %struct.halide_dimension_t]* %5, i64 0, <8 x i64> %vec.ind, i32 1
  call void @llvm.masked.scatter.v8i32.v8p0i32(<8 x i32> <i32 1, i32 1, i32 1, i32 1, i32 1, i32 1, i32 1, i32 1>, <8 x i32*> %76, i32 4, <8 x i1> <i1 true, i1 true, i1 true, i1 true, i1 true, i1 true, i1 true, i1 true>), !tbaa !79
  %77 = getelementptr inbounds [4 x %struct.halide_dimension_t], [4 x %struct.halide_dimension_t]* %5, i64 0, <8 x i64> %vec.ind, i32 2
  call void @llvm.masked.scatter.v8i32.v8p0i32(<8 x i32> zeroinitializer, <8 x i32*> %77, i32 4, <8 x i1> <i1 true, i1 true, i1 true, i1 true, i1 true, i1 true, i1 true, i1 true>), !tbaa !83
  %vec.ind.next = add <8 x i64> %vec.ind, <i64 8, i64 8, i64 8, i64 8, i64 8, i64 8, i64 8, i64 8>
  %78 = getelementptr inbounds [4 x %struct.halide_dimension_t], [4 x %struct.halide_dimension_t]* %5, i64 0, <8 x i64> %vec.ind.next, i32 0
  call void @llvm.masked.scatter.v8i32.v8p0i32(<8 x i32> zeroinitializer, <8 x i32*> %78, i32 4, <8 x i1> <i1 true, i1 true, i1 true, i1 true, i1 true, i1 true, i1 true, i1 true>), !tbaa !82
  %79 = getelementptr inbounds [4 x %struct.halide_dimension_t], [4 x %struct.halide_dimension_t]* %5, i64 0, <8 x i64> %vec.ind.next, i32 1
  call void @llvm.masked.scatter.v8i32.v8p0i32(<8 x i32> <i32 1, i32 1, i32 1, i32 1, i32 1, i32 1, i32 1, i32 1>, <8 x i32*> %79, i32 4, <8 x i1> <i1 true, i1 true, i1 true, i1 true, i1 true, i1 true, i1 true, i1 true>), !tbaa !79
  %80 = getelementptr inbounds [4 x %struct.halide_dimension_t], [4 x %struct.halide_dimension_t]* %5, i64 0, <8 x i64> %vec.ind.next, i32 2
  call void @llvm.masked.scatter.v8i32.v8p0i32(<8 x i32> zeroinitializer, <8 x i32*> %80, i32 4, <8 x i1> <i1 true, i1 true, i1 true, i1 true, i1 true, i1 true, i1 true, i1 true>), !tbaa !83
  %vec.ind.next.1 = add <8 x i64> %vec.ind, <i64 16, i64 16, i64 16, i64 16, i64 16, i64 16, i64 16, i64 16>
  %81 = getelementptr inbounds [4 x %struct.halide_dimension_t], [4 x %struct.halide_dimension_t]* %5, i64 0, <8 x i64> %vec.ind.next.1, i32 0
  call void @llvm.masked.scatter.v8i32.v8p0i32(<8 x i32> zeroinitializer, <8 x i32*> %81, i32 4, <8 x i1> <i1 true, i1 true, i1 true, i1 true, i1 true, i1 true, i1 true, i1 true>), !tbaa !82
  %82 = getelementptr inbounds [4 x %struct.halide_dimension_t], [4 x %struct.halide_dimension_t]* %5, i64 0, <8 x i64> %vec.ind.next.1, i32 1
  call void @llvm.masked.scatter.v8i32.v8p0i32(<8 x i32> <i32 1, i32 1, i32 1, i32 1, i32 1, i32 1, i32 1, i32 1>, <8 x i32*> %82, i32 4, <8 x i1> <i1 true, i1 true, i1 true, i1 true, i1 true, i1 true, i1 true, i1 true>), !tbaa !79
  %83 = getelementptr inbounds [4 x %struct.halide_dimension_t], [4 x %struct.halide_dimension_t]* %5, i64 0, <8 x i64> %vec.ind.next.1, i32 2
  call void @llvm.masked.scatter.v8i32.v8p0i32(<8 x i32> zeroinitializer, <8 x i32*> %83, i32 4, <8 x i1> <i1 true, i1 true, i1 true, i1 true, i1 true, i1 true, i1 true, i1 true>), !tbaa !83
  %vec.ind.next.2 = add <8 x i64> %vec.ind, <i64 24, i64 24, i64 24, i64 24, i64 24, i64 24, i64 24, i64 24>
  %84 = getelementptr inbounds [4 x %struct.halide_dimension_t], [4 x %struct.halide_dimension_t]* %5, i64 0, <8 x i64> %vec.ind.next.2, i32 0
  call void @llvm.masked.scatter.v8i32.v8p0i32(<8 x i32> zeroinitializer, <8 x i32*> %84, i32 4, <8 x i1> <i1 true, i1 true, i1 true, i1 true, i1 true, i1 true, i1 true, i1 true>), !tbaa !82
  %85 = getelementptr inbounds [4 x %struct.halide_dimension_t], [4 x %struct.halide_dimension_t]* %5, i64 0, <8 x i64> %vec.ind.next.2, i32 1
  call void @llvm.masked.scatter.v8i32.v8p0i32(<8 x i32> <i32 1, i32 1, i32 1, i32 1, i32 1, i32 1, i32 1, i32 1>, <8 x i32*> %85, i32 4, <8 x i1> <i1 true, i1 true, i1 true, i1 true, i1 true, i1 true, i1 true, i1 true>), !tbaa !79
  %86 = getelementptr inbounds [4 x %struct.halide_dimension_t], [4 x %struct.halide_dimension_t]* %5, i64 0, <8 x i64> %vec.ind.next.2, i32 2
  call void @llvm.masked.scatter.v8i32.v8p0i32(<8 x i32> zeroinitializer, <8 x i32*> %86, i32 4, <8 x i1> <i1 true, i1 true, i1 true, i1 true, i1 true, i1 true, i1 true, i1 true>), !tbaa !83
  %vec.ind.next.3 = add <8 x i64> %vec.ind, <i64 32, i64 32, i64 32, i64 32, i64 32, i64 32, i64 32, i64 32>
  %niter.nsub.3 = add i64 %niter, -4
  %niter.ncmp.3 = icmp eq i64 %niter.nsub.3, 0
  br i1 %niter.ncmp.3, label %middle.block.unr-lcssa, label %vector.body, !llvm.loop !84

middle.block.unr-lcssa:                           ; preds = %vector.body, %vector.ph
  %vec.ind.unr = phi <8 x i64> [ %induction, %vector.ph ], [ %vec.ind.next.3, %vector.body ]
  %lcmp.mod.not = icmp eq i64 %xtraiter, 0
  br i1 %lcmp.mod.not, label %middle.block, label %vector.body.epil

vector.body.epil:                                 ; preds = %middle.block.unr-lcssa, %vector.body.epil
  %vec.ind.epil = phi <8 x i64> [ %vec.ind.next.epil, %vector.body.epil ], [ %vec.ind.unr, %middle.block.unr-lcssa ]
  %epil.iter = phi i64 [ %epil.iter.sub, %vector.body.epil ], [ %xtraiter, %middle.block.unr-lcssa ]
  %87 = getelementptr inbounds [4 x %struct.halide_dimension_t], [4 x %struct.halide_dimension_t]* %5, i64 0, <8 x i64> %vec.ind.epil, i32 0
  call void @llvm.masked.scatter.v8i32.v8p0i32(<8 x i32> zeroinitializer, <8 x i32*> %87, i32 4, <8 x i1> <i1 true, i1 true, i1 true, i1 true, i1 true, i1 true, i1 true, i1 true>), !tbaa !82
  %88 = getelementptr inbounds [4 x %struct.halide_dimension_t], [4 x %struct.halide_dimension_t]* %5, i64 0, <8 x i64> %vec.ind.epil, i32 1
  call void @llvm.masked.scatter.v8i32.v8p0i32(<8 x i32> <i32 1, i32 1, i32 1, i32 1, i32 1, i32 1, i32 1, i32 1>, <8 x i32*> %88, i32 4, <8 x i1> <i1 true, i1 true, i1 true, i1 true, i1 true, i1 true, i1 true, i1 true>), !tbaa !79
  %89 = getelementptr inbounds [4 x %struct.halide_dimension_t], [4 x %struct.halide_dimension_t]* %5, i64 0, <8 x i64> %vec.ind.epil, i32 2
  call void @llvm.masked.scatter.v8i32.v8p0i32(<8 x i32> zeroinitializer, <8 x i32*> %89, i32 4, <8 x i1> <i1 true, i1 true, i1 true, i1 true, i1 true, i1 true, i1 true, i1 true>), !tbaa !83
  %vec.ind.next.epil = add <8 x i64> %vec.ind.epil, <i64 8, i64 8, i64 8, i64 8, i64 8, i64 8, i64 8, i64 8>
  %epil.iter.sub = add i64 %epil.iter, -1
  %epil.iter.cmp.not = icmp eq i64 %epil.iter.sub, 0
  br i1 %epil.iter.cmp.not, label %middle.block, label %vector.body.epil, !llvm.loop !86

middle.block:                                     ; preds = %vector.body.epil, %middle.block.unr-lcssa
  %cmp.n = icmp eq i64 %70, %n.vec
  br i1 %cmp.n, label %.loopexit32, label %scalar.ph.preheader

scalar.ph.preheader:                              ; preds = %65, %middle.block
  %.ph292 = phi i64 [ %67, %65 ], [ %ind.end, %middle.block ]
  br label %scalar.ph

.loopexit32:                                      ; preds = %scalar.ph, %middle.block, %63
  %90 = phi i64 [ %.lcssa293, %63 ], [ %66, %middle.block ], [ %66, %scalar.ph ]
  %91 = getelementptr inbounds %struct.halide_buffer_t, %struct.halide_buffer_t* %3, i64 0, i32 4, i32 1
  %92 = load i8, i8* %91, align 1, !tbaa !28
  %93 = zext i8 %92 to i32
  %94 = add nuw nsw i32 %93, 7
  %95 = lshr i32 %94, 3
  %96 = tail call zeroext i1 @_ZN6Halide7Runtime8Internal9ends_withEPKcS3_(i8* %1, i8* getelementptr inbounds ([6 x i8], [6 x i8]* @.str.3.38, i64 0, i64 0)) #17
  br i1 %96, label %106, label %104

scalar.ph:                                        ; preds = %scalar.ph.preheader, %scalar.ph
  %97 = phi i64 [ %101, %scalar.ph ], [ %.ph292, %scalar.ph.preheader ]
  %98 = getelementptr inbounds [4 x %struct.halide_dimension_t], [4 x %struct.halide_dimension_t]* %5, i64 0, i64 %97, i32 0
  store i32 0, i32* %98, align 4, !tbaa !82
  %99 = getelementptr inbounds [4 x %struct.halide_dimension_t], [4 x %struct.halide_dimension_t]* %5, i64 0, i64 %97, i32 1
  store i32 1, i32* %99, align 4, !tbaa !79
  %100 = getelementptr inbounds [4 x %struct.halide_dimension_t], [4 x %struct.halide_dimension_t]* %5, i64 0, i64 %97, i32 2
  store i32 0, i32* %100, align 4, !tbaa !83
  %101 = add nsw i64 %97, 1
  %102 = trunc i64 %101 to i32
  %103 = icmp eq i32 %102, 4
  br i1 %103, label %.loopexit32, label %scalar.ph, !llvm.loop !88

104:                                              ; preds = %.loopexit32
  %105 = tail call zeroext i1 @_ZN6Halide7Runtime8Internal9ends_withEPKcS3_(i8* %1, i8* getelementptr inbounds ([5 x i8], [5 x i8]* @.str.4.39, i64 0, i64 0)) #17
  br i1 %105, label %106, label %242

106:                                              ; preds = %104, %.loopexit32
  %107 = load i32, i32* %40, align 4, !tbaa !79
  %108 = load i32, i32* %42, align 4, !tbaa !79
  %109 = load i32, i32* %47, align 4, !tbaa !79
  %110 = icmp ult i32 %109, 2
  %111 = load i32, i32* %45, align 4, !tbaa !79
  %112 = icmp slt i32 %111, 5
  %113 = and i1 %110, %112
  %114 = select i1 %113, i32 1, i32 %111
  %115 = select i1 %113, i32 %111, i32 %109
  %116 = bitcast %"struct.Halide::Runtime::Internal::halide_tiff_header"* %6 to i8*
  call void @llvm.lifetime.start.p0i8(i64 210, i8* nonnull %116) #18
  %117 = getelementptr inbounds %"struct.Halide::Runtime::Internal::halide_tiff_header", %"struct.Halide::Runtime::Internal::halide_tiff_header"* %6, i64 0, i32 0
  store i16 18761, i16* %117, align 2, !tbaa !90
  %118 = getelementptr inbounds %"struct.Halide::Runtime::Internal::halide_tiff_header", %"struct.Halide::Runtime::Internal::halide_tiff_header"* %6, i64 0, i32 1
  store i16 42, i16* %118, align 2, !tbaa !92
  %119 = getelementptr inbounds %"struct.Halide::Runtime::Internal::halide_tiff_header", %"struct.Halide::Runtime::Internal::halide_tiff_header"* %6, i64 0, i32 2
  store i32 8, i32* %119, align 2, !tbaa !93
  %120 = getelementptr inbounds %"struct.Halide::Runtime::Internal::halide_tiff_header", %"struct.Halide::Runtime::Internal::halide_tiff_header"* %6, i64 0, i32 3
  store i16 15, i16* %120, align 2, !tbaa !94
  %121 = getelementptr inbounds %"struct.Halide::Runtime::Internal::halide_tiff_header", %"struct.Halide::Runtime::Internal::halide_tiff_header"* %6, i64 0, i32 4, i64 0, i32 0
  store i16 256, i16* %121, align 2, !tbaa !95
  %122 = getelementptr inbounds %"struct.Halide::Runtime::Internal::halide_tiff_header", %"struct.Halide::Runtime::Internal::halide_tiff_header"* %6, i64 0, i32 4, i64 0, i32 1
  store i16 4, i16* %122, align 2, !tbaa !97
  %123 = getelementptr inbounds %"struct.Halide::Runtime::Internal::halide_tiff_header", %"struct.Halide::Runtime::Internal::halide_tiff_header"* %6, i64 0, i32 4, i64 0, i32 2
  store i32 1, i32* %123, align 2, !tbaa !98
  %124 = getelementptr inbounds %"struct.Halide::Runtime::Internal::halide_tiff_header", %"struct.Halide::Runtime::Internal::halide_tiff_header"* %6, i64 0, i32 4, i64 0, i32 3, i32 0
  store i32 %107, i32* %124, align 2, !tbaa !38
  %125 = getelementptr inbounds %"struct.Halide::Runtime::Internal::halide_tiff_header", %"struct.Halide::Runtime::Internal::halide_tiff_header"* %6, i64 0, i32 4, i64 1, i32 0
  store i16 257, i16* %125, align 2, !tbaa !95
  %126 = getelementptr inbounds %"struct.Halide::Runtime::Internal::halide_tiff_header", %"struct.Halide::Runtime::Internal::halide_tiff_header"* %6, i64 0, i32 4, i64 1, i32 1
  store i16 4, i16* %126, align 2, !tbaa !97
  %127 = getelementptr inbounds %"struct.Halide::Runtime::Internal::halide_tiff_header", %"struct.Halide::Runtime::Internal::halide_tiff_header"* %6, i64 0, i32 4, i64 1, i32 2
  store i32 1, i32* %127, align 2, !tbaa !98
  %128 = getelementptr inbounds %"struct.Halide::Runtime::Internal::halide_tiff_header", %"struct.Halide::Runtime::Internal::halide_tiff_header"* %6, i64 0, i32 4, i64 1, i32 3, i32 0
  store i32 %108, i32* %128, align 2, !tbaa !38
  %129 = trunc i32 %94 to i16
  %130 = and i16 %129, 504
  %131 = getelementptr inbounds %"struct.Halide::Runtime::Internal::halide_tiff_header", %"struct.Halide::Runtime::Internal::halide_tiff_header"* %6, i64 0, i32 4, i64 2, i32 0
  store i16 258, i16* %131, align 2, !tbaa !95
  %132 = getelementptr inbounds %"struct.Halide::Runtime::Internal::halide_tiff_header", %"struct.Halide::Runtime::Internal::halide_tiff_header"* %6, i64 0, i32 4, i64 2, i32 1
  store i16 3, i16* %132, align 2, !tbaa !97
  %133 = getelementptr inbounds %"struct.Halide::Runtime::Internal::halide_tiff_header", %"struct.Halide::Runtime::Internal::halide_tiff_header"* %6, i64 0, i32 4, i64 2, i32 2
  store i32 1, i32* %133, align 2, !tbaa !98
  %134 = getelementptr inbounds %"struct.Halide::Runtime::Internal::halide_tiff_header", %"struct.Halide::Runtime::Internal::halide_tiff_header"* %6, i64 0, i32 4, i64 2, i32 3
  %135 = bitcast %"class.Halide::Runtime::Internal::SharedExclusiveSpinLock"* %134 to i16*
  store i16 %130, i16* %135, align 2, !tbaa !38
  %136 = getelementptr inbounds %"struct.Halide::Runtime::Internal::halide_tiff_header", %"struct.Halide::Runtime::Internal::halide_tiff_header"* %6, i64 0, i32 4, i64 3, i32 0
  store i16 259, i16* %136, align 2, !tbaa !95
  %137 = getelementptr inbounds %"struct.Halide::Runtime::Internal::halide_tiff_header", %"struct.Halide::Runtime::Internal::halide_tiff_header"* %6, i64 0, i32 4, i64 3, i32 1
  store i16 3, i16* %137, align 2, !tbaa !97
  %138 = getelementptr inbounds %"struct.Halide::Runtime::Internal::halide_tiff_header", %"struct.Halide::Runtime::Internal::halide_tiff_header"* %6, i64 0, i32 4, i64 3, i32 2
  store i32 1, i32* %138, align 2, !tbaa !98
  %139 = getelementptr inbounds %"struct.Halide::Runtime::Internal::halide_tiff_header", %"struct.Halide::Runtime::Internal::halide_tiff_header"* %6, i64 0, i32 4, i64 3, i32 3
  %140 = bitcast %"class.Halide::Runtime::Internal::SharedExclusiveSpinLock"* %139 to i16*
  store i16 1, i16* %140, align 2, !tbaa !38
  %141 = icmp sgt i32 %115, 2
  %142 = select i1 %141, i16 2, i16 1
  %143 = getelementptr inbounds %"struct.Halide::Runtime::Internal::halide_tiff_header", %"struct.Halide::Runtime::Internal::halide_tiff_header"* %6, i64 0, i32 4, i64 4, i32 0
  store i16 262, i16* %143, align 2, !tbaa !95
  %144 = getelementptr inbounds %"struct.Halide::Runtime::Internal::halide_tiff_header", %"struct.Halide::Runtime::Internal::halide_tiff_header"* %6, i64 0, i32 4, i64 4, i32 1
  store i16 3, i16* %144, align 2, !tbaa !97
  %145 = getelementptr inbounds %"struct.Halide::Runtime::Internal::halide_tiff_header", %"struct.Halide::Runtime::Internal::halide_tiff_header"* %6, i64 0, i32 4, i64 4, i32 2
  store i32 1, i32* %145, align 2, !tbaa !98
  %146 = getelementptr inbounds %"struct.Halide::Runtime::Internal::halide_tiff_header", %"struct.Halide::Runtime::Internal::halide_tiff_header"* %6, i64 0, i32 4, i64 4, i32 3
  %147 = bitcast %"class.Halide::Runtime::Internal::SharedExclusiveSpinLock"* %146 to i16*
  store i16 %142, i16* %147, align 2, !tbaa !38
  %148 = getelementptr inbounds %"struct.Halide::Runtime::Internal::halide_tiff_header", %"struct.Halide::Runtime::Internal::halide_tiff_header"* %6, i64 0, i32 4, i64 5, i32 0
  store i16 273, i16* %148, align 2, !tbaa !95
  %149 = getelementptr inbounds %"struct.Halide::Runtime::Internal::halide_tiff_header", %"struct.Halide::Runtime::Internal::halide_tiff_header"* %6, i64 0, i32 4, i64 5, i32 1
  store i16 4, i16* %149, align 2, !tbaa !97
  %150 = getelementptr inbounds %"struct.Halide::Runtime::Internal::halide_tiff_header", %"struct.Halide::Runtime::Internal::halide_tiff_header"* %6, i64 0, i32 4, i64 5, i32 2
  store i32 %115, i32* %150, align 2, !tbaa !98
  %151 = getelementptr inbounds %"struct.Halide::Runtime::Internal::halide_tiff_header", %"struct.Halide::Runtime::Internal::halide_tiff_header"* %6, i64 0, i32 4, i64 5, i32 3, i32 0
  store i32 210, i32* %151, align 2, !tbaa !38
  %152 = trunc i32 %115 to i16
  %153 = getelementptr inbounds %"struct.Halide::Runtime::Internal::halide_tiff_header", %"struct.Halide::Runtime::Internal::halide_tiff_header"* %6, i64 0, i32 4, i64 6, i32 0
  store i16 277, i16* %153, align 2, !tbaa !95
  %154 = getelementptr inbounds %"struct.Halide::Runtime::Internal::halide_tiff_header", %"struct.Halide::Runtime::Internal::halide_tiff_header"* %6, i64 0, i32 4, i64 6, i32 1
  store i16 3, i16* %154, align 2, !tbaa !97
  %155 = getelementptr inbounds %"struct.Halide::Runtime::Internal::halide_tiff_header", %"struct.Halide::Runtime::Internal::halide_tiff_header"* %6, i64 0, i32 4, i64 6, i32 2
  store i32 1, i32* %155, align 2, !tbaa !98
  %156 = getelementptr inbounds %"struct.Halide::Runtime::Internal::halide_tiff_header", %"struct.Halide::Runtime::Internal::halide_tiff_header"* %6, i64 0, i32 4, i64 6, i32 3
  %157 = bitcast %"class.Halide::Runtime::Internal::SharedExclusiveSpinLock"* %156 to i16*
  store i16 %152, i16* %157, align 2, !tbaa !38
  %158 = getelementptr inbounds %"struct.Halide::Runtime::Internal::halide_tiff_header", %"struct.Halide::Runtime::Internal::halide_tiff_header"* %6, i64 0, i32 4, i64 7, i32 0
  store i16 278, i16* %158, align 2, !tbaa !95
  %159 = getelementptr inbounds %"struct.Halide::Runtime::Internal::halide_tiff_header", %"struct.Halide::Runtime::Internal::halide_tiff_header"* %6, i64 0, i32 4, i64 7, i32 1
  store i16 4, i16* %159, align 2, !tbaa !97
  %160 = getelementptr inbounds %"struct.Halide::Runtime::Internal::halide_tiff_header", %"struct.Halide::Runtime::Internal::halide_tiff_header"* %6, i64 0, i32 4, i64 7, i32 2
  store i32 1, i32* %160, align 2, !tbaa !98
  %161 = getelementptr inbounds %"struct.Halide::Runtime::Internal::halide_tiff_header", %"struct.Halide::Runtime::Internal::halide_tiff_header"* %6, i64 0, i32 4, i64 7, i32 3, i32 0
  store i32 %108, i32* %161, align 2, !tbaa !38
  %162 = icmp eq i32 %115, 1
  %163 = trunc i64 %90 to i32
  %164 = mul i32 %95, %163
  %165 = shl i32 %115, 2
  %166 = add i32 %165, 210
  %167 = select i1 %162, i32 %164, i32 %166
  %168 = getelementptr inbounds %"struct.Halide::Runtime::Internal::halide_tiff_header", %"struct.Halide::Runtime::Internal::halide_tiff_header"* %6, i64 0, i32 4, i64 8, i32 0
  store i16 279, i16* %168, align 2
  %169 = getelementptr inbounds %"struct.Halide::Runtime::Internal::halide_tiff_header", %"struct.Halide::Runtime::Internal::halide_tiff_header"* %6, i64 0, i32 4, i64 8, i32 1
  store i16 4, i16* %169, align 2
  %170 = getelementptr inbounds %"struct.Halide::Runtime::Internal::halide_tiff_header", %"struct.Halide::Runtime::Internal::halide_tiff_header"* %6, i64 0, i32 4, i64 8, i32 2
  store i32 %115, i32* %170, align 2
  %171 = getelementptr inbounds %"struct.Halide::Runtime::Internal::halide_tiff_header", %"struct.Halide::Runtime::Internal::halide_tiff_header"* %6, i64 0, i32 4, i64 8, i32 3, i32 0
  store i32 %167, i32* %171, align 2
  %172 = getelementptr inbounds %"struct.Halide::Runtime::Internal::halide_tiff_header", %"struct.Halide::Runtime::Internal::halide_tiff_header"* %6, i64 0, i32 4, i64 9, i32 0
  store i16 282, i16* %172, align 2, !tbaa !95
  %173 = getelementptr inbounds %"struct.Halide::Runtime::Internal::halide_tiff_header", %"struct.Halide::Runtime::Internal::halide_tiff_header"* %6, i64 0, i32 4, i64 9, i32 1
  store i16 5, i16* %173, align 2, !tbaa !97
  %174 = getelementptr inbounds %"struct.Halide::Runtime::Internal::halide_tiff_header", %"struct.Halide::Runtime::Internal::halide_tiff_header"* %6, i64 0, i32 4, i64 9, i32 2
  store i32 1, i32* %174, align 2, !tbaa !98
  %175 = getelementptr inbounds %"struct.Halide::Runtime::Internal::halide_tiff_header", %"struct.Halide::Runtime::Internal::halide_tiff_header"* %6, i64 0, i32 4, i64 9, i32 3, i32 0
  store i32 194, i32* %175, align 2, !tbaa !38
  %176 = getelementptr inbounds %"struct.Halide::Runtime::Internal::halide_tiff_header", %"struct.Halide::Runtime::Internal::halide_tiff_header"* %6, i64 0, i32 4, i64 10, i32 0
  store i16 283, i16* %176, align 2, !tbaa !95
  %177 = getelementptr inbounds %"struct.Halide::Runtime::Internal::halide_tiff_header", %"struct.Halide::Runtime::Internal::halide_tiff_header"* %6, i64 0, i32 4, i64 10, i32 1
  store i16 5, i16* %177, align 2, !tbaa !97
  %178 = getelementptr inbounds %"struct.Halide::Runtime::Internal::halide_tiff_header", %"struct.Halide::Runtime::Internal::halide_tiff_header"* %6, i64 0, i32 4, i64 10, i32 2
  store i32 1, i32* %178, align 2, !tbaa !98
  %179 = getelementptr inbounds %"struct.Halide::Runtime::Internal::halide_tiff_header", %"struct.Halide::Runtime::Internal::halide_tiff_header"* %6, i64 0, i32 4, i64 10, i32 3, i32 0
  store i32 202, i32* %179, align 2, !tbaa !38
  %180 = getelementptr inbounds %"struct.Halide::Runtime::Internal::halide_tiff_header", %"struct.Halide::Runtime::Internal::halide_tiff_header"* %6, i64 0, i32 4, i64 11, i32 0
  store i16 284, i16* %180, align 2, !tbaa !95
  %181 = getelementptr inbounds %"struct.Halide::Runtime::Internal::halide_tiff_header", %"struct.Halide::Runtime::Internal::halide_tiff_header"* %6, i64 0, i32 4, i64 11, i32 1
  store i16 3, i16* %181, align 2, !tbaa !97
  %182 = getelementptr inbounds %"struct.Halide::Runtime::Internal::halide_tiff_header", %"struct.Halide::Runtime::Internal::halide_tiff_header"* %6, i64 0, i32 4, i64 11, i32 2
  store i32 1, i32* %182, align 2, !tbaa !98
  %183 = getelementptr inbounds %"struct.Halide::Runtime::Internal::halide_tiff_header", %"struct.Halide::Runtime::Internal::halide_tiff_header"* %6, i64 0, i32 4, i64 11, i32 3
  %184 = bitcast %"class.Halide::Runtime::Internal::SharedExclusiveSpinLock"* %183 to i16*
  store i16 2, i16* %184, align 2, !tbaa !38
  %185 = getelementptr inbounds %"struct.Halide::Runtime::Internal::halide_tiff_header", %"struct.Halide::Runtime::Internal::halide_tiff_header"* %6, i64 0, i32 4, i64 12, i32 0
  store i16 296, i16* %185, align 2, !tbaa !95
  %186 = getelementptr inbounds %"struct.Halide::Runtime::Internal::halide_tiff_header", %"struct.Halide::Runtime::Internal::halide_tiff_header"* %6, i64 0, i32 4, i64 12, i32 1
  store i16 3, i16* %186, align 2, !tbaa !97
  %187 = getelementptr inbounds %"struct.Halide::Runtime::Internal::halide_tiff_header", %"struct.Halide::Runtime::Internal::halide_tiff_header"* %6, i64 0, i32 4, i64 12, i32 2
  store i32 1, i32* %187, align 2, !tbaa !98
  %188 = getelementptr inbounds %"struct.Halide::Runtime::Internal::halide_tiff_header", %"struct.Halide::Runtime::Internal::halide_tiff_header"* %6, i64 0, i32 4, i64 12, i32 3
  %189 = bitcast %"class.Halide::Runtime::Internal::SharedExclusiveSpinLock"* %188 to i16*
  store i16 1, i16* %189, align 2, !tbaa !38
  %190 = sext i32 %2 to i64
  %191 = getelementptr inbounds [10 x i16], [10 x i16]* @_ZN6Halide7Runtime8Internal30pixel_type_to_tiff_sample_typeE, i64 0, i64 %190
  %192 = load i16, i16* %191, align 2, !tbaa !59
  %193 = getelementptr inbounds %"struct.Halide::Runtime::Internal::halide_tiff_header", %"struct.Halide::Runtime::Internal::halide_tiff_header"* %6, i64 0, i32 4, i64 13, i32 0
  store i16 339, i16* %193, align 2, !tbaa !95
  %194 = getelementptr inbounds %"struct.Halide::Runtime::Internal::halide_tiff_header", %"struct.Halide::Runtime::Internal::halide_tiff_header"* %6, i64 0, i32 4, i64 13, i32 1
  store i16 3, i16* %194, align 2, !tbaa !97
  %195 = getelementptr inbounds %"struct.Halide::Runtime::Internal::halide_tiff_header", %"struct.Halide::Runtime::Internal::halide_tiff_header"* %6, i64 0, i32 4, i64 13, i32 2
  store i32 1, i32* %195, align 2, !tbaa !98
  %196 = getelementptr inbounds %"struct.Halide::Runtime::Internal::halide_tiff_header", %"struct.Halide::Runtime::Internal::halide_tiff_header"* %6, i64 0, i32 4, i64 13, i32 3
  %197 = bitcast %"class.Halide::Runtime::Internal::SharedExclusiveSpinLock"* %196 to i16*
  store i16 %192, i16* %197, align 2, !tbaa !38
  %198 = getelementptr inbounds %"struct.Halide::Runtime::Internal::halide_tiff_header", %"struct.Halide::Runtime::Internal::halide_tiff_header"* %6, i64 0, i32 4, i64 14, i32 0
  store i16 -32539, i16* %198, align 2, !tbaa !95
  %199 = getelementptr inbounds %"struct.Halide::Runtime::Internal::halide_tiff_header", %"struct.Halide::Runtime::Internal::halide_tiff_header"* %6, i64 0, i32 4, i64 14, i32 1
  store i16 4, i16* %199, align 2, !tbaa !97
  %200 = getelementptr inbounds %"struct.Halide::Runtime::Internal::halide_tiff_header", %"struct.Halide::Runtime::Internal::halide_tiff_header"* %6, i64 0, i32 4, i64 14, i32 2
  store i32 1, i32* %200, align 2, !tbaa !98
  %201 = getelementptr inbounds %"struct.Halide::Runtime::Internal::halide_tiff_header", %"struct.Halide::Runtime::Internal::halide_tiff_header"* %6, i64 0, i32 4, i64 14, i32 3, i32 0
  store i32 %114, i32* %201, align 2, !tbaa !38
  %202 = getelementptr inbounds %"struct.Halide::Runtime::Internal::halide_tiff_header", %"struct.Halide::Runtime::Internal::halide_tiff_header"* %6, i64 0, i32 5
  %203 = bitcast i32* %202 to <4 x i32>*
  store <4 x i32> <i32 0, i32 1, i32 1, i32 1>, <4 x i32>* %203, align 2, !tbaa !16
  %204 = getelementptr inbounds %"struct.Halide::Runtime::Internal::halide_tiff_header", %"struct.Halide::Runtime::Internal::halide_tiff_header"* %6, i64 0, i32 7, i64 1
  store i32 1, i32* %204, align 2, !tbaa !16
  %205 = call i64 @fwrite(i8* nonnull %116, i64 210, i64 1, i8* nonnull %35) #16
  %206 = icmp eq i64 %205, 0
  br i1 %206, label %240, label %207

207:                                              ; preds = %106
  %208 = icmp sgt i32 %115, 1
  br i1 %208, label %209, label %239

209:                                              ; preds = %207
  %210 = bitcast i32* %7 to i8*
  call void @llvm.lifetime.start.p0i8(i64 4, i8* nonnull %210) #18
  %211 = shl i32 %115, 3
  %212 = add i32 %211, 210
  store i32 %212, i32* %7, align 4, !tbaa !16
  %213 = mul i32 %114, %95
  br label %214

214:                                              ; preds = %218, %209
  %215 = phi i32 [ 0, %209 ], [ %225, %218 ]
  %216 = call i64 @fwrite(i8* nonnull %210, i64 4, i64 1, i8* nonnull %35) #16
  %217 = icmp eq i64 %216, 0
  br i1 %217, label %.loopexit26, label %218

218:                                              ; preds = %214
  %219 = load i32, i32* %40, align 4, !tbaa !79
  %220 = load i32, i32* %42, align 4, !tbaa !79
  %221 = mul i32 %213, %219
  %222 = mul i32 %221, %220
  %223 = load i32, i32* %7, align 4, !tbaa !16
  %224 = add nsw i32 %222, %223
  store i32 %224, i32* %7, align 4, !tbaa !16
  %225 = add nuw nsw i32 %215, 1
  %226 = icmp eq i32 %225, %115
  br i1 %226, label %227, label %214, !llvm.loop !99

227:                                              ; preds = %218
  %228 = bitcast i32* %8 to i8*
  call void @llvm.lifetime.start.p0i8(i64 4, i8* nonnull %228) #18
  store i32 %222, i32* %8, align 4, !tbaa !16
  br label %231

229:                                              ; preds = %231
  %230 = icmp eq i32 %235, %115
  br i1 %230, label %238, label %231, !llvm.loop !100

231:                                              ; preds = %227, %229
  %232 = phi i32 [ %235, %229 ], [ 0, %227 ]
  %233 = call i64 @fwrite(i8* nonnull %228, i64 4, i64 1, i8* nonnull %35) #16
  %234 = icmp eq i64 %233, 0
  %235 = add nuw nsw i32 %232, 1
  br i1 %234, label %236, label %229

236:                                              ; preds = %231
  call void @llvm.lifetime.end.p0i8(i64 4, i8* nonnull %228) #18
  br label %.loopexit26

.loopexit26:                                      ; preds = %214, %236
  %237 = phi i32 [ -5, %236 ], [ -4, %214 ]
  call void @llvm.lifetime.end.p0i8(i64 4, i8* nonnull %210) #18
  br label %240

238:                                              ; preds = %229
  call void @llvm.lifetime.end.p0i8(i64 4, i8* nonnull %228) #18
  call void @llvm.lifetime.end.p0i8(i64 4, i8* nonnull %210) #18
  br label %239

239:                                              ; preds = %238, %207
  call void @llvm.lifetime.end.p0i8(i64 210, i8* nonnull %116) #18
  br label %704

240:                                              ; preds = %.loopexit26, %106
  %241 = phi i32 [ -3, %106 ], [ %237, %.loopexit26 ]
  call void @llvm.lifetime.end.p0i8(i64 210, i8* nonnull %116) #18
  br label %922

242:                                              ; preds = %104
  %243 = tail call zeroext i1 @_ZN6Halide7Runtime8Internal9ends_withEPKcS3_(i8* %1, i8* getelementptr inbounds ([5 x i8], [5 x i8]* @.str.5.40, i64 0, i64 0)) #17
  br i1 %243, label %.preheader31, label %691

.preheader31:                                     ; preds = %242, %.preheader31
  %244 = phi i8* [ %247, %.preheader31 ], [ %1, %242 ]
  %245 = load i8, i8* %244, align 1, !tbaa !38
  %246 = icmp eq i8 %245, 0
  %247 = getelementptr inbounds i8, i8* %244, i64 1
  br i1 %246, label %.preheader30, label %.preheader31, !llvm.loop !101

248:                                              ; preds = %.preheader30
  %249 = ptrtoint i8* %252 to i64
  %250 = ptrtoint i8* %1 to i64
  %251 = sub i64 %250, %249
  br label %256

.preheader30:                                     ; preds = %.preheader31, %.preheader30
  %252 = phi i8* [ %253, %.preheader30 ], [ %244, %.preheader31 ]
  %253 = getelementptr inbounds i8, i8* %252, i64 -1
  %254 = load i8, i8* %253, align 1, !tbaa !38
  %255 = icmp eq i8 %254, 46
  br i1 %255, label %248, label %.preheader30, !llvm.loop !102

256:                                              ; preds = %260, %248
  %257 = phi i64 [ %261, %260 ], [ -1, %248 ]
  %258 = getelementptr inbounds i8, i8* %252, i64 %257
  %259 = icmp eq i8* %258, %1
  br i1 %259, label %265, label %260

260:                                              ; preds = %256
  %261 = add nsw i64 %257, -1
  %262 = getelementptr inbounds i8, i8* %252, i64 %261
  %263 = load i8, i8* %262, align 1, !tbaa !38
  %264 = icmp eq i8 %263, 47
  br i1 %264, label %265, label %256, !llvm.loop !103

265:                                              ; preds = %260, %256
  %266 = phi i64 [ %251, %256 ], [ %257, %260 ]
  %267 = trunc i64 %266 to i32
  %268 = xor i32 %267, -1
  %269 = getelementptr inbounds [256 x i8], [256 x i8]* %9, i64 0, i64 0
  call void @llvm.lifetime.start.p0i8(i64 256, i8* nonnull %269) #18
  %270 = icmp eq i64 %266, -1
  br i1 %270, label %iter.check, label %.preheader29.preheader

.preheader29.preheader:                           ; preds = %265
  %271 = xor i64 %266, -1
  %min.iters.check101 = icmp ugt i64 %266, -129
  br i1 %min.iters.check101, label %.preheader29.preheader286, label %vector.memcheck

vector.memcheck:                                  ; preds = %.preheader29.preheader
  %272 = xor i64 %266, -1
  %scevgep = getelementptr [256 x i8], [256 x i8]* %9, i64 0, i64 %272
  %scevgep104 = getelementptr i8, i8* %252, i64 %266
  %scevgep105 = getelementptr i8, i8* %252, i64 -1
  %bound0 = icmp ult i8* %10, %scevgep105
  %bound1 = icmp ult i8* %scevgep104, %scevgep
  %found.conflict = and i1 %bound0, %bound1
  br i1 %found.conflict, label %.preheader29.preheader286, label %vector.ph103

vector.ph103:                                     ; preds = %vector.memcheck
  %n.vec107 = and i64 %271, -128
  %ind.end111 = getelementptr [256 x i8], [256 x i8]* %9, i64 0, i64 %n.vec107
  %ind.end113 = add i64 %266, %n.vec107
  %273 = add i64 %n.vec107, -128
  %274 = lshr exact i64 %273, 7
  %275 = add nuw nsw i64 %274, 1
  %xtraiter294 = and i64 %275, 3
  %276 = icmp ult i64 %273, 384
  br i1 %276, label %middle.block98.unr-lcssa, label %vector.ph103.new

vector.ph103.new:                                 ; preds = %vector.ph103
  %unroll_iter297 = and i64 %275, 288230376151711740
  br label %vector.body100

vector.body100:                                   ; preds = %vector.body100, %vector.ph103.new
  %index108 = phi i64 [ 0, %vector.ph103.new ], [ %index.next109.3, %vector.body100 ]
  %niter298 = phi i64 [ %unroll_iter297, %vector.ph103.new ], [ %niter298.nsub.3, %vector.body100 ]
  %next.gep = getelementptr [256 x i8], [256 x i8]* %9, i64 0, i64 %index108
  %offset.idx = add i64 %266, %index108
  %277 = getelementptr inbounds i8, i8* %252, i64 %offset.idx
  %278 = bitcast i8* %277 to <32 x i8>*
  %wide.load = load <32 x i8>, <32 x i8>* %278, align 1, !tbaa !38, !alias.scope !104
  %279 = getelementptr inbounds i8, i8* %277, i64 32
  %280 = bitcast i8* %279 to <32 x i8>*
  %wide.load118 = load <32 x i8>, <32 x i8>* %280, align 1, !tbaa !38, !alias.scope !104
  %281 = getelementptr inbounds i8, i8* %277, i64 64
  %282 = bitcast i8* %281 to <32 x i8>*
  %wide.load119 = load <32 x i8>, <32 x i8>* %282, align 1, !tbaa !38, !alias.scope !104
  %283 = getelementptr inbounds i8, i8* %277, i64 96
  %284 = bitcast i8* %283 to <32 x i8>*
  %wide.load120 = load <32 x i8>, <32 x i8>* %284, align 1, !tbaa !38, !alias.scope !104
  %285 = bitcast i8* %next.gep to <32 x i8>*
  store <32 x i8> %wide.load, <32 x i8>* %285, align 1, !tbaa !38, !alias.scope !107, !noalias !104
  %286 = getelementptr i8, i8* %next.gep, i64 32
  %287 = bitcast i8* %286 to <32 x i8>*
  store <32 x i8> %wide.load118, <32 x i8>* %287, align 1, !tbaa !38, !alias.scope !107, !noalias !104
  %288 = getelementptr i8, i8* %next.gep, i64 64
  %289 = bitcast i8* %288 to <32 x i8>*
  store <32 x i8> %wide.load119, <32 x i8>* %289, align 1, !tbaa !38, !alias.scope !107, !noalias !104
  %290 = getelementptr i8, i8* %next.gep, i64 96
  %291 = bitcast i8* %290 to <32 x i8>*
  store <32 x i8> %wide.load120, <32 x i8>* %291, align 1, !tbaa !38, !alias.scope !107, !noalias !104
  %index.next109 = or i64 %index108, 128
  %next.gep.1 = getelementptr [256 x i8], [256 x i8]* %9, i64 0, i64 %index.next109
  %offset.idx.1 = add i64 %266, %index.next109
  %292 = getelementptr inbounds i8, i8* %252, i64 %offset.idx.1
  %293 = bitcast i8* %292 to <32 x i8>*
  %wide.load.1 = load <32 x i8>, <32 x i8>* %293, align 1, !tbaa !38, !alias.scope !104
  %294 = getelementptr inbounds i8, i8* %292, i64 32
  %295 = bitcast i8* %294 to <32 x i8>*
  %wide.load118.1 = load <32 x i8>, <32 x i8>* %295, align 1, !tbaa !38, !alias.scope !104
  %296 = getelementptr inbounds i8, i8* %292, i64 64
  %297 = bitcast i8* %296 to <32 x i8>*
  %wide.load119.1 = load <32 x i8>, <32 x i8>* %297, align 1, !tbaa !38, !alias.scope !104
  %298 = getelementptr inbounds i8, i8* %292, i64 96
  %299 = bitcast i8* %298 to <32 x i8>*
  %wide.load120.1 = load <32 x i8>, <32 x i8>* %299, align 1, !tbaa !38, !alias.scope !104
  %300 = bitcast i8* %next.gep.1 to <32 x i8>*
  store <32 x i8> %wide.load.1, <32 x i8>* %300, align 1, !tbaa !38, !alias.scope !107, !noalias !104
  %301 = getelementptr i8, i8* %next.gep.1, i64 32
  %302 = bitcast i8* %301 to <32 x i8>*
  store <32 x i8> %wide.load118.1, <32 x i8>* %302, align 1, !tbaa !38, !alias.scope !107, !noalias !104
  %303 = getelementptr i8, i8* %next.gep.1, i64 64
  %304 = bitcast i8* %303 to <32 x i8>*
  store <32 x i8> %wide.load119.1, <32 x i8>* %304, align 1, !tbaa !38, !alias.scope !107, !noalias !104
  %305 = getelementptr i8, i8* %next.gep.1, i64 96
  %306 = bitcast i8* %305 to <32 x i8>*
  store <32 x i8> %wide.load120.1, <32 x i8>* %306, align 1, !tbaa !38, !alias.scope !107, !noalias !104
  %index.next109.1 = or i64 %index108, 256
  %next.gep.2 = getelementptr [256 x i8], [256 x i8]* %9, i64 0, i64 %index.next109.1
  %offset.idx.2 = add i64 %266, %index.next109.1
  %307 = getelementptr inbounds i8, i8* %252, i64 %offset.idx.2
  %308 = bitcast i8* %307 to <32 x i8>*
  %wide.load.2 = load <32 x i8>, <32 x i8>* %308, align 1, !tbaa !38, !alias.scope !104
  %309 = getelementptr inbounds i8, i8* %307, i64 32
  %310 = bitcast i8* %309 to <32 x i8>*
  %wide.load118.2 = load <32 x i8>, <32 x i8>* %310, align 1, !tbaa !38, !alias.scope !104
  %311 = getelementptr inbounds i8, i8* %307, i64 64
  %312 = bitcast i8* %311 to <32 x i8>*
  %wide.load119.2 = load <32 x i8>, <32 x i8>* %312, align 1, !tbaa !38, !alias.scope !104
  %313 = getelementptr inbounds i8, i8* %307, i64 96
  %314 = bitcast i8* %313 to <32 x i8>*
  %wide.load120.2 = load <32 x i8>, <32 x i8>* %314, align 1, !tbaa !38, !alias.scope !104
  %315 = bitcast i8* %next.gep.2 to <32 x i8>*
  store <32 x i8> %wide.load.2, <32 x i8>* %315, align 1, !tbaa !38, !alias.scope !107, !noalias !104
  %316 = getelementptr i8, i8* %next.gep.2, i64 32
  %317 = bitcast i8* %316 to <32 x i8>*
  store <32 x i8> %wide.load118.2, <32 x i8>* %317, align 1, !tbaa !38, !alias.scope !107, !noalias !104
  %318 = getelementptr i8, i8* %next.gep.2, i64 64
  %319 = bitcast i8* %318 to <32 x i8>*
  store <32 x i8> %wide.load119.2, <32 x i8>* %319, align 1, !tbaa !38, !alias.scope !107, !noalias !104
  %320 = getelementptr i8, i8* %next.gep.2, i64 96
  %321 = bitcast i8* %320 to <32 x i8>*
  store <32 x i8> %wide.load120.2, <32 x i8>* %321, align 1, !tbaa !38, !alias.scope !107, !noalias !104
  %index.next109.2 = or i64 %index108, 384
  %next.gep.3 = getelementptr [256 x i8], [256 x i8]* %9, i64 0, i64 %index.next109.2
  %offset.idx.3 = add i64 %266, %index.next109.2
  %322 = getelementptr inbounds i8, i8* %252, i64 %offset.idx.3
  %323 = bitcast i8* %322 to <32 x i8>*
  %wide.load.3 = load <32 x i8>, <32 x i8>* %323, align 1, !tbaa !38, !alias.scope !104
  %324 = getelementptr inbounds i8, i8* %322, i64 32
  %325 = bitcast i8* %324 to <32 x i8>*
  %wide.load118.3 = load <32 x i8>, <32 x i8>* %325, align 1, !tbaa !38, !alias.scope !104
  %326 = getelementptr inbounds i8, i8* %322, i64 64
  %327 = bitcast i8* %326 to <32 x i8>*
  %wide.load119.3 = load <32 x i8>, <32 x i8>* %327, align 1, !tbaa !38, !alias.scope !104
  %328 = getelementptr inbounds i8, i8* %322, i64 96
  %329 = bitcast i8* %328 to <32 x i8>*
  %wide.load120.3 = load <32 x i8>, <32 x i8>* %329, align 1, !tbaa !38, !alias.scope !104
  %330 = bitcast i8* %next.gep.3 to <32 x i8>*
  store <32 x i8> %wide.load.3, <32 x i8>* %330, align 1, !tbaa !38, !alias.scope !107, !noalias !104
  %331 = getelementptr i8, i8* %next.gep.3, i64 32
  %332 = bitcast i8* %331 to <32 x i8>*
  store <32 x i8> %wide.load118.3, <32 x i8>* %332, align 1, !tbaa !38, !alias.scope !107, !noalias !104
  %333 = getelementptr i8, i8* %next.gep.3, i64 64
  %334 = bitcast i8* %333 to <32 x i8>*
  store <32 x i8> %wide.load119.3, <32 x i8>* %334, align 1, !tbaa !38, !alias.scope !107, !noalias !104
  %335 = getelementptr i8, i8* %next.gep.3, i64 96
  %336 = bitcast i8* %335 to <32 x i8>*
  store <32 x i8> %wide.load120.3, <32 x i8>* %336, align 1, !tbaa !38, !alias.scope !107, !noalias !104
  %index.next109.3 = add i64 %index108, 512
  %niter298.nsub.3 = add i64 %niter298, -4
  %niter298.ncmp.3 = icmp eq i64 %niter298.nsub.3, 0
  br i1 %niter298.ncmp.3, label %middle.block98.unr-lcssa, label %vector.body100, !llvm.loop !109

middle.block98.unr-lcssa:                         ; preds = %vector.body100, %vector.ph103
  %index108.unr = phi i64 [ 0, %vector.ph103 ], [ %index.next109.3, %vector.body100 ]
  %lcmp.mod296.not = icmp eq i64 %xtraiter294, 0
  br i1 %lcmp.mod296.not, label %middle.block98, label %vector.body100.epil

vector.body100.epil:                              ; preds = %middle.block98.unr-lcssa, %vector.body100.epil
  %index108.epil = phi i64 [ %index.next109.epil, %vector.body100.epil ], [ %index108.unr, %middle.block98.unr-lcssa ]
  %epil.iter295 = phi i64 [ %epil.iter295.sub, %vector.body100.epil ], [ %xtraiter294, %middle.block98.unr-lcssa ]
  %next.gep.epil = getelementptr [256 x i8], [256 x i8]* %9, i64 0, i64 %index108.epil
  %offset.idx.epil = add i64 %266, %index108.epil
  %337 = getelementptr inbounds i8, i8* %252, i64 %offset.idx.epil
  %338 = bitcast i8* %337 to <32 x i8>*
  %wide.load.epil = load <32 x i8>, <32 x i8>* %338, align 1, !tbaa !38, !alias.scope !104
  %339 = getelementptr inbounds i8, i8* %337, i64 32
  %340 = bitcast i8* %339 to <32 x i8>*
  %wide.load118.epil = load <32 x i8>, <32 x i8>* %340, align 1, !tbaa !38, !alias.scope !104
  %341 = getelementptr inbounds i8, i8* %337, i64 64
  %342 = bitcast i8* %341 to <32 x i8>*
  %wide.load119.epil = load <32 x i8>, <32 x i8>* %342, align 1, !tbaa !38, !alias.scope !104
  %343 = getelementptr inbounds i8, i8* %337, i64 96
  %344 = bitcast i8* %343 to <32 x i8>*
  %wide.load120.epil = load <32 x i8>, <32 x i8>* %344, align 1, !tbaa !38, !alias.scope !104
  %345 = bitcast i8* %next.gep.epil to <32 x i8>*
  store <32 x i8> %wide.load.epil, <32 x i8>* %345, align 1, !tbaa !38, !alias.scope !107, !noalias !104
  %346 = getelementptr i8, i8* %next.gep.epil, i64 32
  %347 = bitcast i8* %346 to <32 x i8>*
  store <32 x i8> %wide.load118.epil, <32 x i8>* %347, align 1, !tbaa !38, !alias.scope !107, !noalias !104
  %348 = getelementptr i8, i8* %next.gep.epil, i64 64
  %349 = bitcast i8* %348 to <32 x i8>*
  store <32 x i8> %wide.load119.epil, <32 x i8>* %349, align 1, !tbaa !38, !alias.scope !107, !noalias !104
  %350 = getelementptr i8, i8* %next.gep.epil, i64 96
  %351 = bitcast i8* %350 to <32 x i8>*
  store <32 x i8> %wide.load120.epil, <32 x i8>* %351, align 1, !tbaa !38, !alias.scope !107, !noalias !104
  %index.next109.epil = add i64 %index108.epil, 128
  %epil.iter295.sub = add i64 %epil.iter295, -1
  %epil.iter295.cmp.not = icmp eq i64 %epil.iter295.sub, 0
  br i1 %epil.iter295.cmp.not, label %middle.block98, label %vector.body100.epil, !llvm.loop !110

middle.block98:                                   ; preds = %vector.body100.epil, %middle.block98.unr-lcssa
  %cmp.n114 = icmp eq i64 %n.vec107, %271
  br i1 %cmp.n114, label %.loopexit263, label %.preheader29.preheader286

.preheader29.preheader286:                        ; preds = %vector.memcheck, %.preheader29.preheader, %middle.block98
  %.ph287 = phi i8* [ %269, %vector.memcheck ], [ %269, %.preheader29.preheader ], [ %ind.end111, %middle.block98 ]
  %.ph288 = phi i64 [ %266, %vector.memcheck ], [ %266, %.preheader29.preheader ], [ %ind.end113, %middle.block98 ]
  %352 = sub i64 -2, %.ph288
  %353 = and i64 %.ph288, 7
  %xtraiter299 = xor i64 %353, 7
  %lcmp.mod300.not = icmp eq i64 %xtraiter299, 0
  br i1 %lcmp.mod300.not, label %.preheader29.prol.loopexit, label %.preheader29.prol

.preheader29.prol:                                ; preds = %.preheader29.preheader286, %.preheader29.prol
  %354 = phi i8* [ %359, %.preheader29.prol ], [ %.ph287, %.preheader29.preheader286 ]
  %355 = phi i64 [ %357, %.preheader29.prol ], [ %.ph288, %.preheader29.preheader286 ]
  %prol.iter = phi i64 [ %prol.iter.sub, %.preheader29.prol ], [ %xtraiter299, %.preheader29.preheader286 ]
  %356 = getelementptr inbounds i8, i8* %252, i64 %355
  %357 = add nuw nsw i64 %355, 1
  %358 = load i8, i8* %356, align 1, !tbaa !38
  %359 = getelementptr inbounds i8, i8* %354, i64 1
  store i8 %358, i8* %354, align 1, !tbaa !38
  %prol.iter.sub = add i64 %prol.iter, -1
  %prol.iter.cmp.not = icmp eq i64 %prol.iter.sub, 0
  br i1 %prol.iter.cmp.not, label %.preheader29.prol.loopexit, label %.preheader29.prol, !llvm.loop !111

.preheader29.prol.loopexit:                       ; preds = %.preheader29.prol, %.preheader29.preheader286
  %.lcssa289.unr = phi i8* [ undef, %.preheader29.preheader286 ], [ %359, %.preheader29.prol ]
  %.unr = phi i8* [ %.ph287, %.preheader29.preheader286 ], [ %359, %.preheader29.prol ]
  %.unr301 = phi i64 [ %.ph288, %.preheader29.preheader286 ], [ %357, %.preheader29.prol ]
  %360 = icmp ult i64 %352, 7
  br i1 %360, label %.loopexit263, label %.preheader29

.loopexit263:                                     ; preds = %.preheader29.prol.loopexit, %.preheader29, %middle.block98
  %.lcssa94 = phi i8* [ %ind.end111, %middle.block98 ], [ %.lcssa289.unr, %.preheader29.prol.loopexit ], [ %470, %.preheader29 ]
  %361 = getelementptr inbounds [256 x i8], [256 x i8]* %9, i64 0, i64 256
  %362 = icmp ult i8* %.lcssa94, %361
  br i1 %362, label %iter.check, label %.loopexit28

iter.check:                                       ; preds = %.loopexit263, %265
  %363 = phi i8* [ %.lcssa94, %.loopexit263 ], [ %269, %265 ]
  %364 = ptrtoint i8* %363 to i64
  %365 = getelementptr inbounds [256 x i8], [256 x i8]* %9, i64 1, i64 0
  %366 = sub i64 0, %364
  %scevgep124 = getelementptr [256 x i8], [256 x i8]* %9, i64 1, i64 %366
  %exitcount.ptrcnt.to.int = ptrtoint i8* %scevgep124 to i64
  %min.iters.check126 = icmp ult i8* %scevgep124, inttoptr (i64 4 to i8*)
  br i1 %min.iters.check126, label %vec.epilog.scalar.ph.preheader, label %vector.main.loop.iter.check

vector.main.loop.iter.check:                      ; preds = %iter.check
  %min.iters.check128 = icmp ult i8* %scevgep124, inttoptr (i64 128 to i8*)
  br i1 %min.iters.check128, label %vec.epilog.ph, label %vector.ph129

vector.ph129:                                     ; preds = %vector.main.loop.iter.check
  %n.vec131 = and i64 %exitcount.ptrcnt.to.int, -128
  %367 = add i64 %n.vec131, -128
  %368 = lshr exact i64 %367, 7
  %369 = add nuw nsw i64 %368, 1
  %xtraiter302 = and i64 %369, 7
  %370 = icmp ult i64 %367, 896
  br i1 %370, label %middle.block121.unr-lcssa, label %vector.ph129.new

vector.ph129.new:                                 ; preds = %vector.ph129
  %unroll_iter305 = and i64 %369, 288230376151711736
  br label %vector.body123

vector.body123:                                   ; preds = %vector.body123, %vector.ph129.new
  %index132 = phi i64 [ 0, %vector.ph129.new ], [ %index.next133.7, %vector.body123 ]
  %niter306 = phi i64 [ %unroll_iter305, %vector.ph129.new ], [ %niter306.nsub.7, %vector.body123 ]
  %next.gep135 = getelementptr i8, i8* %363, i64 %index132
  %371 = bitcast i8* %next.gep135 to <32 x i8>*
  store <32 x i8> zeroinitializer, <32 x i8>* %371, align 1, !tbaa !38
  %372 = getelementptr i8, i8* %next.gep135, i64 32
  %373 = bitcast i8* %372 to <32 x i8>*
  store <32 x i8> zeroinitializer, <32 x i8>* %373, align 1, !tbaa !38
  %374 = getelementptr i8, i8* %next.gep135, i64 64
  %375 = bitcast i8* %374 to <32 x i8>*
  store <32 x i8> zeroinitializer, <32 x i8>* %375, align 1, !tbaa !38
  %376 = getelementptr i8, i8* %next.gep135, i64 96
  %377 = bitcast i8* %376 to <32 x i8>*
  store <32 x i8> zeroinitializer, <32 x i8>* %377, align 1, !tbaa !38
  %index.next133 = or i64 %index132, 128
  %next.gep135.1 = getelementptr i8, i8* %363, i64 %index.next133
  %378 = bitcast i8* %next.gep135.1 to <32 x i8>*
  store <32 x i8> zeroinitializer, <32 x i8>* %378, align 1, !tbaa !38
  %379 = getelementptr i8, i8* %next.gep135.1, i64 32
  %380 = bitcast i8* %379 to <32 x i8>*
  store <32 x i8> zeroinitializer, <32 x i8>* %380, align 1, !tbaa !38
  %381 = getelementptr i8, i8* %next.gep135.1, i64 64
  %382 = bitcast i8* %381 to <32 x i8>*
  store <32 x i8> zeroinitializer, <32 x i8>* %382, align 1, !tbaa !38
  %383 = getelementptr i8, i8* %next.gep135.1, i64 96
  %384 = bitcast i8* %383 to <32 x i8>*
  store <32 x i8> zeroinitializer, <32 x i8>* %384, align 1, !tbaa !38
  %index.next133.1 = or i64 %index132, 256
  %next.gep135.2 = getelementptr i8, i8* %363, i64 %index.next133.1
  %385 = bitcast i8* %next.gep135.2 to <32 x i8>*
  store <32 x i8> zeroinitializer, <32 x i8>* %385, align 1, !tbaa !38
  %386 = getelementptr i8, i8* %next.gep135.2, i64 32
  %387 = bitcast i8* %386 to <32 x i8>*
  store <32 x i8> zeroinitializer, <32 x i8>* %387, align 1, !tbaa !38
  %388 = getelementptr i8, i8* %next.gep135.2, i64 64
  %389 = bitcast i8* %388 to <32 x i8>*
  store <32 x i8> zeroinitializer, <32 x i8>* %389, align 1, !tbaa !38
  %390 = getelementptr i8, i8* %next.gep135.2, i64 96
  %391 = bitcast i8* %390 to <32 x i8>*
  store <32 x i8> zeroinitializer, <32 x i8>* %391, align 1, !tbaa !38
  %index.next133.2 = or i64 %index132, 384
  %next.gep135.3 = getelementptr i8, i8* %363, i64 %index.next133.2
  %392 = bitcast i8* %next.gep135.3 to <32 x i8>*
  store <32 x i8> zeroinitializer, <32 x i8>* %392, align 1, !tbaa !38
  %393 = getelementptr i8, i8* %next.gep135.3, i64 32
  %394 = bitcast i8* %393 to <32 x i8>*
  store <32 x i8> zeroinitializer, <32 x i8>* %394, align 1, !tbaa !38
  %395 = getelementptr i8, i8* %next.gep135.3, i64 64
  %396 = bitcast i8* %395 to <32 x i8>*
  store <32 x i8> zeroinitializer, <32 x i8>* %396, align 1, !tbaa !38
  %397 = getelementptr i8, i8* %next.gep135.3, i64 96
  %398 = bitcast i8* %397 to <32 x i8>*
  store <32 x i8> zeroinitializer, <32 x i8>* %398, align 1, !tbaa !38
  %index.next133.3 = or i64 %index132, 512
  %next.gep135.4 = getelementptr i8, i8* %363, i64 %index.next133.3
  %399 = bitcast i8* %next.gep135.4 to <32 x i8>*
  store <32 x i8> zeroinitializer, <32 x i8>* %399, align 1, !tbaa !38
  %400 = getelementptr i8, i8* %next.gep135.4, i64 32
  %401 = bitcast i8* %400 to <32 x i8>*
  store <32 x i8> zeroinitializer, <32 x i8>* %401, align 1, !tbaa !38
  %402 = getelementptr i8, i8* %next.gep135.4, i64 64
  %403 = bitcast i8* %402 to <32 x i8>*
  store <32 x i8> zeroinitializer, <32 x i8>* %403, align 1, !tbaa !38
  %404 = getelementptr i8, i8* %next.gep135.4, i64 96
  %405 = bitcast i8* %404 to <32 x i8>*
  store <32 x i8> zeroinitializer, <32 x i8>* %405, align 1, !tbaa !38
  %index.next133.4 = or i64 %index132, 640
  %next.gep135.5 = getelementptr i8, i8* %363, i64 %index.next133.4
  %406 = bitcast i8* %next.gep135.5 to <32 x i8>*
  store <32 x i8> zeroinitializer, <32 x i8>* %406, align 1, !tbaa !38
  %407 = getelementptr i8, i8* %next.gep135.5, i64 32
  %408 = bitcast i8* %407 to <32 x i8>*
  store <32 x i8> zeroinitializer, <32 x i8>* %408, align 1, !tbaa !38
  %409 = getelementptr i8, i8* %next.gep135.5, i64 64
  %410 = bitcast i8* %409 to <32 x i8>*
  store <32 x i8> zeroinitializer, <32 x i8>* %410, align 1, !tbaa !38
  %411 = getelementptr i8, i8* %next.gep135.5, i64 96
  %412 = bitcast i8* %411 to <32 x i8>*
  store <32 x i8> zeroinitializer, <32 x i8>* %412, align 1, !tbaa !38
  %index.next133.5 = or i64 %index132, 768
  %next.gep135.6 = getelementptr i8, i8* %363, i64 %index.next133.5
  %413 = bitcast i8* %next.gep135.6 to <32 x i8>*
  store <32 x i8> zeroinitializer, <32 x i8>* %413, align 1, !tbaa !38
  %414 = getelementptr i8, i8* %next.gep135.6, i64 32
  %415 = bitcast i8* %414 to <32 x i8>*
  store <32 x i8> zeroinitializer, <32 x i8>* %415, align 1, !tbaa !38
  %416 = getelementptr i8, i8* %next.gep135.6, i64 64
  %417 = bitcast i8* %416 to <32 x i8>*
  store <32 x i8> zeroinitializer, <32 x i8>* %417, align 1, !tbaa !38
  %418 = getelementptr i8, i8* %next.gep135.6, i64 96
  %419 = bitcast i8* %418 to <32 x i8>*
  store <32 x i8> zeroinitializer, <32 x i8>* %419, align 1, !tbaa !38
  %index.next133.6 = or i64 %index132, 896
  %next.gep135.7 = getelementptr i8, i8* %363, i64 %index.next133.6
  %420 = bitcast i8* %next.gep135.7 to <32 x i8>*
  store <32 x i8> zeroinitializer, <32 x i8>* %420, align 1, !tbaa !38
  %421 = getelementptr i8, i8* %next.gep135.7, i64 32
  %422 = bitcast i8* %421 to <32 x i8>*
  store <32 x i8> zeroinitializer, <32 x i8>* %422, align 1, !tbaa !38
  %423 = getelementptr i8, i8* %next.gep135.7, i64 64
  %424 = bitcast i8* %423 to <32 x i8>*
  store <32 x i8> zeroinitializer, <32 x i8>* %424, align 1, !tbaa !38
  %425 = getelementptr i8, i8* %next.gep135.7, i64 96
  %426 = bitcast i8* %425 to <32 x i8>*
  store <32 x i8> zeroinitializer, <32 x i8>* %426, align 1, !tbaa !38
  %index.next133.7 = add i64 %index132, 1024
  %niter306.nsub.7 = add i64 %niter306, -8
  %niter306.ncmp.7 = icmp eq i64 %niter306.nsub.7, 0
  br i1 %niter306.ncmp.7, label %middle.block121.unr-lcssa, label %vector.body123, !llvm.loop !112

middle.block121.unr-lcssa:                        ; preds = %vector.body123, %vector.ph129
  %index132.unr = phi i64 [ 0, %vector.ph129 ], [ %index.next133.7, %vector.body123 ]
  %lcmp.mod304.not = icmp eq i64 %xtraiter302, 0
  br i1 %lcmp.mod304.not, label %middle.block121, label %vector.body123.epil

vector.body123.epil:                              ; preds = %middle.block121.unr-lcssa, %vector.body123.epil
  %index132.epil = phi i64 [ %index.next133.epil, %vector.body123.epil ], [ %index132.unr, %middle.block121.unr-lcssa ]
  %epil.iter303 = phi i64 [ %epil.iter303.sub, %vector.body123.epil ], [ %xtraiter302, %middle.block121.unr-lcssa ]
  %next.gep135.epil = getelementptr i8, i8* %363, i64 %index132.epil
  %427 = bitcast i8* %next.gep135.epil to <32 x i8>*
  store <32 x i8> zeroinitializer, <32 x i8>* %427, align 1, !tbaa !38
  %428 = getelementptr i8, i8* %next.gep135.epil, i64 32
  %429 = bitcast i8* %428 to <32 x i8>*
  store <32 x i8> zeroinitializer, <32 x i8>* %429, align 1, !tbaa !38
  %430 = getelementptr i8, i8* %next.gep135.epil, i64 64
  %431 = bitcast i8* %430 to <32 x i8>*
  store <32 x i8> zeroinitializer, <32 x i8>* %431, align 1, !tbaa !38
  %432 = getelementptr i8, i8* %next.gep135.epil, i64 96
  %433 = bitcast i8* %432 to <32 x i8>*
  store <32 x i8> zeroinitializer, <32 x i8>* %433, align 1, !tbaa !38
  %index.next133.epil = add i64 %index132.epil, 128
  %epil.iter303.sub = add i64 %epil.iter303, -1
  %epil.iter303.cmp.not = icmp eq i64 %epil.iter303.sub, 0
  br i1 %epil.iter303.cmp.not, label %middle.block121, label %vector.body123.epil, !llvm.loop !113

middle.block121:                                  ; preds = %vector.body123.epil, %middle.block121.unr-lcssa
  %cmp.n134 = icmp eq i64 %n.vec131, %exitcount.ptrcnt.to.int
  br i1 %cmp.n134, label %.loopexit28, label %vec.epilog.iter.check

vec.epilog.iter.check:                            ; preds = %middle.block121
  %ind.end148 = getelementptr i8, i8* %363, i64 %n.vec131
  %n.vec.remaining = and i64 %exitcount.ptrcnt.to.int, 124
  %min.epilog.iters.check = icmp eq i64 %n.vec.remaining, 0
  br i1 %min.epilog.iters.check, label %vec.epilog.scalar.ph.preheader, label %vec.epilog.ph

vec.epilog.ph:                                    ; preds = %vector.main.loop.iter.check, %vec.epilog.iter.check
  %vec.epilog.resume.val = phi i64 [ %n.vec131, %vec.epilog.iter.check ], [ 0, %vector.main.loop.iter.check ]
  %434 = sub i64 0, %364
  %scevgep139 = getelementptr [256 x i8], [256 x i8]* %9, i64 1, i64 %434
  %exitcount.ptrcnt.to.int141 = ptrtoint i8* %scevgep139 to i64
  %n.vec143 = and i64 %exitcount.ptrcnt.to.int141, -4
  %ind.end147 = getelementptr i8, i8* %363, i64 %n.vec143
  br label %vec.epilog.vector.body

vec.epilog.vector.body:                           ; preds = %vec.epilog.vector.body, %vec.epilog.ph
  %index144 = phi i64 [ %vec.epilog.resume.val, %vec.epilog.ph ], [ %index.next145, %vec.epilog.vector.body ]
  %next.gep150 = getelementptr i8, i8* %363, i64 %index144
  %435 = bitcast i8* %next.gep150 to <4 x i8>*
  store <4 x i8> zeroinitializer, <4 x i8>* %435, align 1, !tbaa !38
  %index.next145 = add i64 %index144, 4
  %436 = icmp eq i64 %index.next145, %n.vec143
  br i1 %436, label %vec.epilog.middle.block, label %vec.epilog.vector.body, !llvm.loop !114

vec.epilog.middle.block:                          ; preds = %vec.epilog.vector.body
  %cmp.n149 = icmp eq i64 %n.vec143, %exitcount.ptrcnt.to.int141
  br i1 %cmp.n149, label %.loopexit28, label %vec.epilog.scalar.ph.preheader

vec.epilog.scalar.ph.preheader:                   ; preds = %iter.check, %vec.epilog.iter.check, %vec.epilog.middle.block
  %.ph285 = phi i8* [ %363, %iter.check ], [ %ind.end148, %vec.epilog.iter.check ], [ %ind.end147, %vec.epilog.middle.block ]
  br label %vec.epilog.scalar.ph

.preheader29:                                     ; preds = %.preheader29.prol.loopexit, %.preheader29
  %437 = phi i8* [ %470, %.preheader29 ], [ %.unr, %.preheader29.prol.loopexit ]
  %438 = phi i64 [ %468, %.preheader29 ], [ %.unr301, %.preheader29.prol.loopexit ]
  %439 = getelementptr inbounds i8, i8* %252, i64 %438
  %440 = add nuw nsw i64 %438, 1
  %441 = load i8, i8* %439, align 1, !tbaa !38
  %442 = getelementptr inbounds i8, i8* %437, i64 1
  store i8 %441, i8* %437, align 1, !tbaa !38
  %443 = getelementptr inbounds i8, i8* %252, i64 %440
  %444 = add nuw nsw i64 %438, 2
  %445 = load i8, i8* %443, align 1, !tbaa !38
  %446 = getelementptr inbounds i8, i8* %437, i64 2
  store i8 %445, i8* %442, align 1, !tbaa !38
  %447 = getelementptr inbounds i8, i8* %252, i64 %444
  %448 = add nuw nsw i64 %438, 3
  %449 = load i8, i8* %447, align 1, !tbaa !38
  %450 = getelementptr inbounds i8, i8* %437, i64 3
  store i8 %449, i8* %446, align 1, !tbaa !38
  %451 = getelementptr inbounds i8, i8* %252, i64 %448
  %452 = add nuw nsw i64 %438, 4
  %453 = load i8, i8* %451, align 1, !tbaa !38
  %454 = getelementptr inbounds i8, i8* %437, i64 4
  store i8 %453, i8* %450, align 1, !tbaa !38
  %455 = getelementptr inbounds i8, i8* %252, i64 %452
  %456 = add nuw nsw i64 %438, 5
  %457 = load i8, i8* %455, align 1, !tbaa !38
  %458 = getelementptr inbounds i8, i8* %437, i64 5
  store i8 %457, i8* %454, align 1, !tbaa !38
  %459 = getelementptr inbounds i8, i8* %252, i64 %456
  %460 = add nuw nsw i64 %438, 6
  %461 = load i8, i8* %459, align 1, !tbaa !38
  %462 = getelementptr inbounds i8, i8* %437, i64 6
  store i8 %461, i8* %458, align 1, !tbaa !38
  %463 = getelementptr inbounds i8, i8* %252, i64 %460
  %464 = add nuw nsw i64 %438, 7
  %465 = load i8, i8* %463, align 1, !tbaa !38
  %466 = getelementptr inbounds i8, i8* %437, i64 7
  store i8 %465, i8* %462, align 1, !tbaa !38
  %467 = getelementptr inbounds i8, i8* %252, i64 %464
  %468 = add nuw nsw i64 %438, 8
  %469 = load i8, i8* %467, align 1, !tbaa !38
  %470 = getelementptr inbounds i8, i8* %437, i64 8
  store i8 %469, i8* %466, align 1, !tbaa !38
  %471 = icmp eq i64 %468, -1
  br i1 %471, label %.loopexit263, label %.preheader29, !llvm.loop !115

vec.epilog.scalar.ph:                             ; preds = %vec.epilog.scalar.ph.preheader, %vec.epilog.scalar.ph
  %472 = phi i8* [ %473, %vec.epilog.scalar.ph ], [ %.ph285, %vec.epilog.scalar.ph.preheader ]
  %473 = getelementptr inbounds i8, i8* %472, i64 1
  store i8 0, i8* %472, align 1, !tbaa !38
  %474 = icmp eq i8* %473, %365
  br i1 %474, label %.loopexit28, label %vec.epilog.scalar.ph, !llvm.loop !116

.loopexit28:                                      ; preds = %vec.epilog.scalar.ph, %middle.block121, %vec.epilog.middle.block, %.loopexit263
  %475 = sub i32 6, %267
  %476 = and i32 %475, -8
  %477 = getelementptr inbounds [129 x i8], [129 x i8]* %11, i64 0, i64 0
  call void @llvm.lifetime.start.p0i8(i64 129, i8* nonnull %477) #18
  call void @llvm.memcpy.p0i8.p0i8.i64(i8* nonnull align 1 dereferenceable(129) %477, i8* nonnull align 1 dereferenceable(129) getelementptr inbounds ([129 x i8], [129 x i8]* @__const.halide_debug_to_file.header, i64 0, i64 0), i64 129, i1 false)
  %478 = call i64 @fwrite(i8* nonnull %477, i64 128, i64 1, i8* nonnull %35) #16
  %479 = load i32, i32* %29, align 4, !tbaa !76
  %480 = icmp sgt i32 %479, 0
  br i1 %480, label %481, label %606

481:                                              ; preds = %.loopexit28
  %482 = getelementptr inbounds %struct.halide_buffer_t, %struct.halide_buffer_t* %3, i64 0, i32 6
  %483 = load %struct.halide_dimension_t*, %struct.halide_dimension_t** %482, align 8, !tbaa !77
  %484 = zext i32 %479 to i64
  %min.iters.check154 = icmp ult i32 %479, 17
  br i1 %min.iters.check154, label %scalar.ph152.preheader, label %vector.ph155

vector.ph155:                                     ; preds = %481
  %n.mod.vf156 = and i64 %484, 15
  %485 = icmp eq i64 %n.mod.vf156, 0
  %486 = select i1 %485, i64 16, i64 %n.mod.vf156
  %n.vec157 = sub nsw i64 %484, %486
  br label %vector.body153

vector.body153:                                   ; preds = %vector.body153, %vector.ph155
  %index158 = phi i64 [ 0, %vector.ph155 ], [ %index.next159, %vector.body153 ]
  %vec.ind162 = phi <4 x i64> [ <i64 0, i64 1, i64 2, i64 3>, %vector.ph155 ], [ %vec.ind.next166, %vector.body153 ]
  %vec.phi = phi <4 x i64> [ zeroinitializer, %vector.ph155 ], [ %predphi, %vector.body153 ]
  %vec.phi167 = phi <4 x i64> [ zeroinitializer, %vector.ph155 ], [ %predphi179, %vector.body153 ]
  %vec.phi168 = phi <4 x i64> [ zeroinitializer, %vector.ph155 ], [ %predphi180, %vector.body153 ]
  %vec.phi169 = phi <4 x i64> [ zeroinitializer, %vector.ph155 ], [ %predphi181, %vector.body153 ]
  %step.add = add <4 x i64> %vec.ind162, <i64 4, i64 4, i64 4, i64 4>
  %step.add163 = add <4 x i64> %vec.ind162, <i64 8, i64 8, i64 8, i64 8>
  %step.add164 = add <4 x i64> %vec.ind162, <i64 12, i64 12, i64 12, i64 12>
  %487 = or i64 %index158, 4
  %488 = or i64 %index158, 8
  %489 = or i64 %index158, 12
  %490 = getelementptr inbounds %struct.halide_dimension_t, %struct.halide_dimension_t* %483, i64 %index158, i32 2
  %491 = getelementptr inbounds %struct.halide_dimension_t, %struct.halide_dimension_t* %483, i64 %487, i32 2
  %492 = getelementptr inbounds %struct.halide_dimension_t, %struct.halide_dimension_t* %483, i64 %488, i32 2
  %493 = getelementptr inbounds %struct.halide_dimension_t, %struct.halide_dimension_t* %483, i64 %489, i32 2
  %494 = bitcast i32* %490 to <16 x i32>*
  %495 = bitcast i32* %491 to <16 x i32>*
  %496 = bitcast i32* %492 to <16 x i32>*
  %497 = bitcast i32* %493 to <16 x i32>*
  %wide.vec = load <16 x i32>, <16 x i32>* %494, align 4, !tbaa !83
  %wide.vec170 = load <16 x i32>, <16 x i32>* %495, align 4, !tbaa !83
  %wide.vec171 = load <16 x i32>, <16 x i32>* %496, align 4, !tbaa !83
  %wide.vec172 = load <16 x i32>, <16 x i32>* %497, align 4, !tbaa !83
  %strided.vec = shufflevector <16 x i32> %wide.vec, <16 x i32> poison, <4 x i32> <i32 0, i32 4, i32 8, i32 12>
  %strided.vec173 = shufflevector <16 x i32> %wide.vec170, <16 x i32> poison, <4 x i32> <i32 0, i32 4, i32 8, i32 12>
  %strided.vec174 = shufflevector <16 x i32> %wide.vec171, <16 x i32> poison, <4 x i32> <i32 0, i32 4, i32 8, i32 12>
  %strided.vec175 = shufflevector <16 x i32> %wide.vec172, <16 x i32> poison, <4 x i32> <i32 0, i32 4, i32 8, i32 12>
  %498 = icmp sgt <4 x i32> %strided.vec, zeroinitializer
  %499 = icmp sgt <4 x i32> %strided.vec173, zeroinitializer
  %500 = icmp sgt <4 x i32> %strided.vec174, zeroinitializer
  %501 = icmp sgt <4 x i32> %strided.vec175, zeroinitializer
  %502 = zext <4 x i32> %strided.vec to <4 x i64>
  %503 = zext <4 x i32> %strided.vec173 to <4 x i64>
  %504 = zext <4 x i32> %strided.vec174 to <4 x i64>
  %505 = zext <4 x i32> %strided.vec175 to <4 x i64>
  %506 = getelementptr inbounds %struct.halide_dimension_t, %struct.halide_dimension_t* %483, <4 x i64> %vec.ind162, i32 1
  %507 = getelementptr inbounds %struct.halide_dimension_t, %struct.halide_dimension_t* %483, <4 x i64> %step.add, i32 1
  %508 = getelementptr inbounds %struct.halide_dimension_t, %struct.halide_dimension_t* %483, <4 x i64> %step.add163, i32 1
  %509 = getelementptr inbounds %struct.halide_dimension_t, %struct.halide_dimension_t* %483, <4 x i64> %step.add164, i32 1
  %wide.masked.gather = call <4 x i32> @llvm.masked.gather.v4i32.v4p0i32(<4 x i32*> %506, i32 4, <4 x i1> %498, <4 x i32> undef), !tbaa !79
  %wide.masked.gather176 = call <4 x i32> @llvm.masked.gather.v4i32.v4p0i32(<4 x i32*> %507, i32 4, <4 x i1> %499, <4 x i32> undef), !tbaa !79
  %wide.masked.gather177 = call <4 x i32> @llvm.masked.gather.v4i32.v4p0i32(<4 x i32*> %508, i32 4, <4 x i1> %500, <4 x i32> undef), !tbaa !79
  %wide.masked.gather178 = call <4 x i32> @llvm.masked.gather.v4i32.v4p0i32(<4 x i32*> %509, i32 4, <4 x i1> %501, <4 x i32> undef), !tbaa !79
  %510 = add nsw <4 x i32> %wide.masked.gather, <i32 -1, i32 -1, i32 -1, i32 -1>
  %511 = add nsw <4 x i32> %wide.masked.gather176, <i32 -1, i32 -1, i32 -1, i32 -1>
  %512 = add nsw <4 x i32> %wide.masked.gather177, <i32 -1, i32 -1, i32 -1, i32 -1>
  %513 = add nsw <4 x i32> %wide.masked.gather178, <i32 -1, i32 -1, i32 -1, i32 -1>
  %514 = sext <4 x i32> %510 to <4 x i64>
  %515 = sext <4 x i32> %511 to <4 x i64>
  %516 = sext <4 x i32> %512 to <4 x i64>
  %517 = sext <4 x i32> %513 to <4 x i64>
  %518 = mul nsw <4 x i64> %514, %502
  %519 = mul nsw <4 x i64> %515, %503
  %520 = mul nsw <4 x i64> %516, %504
  %521 = mul nsw <4 x i64> %517, %505
  %522 = select <4 x i1> %498, <4 x i64> %518, <4 x i64> zeroinitializer
  %predphi = add <4 x i64> %vec.phi, %522
  %523 = select <4 x i1> %499, <4 x i64> %519, <4 x i64> zeroinitializer
  %predphi179 = add <4 x i64> %vec.phi167, %523
  %524 = select <4 x i1> %500, <4 x i64> %520, <4 x i64> zeroinitializer
  %predphi180 = add <4 x i64> %vec.phi168, %524
  %525 = select <4 x i1> %501, <4 x i64> %521, <4 x i64> zeroinitializer
  %predphi181 = add <4 x i64> %vec.phi169, %525
  %index.next159 = add i64 %index158, 16
  %vec.ind.next166 = add <4 x i64> %vec.ind162, <i64 16, i64 16, i64 16, i64 16>
  %526 = icmp eq i64 %index.next159, %n.vec157
  br i1 %526, label %middle.block151, label %vector.body153, !llvm.loop !117

middle.block151:                                  ; preds = %vector.body153
  %bin.rdx = add <4 x i64> %predphi179, %predphi
  %bin.rdx182 = add <4 x i64> %predphi180, %bin.rdx
  %bin.rdx183 = add <4 x i64> %predphi181, %bin.rdx182
  %527 = call i64 @llvm.vector.reduce.add.v4i64(<4 x i64> %bin.rdx183)
  br label %scalar.ph152.preheader

scalar.ph152.preheader:                           ; preds = %middle.block151, %481
  %.ph282 = phi i64 [ 0, %481 ], [ %n.vec157, %middle.block151 ]
  %.ph283 = phi i64 [ 0, %481 ], [ %527, %middle.block151 ]
  br label %scalar.ph152

scalar.ph152:                                     ; preds = %scalar.ph152.preheader, %541
  %528 = phi i64 [ %543, %541 ], [ %.ph282, %scalar.ph152.preheader ]
  %529 = phi i64 [ %542, %541 ], [ %.ph283, %scalar.ph152.preheader ]
  %530 = getelementptr inbounds %struct.halide_dimension_t, %struct.halide_dimension_t* %483, i64 %528, i32 2
  %531 = load i32, i32* %530, align 4, !tbaa !83
  %532 = icmp sgt i32 %531, 0
  br i1 %532, label %533, label %541

533:                                              ; preds = %scalar.ph152
  %534 = zext i32 %531 to i64
  %535 = getelementptr inbounds %struct.halide_dimension_t, %struct.halide_dimension_t* %483, i64 %528, i32 1
  %536 = load i32, i32* %535, align 4, !tbaa !79
  %537 = add nsw i32 %536, -1
  %538 = sext i32 %537 to i64
  %539 = mul nsw i64 %538, %534
  %540 = add nsw i64 %539, %529
  br label %541

541:                                              ; preds = %533, %scalar.ph152
  %542 = phi i64 [ %540, %533 ], [ %529, %scalar.ph152 ]
  %543 = add nuw nsw i64 %528, 1
  %544 = icmp eq i64 %543, %484
  br i1 %544, label %.preheader27, label %scalar.ph152, !llvm.loop !118

.preheader27:                                     ; preds = %541
  %min.iters.check187 = icmp ult i32 %479, 17
  br i1 %min.iters.check187, label %scalar.ph185.preheader, label %vector.ph188

vector.ph188:                                     ; preds = %.preheader27
  %n.mod.vf189 = and i64 %484, 15
  %545 = icmp eq i64 %n.mod.vf189, 0
  %546 = select i1 %545, i64 16, i64 %n.mod.vf189
  %n.vec190 = sub nsw i64 %484, %546
  br label %vector.body186

vector.body186:                                   ; preds = %vector.body186, %vector.ph188
  %index191 = phi i64 [ 0, %vector.ph188 ], [ %index.next192, %vector.body186 ]
  %vec.ind195 = phi <4 x i64> [ <i64 0, i64 1, i64 2, i64 3>, %vector.ph188 ], [ %vec.ind.next200, %vector.body186 ]
  %vec.phi201 = phi <4 x i64> [ zeroinitializer, %vector.ph188 ], [ %predphi217, %vector.body186 ]
  %vec.phi202 = phi <4 x i64> [ zeroinitializer, %vector.ph188 ], [ %predphi218, %vector.body186 ]
  %vec.phi203 = phi <4 x i64> [ zeroinitializer, %vector.ph188 ], [ %predphi219, %vector.body186 ]
  %vec.phi204 = phi <4 x i64> [ zeroinitializer, %vector.ph188 ], [ %predphi220, %vector.body186 ]
  %step.add196 = add <4 x i64> %vec.ind195, <i64 4, i64 4, i64 4, i64 4>
  %step.add197 = add <4 x i64> %vec.ind195, <i64 8, i64 8, i64 8, i64 8>
  %step.add198 = add <4 x i64> %vec.ind195, <i64 12, i64 12, i64 12, i64 12>
  %547 = or i64 %index191, 4
  %548 = or i64 %index191, 8
  %549 = or i64 %index191, 12
  %550 = getelementptr inbounds %struct.halide_dimension_t, %struct.halide_dimension_t* %483, i64 %index191, i32 2
  %551 = getelementptr inbounds %struct.halide_dimension_t, %struct.halide_dimension_t* %483, i64 %547, i32 2
  %552 = getelementptr inbounds %struct.halide_dimension_t, %struct.halide_dimension_t* %483, i64 %548, i32 2
  %553 = getelementptr inbounds %struct.halide_dimension_t, %struct.halide_dimension_t* %483, i64 %549, i32 2
  %554 = bitcast i32* %550 to <16 x i32>*
  %555 = bitcast i32* %551 to <16 x i32>*
  %556 = bitcast i32* %552 to <16 x i32>*
  %557 = bitcast i32* %553 to <16 x i32>*
  %wide.vec205 = load <16 x i32>, <16 x i32>* %554, align 4, !tbaa !83
  %wide.vec206 = load <16 x i32>, <16 x i32>* %555, align 4, !tbaa !83
  %wide.vec207 = load <16 x i32>, <16 x i32>* %556, align 4, !tbaa !83
  %wide.vec208 = load <16 x i32>, <16 x i32>* %557, align 4, !tbaa !83
  %strided.vec209 = shufflevector <16 x i32> %wide.vec205, <16 x i32> poison, <4 x i32> <i32 0, i32 4, i32 8, i32 12>
  %strided.vec210 = shufflevector <16 x i32> %wide.vec206, <16 x i32> poison, <4 x i32> <i32 0, i32 4, i32 8, i32 12>
  %strided.vec211 = shufflevector <16 x i32> %wide.vec207, <16 x i32> poison, <4 x i32> <i32 0, i32 4, i32 8, i32 12>
  %strided.vec212 = shufflevector <16 x i32> %wide.vec208, <16 x i32> poison, <4 x i32> <i32 0, i32 4, i32 8, i32 12>
  %558 = icmp slt <4 x i32> %strided.vec209, zeroinitializer
  %559 = icmp slt <4 x i32> %strided.vec210, zeroinitializer
  %560 = icmp slt <4 x i32> %strided.vec211, zeroinitializer
  %561 = icmp slt <4 x i32> %strided.vec212, zeroinitializer
  %562 = sext <4 x i32> %strided.vec209 to <4 x i64>
  %563 = sext <4 x i32> %strided.vec210 to <4 x i64>
  %564 = sext <4 x i32> %strided.vec211 to <4 x i64>
  %565 = sext <4 x i32> %strided.vec212 to <4 x i64>
  %566 = getelementptr inbounds %struct.halide_dimension_t, %struct.halide_dimension_t* %483, <4 x i64> %vec.ind195, i32 1
  %567 = getelementptr inbounds %struct.halide_dimension_t, %struct.halide_dimension_t* %483, <4 x i64> %step.add196, i32 1
  %568 = getelementptr inbounds %struct.halide_dimension_t, %struct.halide_dimension_t* %483, <4 x i64> %step.add197, i32 1
  %569 = getelementptr inbounds %struct.halide_dimension_t, %struct.halide_dimension_t* %483, <4 x i64> %step.add198, i32 1
  %wide.masked.gather213 = call <4 x i32> @llvm.masked.gather.v4i32.v4p0i32(<4 x i32*> %566, i32 4, <4 x i1> %558, <4 x i32> undef), !tbaa !79
  %wide.masked.gather214 = call <4 x i32> @llvm.masked.gather.v4i32.v4p0i32(<4 x i32*> %567, i32 4, <4 x i1> %559, <4 x i32> undef), !tbaa !79
  %wide.masked.gather215 = call <4 x i32> @llvm.masked.gather.v4i32.v4p0i32(<4 x i32*> %568, i32 4, <4 x i1> %560, <4 x i32> undef), !tbaa !79
  %wide.masked.gather216 = call <4 x i32> @llvm.masked.gather.v4i32.v4p0i32(<4 x i32*> %569, i32 4, <4 x i1> %561, <4 x i32> undef), !tbaa !79
  %570 = add nsw <4 x i32> %wide.masked.gather213, <i32 -1, i32 -1, i32 -1, i32 -1>
  %571 = add nsw <4 x i32> %wide.masked.gather214, <i32 -1, i32 -1, i32 -1, i32 -1>
  %572 = add nsw <4 x i32> %wide.masked.gather215, <i32 -1, i32 -1, i32 -1, i32 -1>
  %573 = add nsw <4 x i32> %wide.masked.gather216, <i32 -1, i32 -1, i32 -1, i32 -1>
  %574 = sext <4 x i32> %570 to <4 x i64>
  %575 = sext <4 x i32> %571 to <4 x i64>
  %576 = sext <4 x i32> %572 to <4 x i64>
  %577 = sext <4 x i32> %573 to <4 x i64>
  %578 = mul nsw <4 x i64> %574, %562
  %579 = mul nsw <4 x i64> %575, %563
  %580 = mul nsw <4 x i64> %576, %564
  %581 = mul nsw <4 x i64> %577, %565
  %582 = select <4 x i1> %558, <4 x i64> %578, <4 x i64> zeroinitializer
  %predphi217 = add <4 x i64> %vec.phi201, %582
  %583 = select <4 x i1> %559, <4 x i64> %579, <4 x i64> zeroinitializer
  %predphi218 = add <4 x i64> %vec.phi202, %583
  %584 = select <4 x i1> %560, <4 x i64> %580, <4 x i64> zeroinitializer
  %predphi219 = add <4 x i64> %vec.phi203, %584
  %585 = select <4 x i1> %561, <4 x i64> %581, <4 x i64> zeroinitializer
  %predphi220 = add <4 x i64> %vec.phi204, %585
  %index.next192 = add i64 %index191, 16
  %vec.ind.next200 = add <4 x i64> %vec.ind195, <i64 16, i64 16, i64 16, i64 16>
  %586 = icmp eq i64 %index.next192, %n.vec190
  br i1 %586, label %middle.block184, label %vector.body186, !llvm.loop !119

middle.block184:                                  ; preds = %vector.body186
  %bin.rdx221 = add <4 x i64> %predphi218, %predphi217
  %bin.rdx222 = add <4 x i64> %predphi219, %bin.rdx221
  %bin.rdx223 = add <4 x i64> %predphi220, %bin.rdx222
  %587 = call i64 @llvm.vector.reduce.add.v4i64(<4 x i64> %bin.rdx223)
  br label %scalar.ph185.preheader

scalar.ph185.preheader:                           ; preds = %middle.block184, %.preheader27
  %.ph279 = phi i64 [ 0, %.preheader27 ], [ %n.vec190, %middle.block184 ]
  %.ph280 = phi i64 [ 0, %.preheader27 ], [ %587, %middle.block184 ]
  br label %scalar.ph185

scalar.ph185:                                     ; preds = %scalar.ph185.preheader, %601
  %588 = phi i64 [ %603, %601 ], [ %.ph279, %scalar.ph185.preheader ]
  %589 = phi i64 [ %602, %601 ], [ %.ph280, %scalar.ph185.preheader ]
  %590 = getelementptr inbounds %struct.halide_dimension_t, %struct.halide_dimension_t* %483, i64 %588, i32 2
  %591 = load i32, i32* %590, align 4, !tbaa !83
  %592 = icmp slt i32 %591, 0
  br i1 %592, label %593, label %601

593:                                              ; preds = %scalar.ph185
  %594 = sext i32 %591 to i64
  %595 = getelementptr inbounds %struct.halide_dimension_t, %struct.halide_dimension_t* %483, i64 %588, i32 1
  %596 = load i32, i32* %595, align 4, !tbaa !79
  %597 = add nsw i32 %596, -1
  %598 = sext i32 %597 to i64
  %599 = mul nsw i64 %598, %594
  %600 = add nsw i64 %599, %589
  br label %601

601:                                              ; preds = %593, %scalar.ph185
  %602 = phi i64 [ %600, %593 ], [ %589, %scalar.ph185 ]
  %603 = add nuw nsw i64 %588, 1
  %604 = icmp eq i64 %603, %484
  br i1 %604, label %.loopexit262, label %scalar.ph185, !llvm.loop !120

.loopexit262:                                     ; preds = %601
  %605 = add nsw i64 %542, 1
  br label %606

606:                                              ; preds = %.loopexit262, %.loopexit28
  %607 = phi i64 [ 1, %.loopexit28 ], [ %605, %.loopexit262 ]
  %608 = phi i64 [ 0, %.loopexit28 ], [ %602, %.loopexit262 ]
  %609 = sub nsw i64 %607, %608
  %610 = load i8, i8* %91, align 1, !tbaa !28
  %611 = zext i8 %610 to i64
  %612 = add nuw nsw i64 %611, 7
  %613 = lshr i64 %612, 3
  %614 = mul i64 %613, %609
  %615 = icmp ult i64 %614, 4294967296
  br i1 %615, label %617, label %616

616:                                              ; preds = %606
  call void @halide_error(i8* %0, i8* getelementptr inbounds ([53 x i8], [53 x i8]* @.str.6.41, i64 0, i64 0)) #16
  call void @llvm.lifetime.end.p0i8(i64 129, i8* nonnull %477) #18
  call void @llvm.lifetime.end.p0i8(i64 256, i8* nonnull %269) #18
  br label %922

617:                                              ; preds = %606
  %618 = icmp sgt i32 %479, 2
  %619 = select i1 %618, i32 %479, i32 2
  %620 = bitcast [8 x i32]* %12 to i8*
  call void @llvm.lifetime.start.p0i8(i64 32, i8* nonnull %620) #18
  %621 = getelementptr inbounds [8 x i32], [8 x i32]* %12, i64 0, i64 0
  store i32 14, i32* %621, align 4, !tbaa !16
  %622 = getelementptr inbounds [8 x i32], [8 x i32]* %12, i64 0, i64 1
  %623 = shl i32 %619, 2
  %624 = add i32 %623, 4
  %625 = and i32 %624, -8
  %626 = trunc i64 %614 to i32
  %627 = add i32 %476, 40
  %628 = add i32 %627, %625
  %629 = add i32 %628, %626
  store i32 %629, i32* %622, align 4, !tbaa !16
  %630 = getelementptr inbounds [8 x i32], [8 x i32]* %12, i64 0, i64 2
  store i32 6, i32* %630, align 4, !tbaa !16
  %631 = getelementptr inbounds [8 x i32], [8 x i32]* %12, i64 0, i64 3
  store i32 8, i32* %631, align 4, !tbaa !16
  %632 = getelementptr inbounds [8 x i32], [8 x i32]* %12, i64 0, i64 4
  %633 = sext i32 %2 to i64
  %634 = getelementptr inbounds [10 x i8], [10 x i8]* @_ZN6Halide7Runtime8Internal31pixel_type_to_matlab_class_codeE, i64 0, i64 %633
  %635 = load i8, i8* %634, align 1, !tbaa !38
  %636 = zext i8 %635 to i32
  store i32 %636, i32* %632, align 4, !tbaa !16
  %637 = getelementptr inbounds [8 x i32], [8 x i32]* %12, i64 0, i64 5
  store i32 1, i32* %637, align 4, !tbaa !16
  %638 = getelementptr inbounds [8 x i32], [8 x i32]* %12, i64 0, i64 6
  store i32 5, i32* %638, align 4, !tbaa !16
  %639 = getelementptr inbounds [8 x i32], [8 x i32]* %12, i64 0, i64 7
  store i32 %623, i32* %639, align 4, !tbaa !16
  %640 = call i64 @fwrite(i8* nonnull %620, i64 32, i64 1, i8* nonnull %35) #16
  %641 = icmp eq i64 %640, 0
  br i1 %641, label %686, label %642

642:                                              ; preds = %617
  %643 = bitcast [4 x i32]* %13 to i8*
  call void @llvm.lifetime.start.p0i8(i64 16, i8* nonnull %643) #18
  %644 = getelementptr inbounds [4 x i32], [4 x i32]* %13, i64 0, i64 0
  %645 = load i32, i32* %40, align 4, !tbaa !79
  store i32 %645, i32* %644, align 4, !tbaa !16
  %646 = getelementptr inbounds [4 x i32], [4 x i32]* %13, i64 0, i64 1
  %647 = load i32, i32* %42, align 4, !tbaa !79
  store i32 %647, i32* %646, align 4, !tbaa !16
  %648 = getelementptr inbounds [4 x i32], [4 x i32]* %13, i64 0, i64 2
  %649 = load i32, i32* %45, align 4, !tbaa !79
  store i32 %649, i32* %648, align 4, !tbaa !16
  %650 = getelementptr inbounds [4 x i32], [4 x i32]* %13, i64 0, i64 3
  %651 = load i32, i32* %47, align 4, !tbaa !79
  store i32 %651, i32* %650, align 4, !tbaa !16
  %652 = sext i32 %625 to i64
  %653 = call i64 @fwrite(i8* nonnull %643, i64 %652, i64 1, i8* nonnull %35) #16
  %654 = icmp eq i64 %653, 0
  br i1 %654, label %682, label %655

655:                                              ; preds = %642
  %656 = bitcast [2 x i32]* %14 to i8*
  call void @llvm.lifetime.start.p0i8(i64 8, i8* nonnull %656) #18
  %657 = getelementptr inbounds [2 x i32], [2 x i32]* %14, i64 0, i64 0
  store i32 1, i32* %657, align 4, !tbaa !16
  %658 = getelementptr inbounds [2 x i32], [2 x i32]* %14, i64 0, i64 1
  store i32 %268, i32* %658, align 4, !tbaa !16
  %659 = call i64 @fwrite(i8* nonnull %656, i64 8, i64 1, i8* nonnull %35) #16
  %660 = icmp eq i64 %659, 0
  br i1 %660, label %678, label %661

661:                                              ; preds = %655
  %662 = zext i32 %476 to i64
  %663 = call i64 @fwrite(i8* nonnull %269, i64 %662, i64 1, i8* nonnull %35) #16
  %664 = icmp eq i64 %663, 0
  br i1 %664, label %678, label %665

665:                                              ; preds = %661
  %666 = add i32 %626, 7
  %667 = and i32 %666, 7
  %668 = xor i32 %667, 7
  %669 = bitcast [2 x i32]* %15 to i8*
  call void @llvm.lifetime.start.p0i8(i64 8, i8* nonnull %669) #18
  %670 = getelementptr inbounds [2 x i32], [2 x i32]* %15, i64 0, i64 0
  %671 = getelementptr inbounds [10 x i8], [10 x i8]* @_ZN6Halide7Runtime8Internal30pixel_type_to_matlab_type_codeE, i64 0, i64 %633
  %672 = load i8, i8* %671, align 1, !tbaa !38
  %673 = zext i8 %672 to i32
  store i32 %673, i32* %670, align 4, !tbaa !16
  %674 = getelementptr inbounds [2 x i32], [2 x i32]* %15, i64 0, i64 1
  store i32 %626, i32* %674, align 4, !tbaa !16
  %675 = call i64 @fwrite(i8* nonnull %669, i64 8, i64 1, i8* nonnull %35) #16
  %676 = icmp eq i64 %675, 0
  %677 = zext i1 %676 to i32
  call void @llvm.lifetime.end.p0i8(i64 8, i8* nonnull %669) #18
  br label %678

678:                                              ; preds = %665, %661, %655
  %679 = phi i32 [ %668, %665 ], [ 0, %655 ], [ 0, %661 ]
  %680 = phi i32 [ %677, %665 ], [ 1, %655 ], [ 1, %661 ]
  %681 = phi i32 [ -11, %665 ], [ -9, %655 ], [ -10, %661 ]
  call void @llvm.lifetime.end.p0i8(i64 8, i8* nonnull %656) #18
  br label %682

682:                                              ; preds = %678, %642
  %683 = phi i32 [ %679, %678 ], [ 0, %642 ]
  %684 = phi i32 [ %680, %678 ], [ 1, %642 ]
  %685 = phi i32 [ %681, %678 ], [ -8, %642 ]
  call void @llvm.lifetime.end.p0i8(i64 16, i8* nonnull %643) #18
  br label %686

686:                                              ; preds = %682, %617
  %687 = phi i32 [ %683, %682 ], [ 0, %617 ]
  %688 = phi i32 [ %684, %682 ], [ 1, %617 ]
  %689 = phi i32 [ %685, %682 ], [ -7, %617 ]
  call void @llvm.lifetime.end.p0i8(i64 32, i8* nonnull %620) #18
  call void @llvm.lifetime.end.p0i8(i64 129, i8* nonnull %477) #18
  call void @llvm.lifetime.end.p0i8(i64 256, i8* nonnull %269) #18
  %690 = icmp eq i32 %688, 0
  br i1 %690, label %704, label %922

691:                                              ; preds = %242
  %692 = bitcast [5 x i32]* %16 to i8*
  call void @llvm.lifetime.start.p0i8(i64 20, i8* nonnull %692) #18
  %693 = getelementptr inbounds [5 x i32], [5 x i32]* %16, i64 0, i64 0
  %694 = load i32, i32* %40, align 4, !tbaa !79
  store i32 %694, i32* %693, align 4, !tbaa !16
  %695 = getelementptr inbounds [5 x i32], [5 x i32]* %16, i64 0, i64 1
  %696 = load i32, i32* %42, align 4, !tbaa !79
  store i32 %696, i32* %695, align 4, !tbaa !16
  %697 = getelementptr inbounds [5 x i32], [5 x i32]* %16, i64 0, i64 2
  %698 = load i32, i32* %45, align 4, !tbaa !79
  store i32 %698, i32* %697, align 4, !tbaa !16
  %699 = getelementptr inbounds [5 x i32], [5 x i32]* %16, i64 0, i64 3
  %700 = load i32, i32* %47, align 4, !tbaa !79
  store i32 %700, i32* %699, align 4, !tbaa !16
  %701 = getelementptr inbounds [5 x i32], [5 x i32]* %16, i64 0, i64 4
  store i32 %2, i32* %701, align 4, !tbaa !16
  %702 = call i64 @fwrite(i8* nonnull %692, i64 20, i64 1, i8* nonnull %35) #16
  %703 = icmp eq i64 %702, 0
  call void @llvm.lifetime.end.p0i8(i64 20, i8* nonnull %692) #18
  br i1 %703, label %922, label %704

704:                                              ; preds = %691, %686, %239
  %705 = phi i32 [ %687, %686 ], [ 0, %691 ], [ 0, %239 ]
  %706 = getelementptr inbounds [4096 x i8], [4096 x i8]* %17, i64 0, i64 0
  call void @llvm.lifetime.start.p0i8(i64 4096, i8* nonnull %706) #18
  %707 = udiv i32 4096, %95
  %708 = load i32, i32* %47, align 4, !tbaa !79
  %709 = icmp sgt i32 %708, 0
  br i1 %709, label %710, label %909

710:                                              ; preds = %704
  %711 = load i32, i32* %46, align 4, !tbaa !82
  %712 = bitcast [4 x i32]* %18 to i8*
  %713 = getelementptr inbounds [4 x i32], [4 x i32]* %18, i64 0, i64 0
  %714 = getelementptr inbounds [4 x i32], [4 x i32]* %18, i64 0, i64 1
  %715 = getelementptr inbounds [4 x i32], [4 x i32]* %18, i64 0, i64 2
  %716 = getelementptr inbounds [4 x i32], [4 x i32]* %18, i64 0, i64 3
  %717 = getelementptr inbounds %struct.halide_buffer_t, %struct.halide_buffer_t* %3, i64 0, i32 6
  %718 = zext i32 %95 to i64
  %719 = mul nuw nsw i32 %707, %95
  %720 = zext i32 %719 to i64
  %721 = load i32, i32* %44, align 4, !tbaa !82
  %722 = load i32, i32* %45, align 4, !tbaa !79
  br label %723

723:                                              ; preds = %891, %710
  %724 = phi i32 [ %711, %710 ], [ %892, %891 ]
  %725 = phi i32 [ %708, %710 ], [ %893, %891 ]
  %726 = phi i32 [ %721, %710 ], [ %894, %891 ]
  %727 = phi i32 [ %722, %710 ], [ %895, %891 ]
  %728 = phi i32 [ %722, %710 ], [ %896, %891 ]
  %729 = phi i32 [ %721, %710 ], [ %897, %891 ]
  %730 = phi i32 [ %711, %710 ], [ %899, %891 ]
  %731 = phi i32 [ 0, %710 ], [ %898, %891 ]
  %732 = icmp sgt i32 %728, 0
  br i1 %732, label %733, label %891

733:                                              ; preds = %723
  %734 = load i32, i32* %41, align 4, !tbaa !82
  %735 = load i32, i32* %42, align 4, !tbaa !79
  br label %736

736:                                              ; preds = %877, %733
  %737 = phi i32 [ %878, %877 ], [ %734, %733 ]
  %738 = phi i32 [ %879, %877 ], [ %735, %733 ]
  %739 = phi i32 [ %880, %877 ], [ %726, %733 ]
  %740 = phi i32 [ %881, %877 ], [ %727, %733 ]
  %741 = phi i32 [ %882, %877 ], [ %735, %733 ]
  %742 = phi i32 [ %883, %877 ], [ %734, %733 ]
  %743 = phi i32 [ %885, %877 ], [ %729, %733 ]
  %744 = phi i32 [ %884, %877 ], [ %731, %733 ]
  %745 = icmp sgt i32 %741, 0
  br i1 %745, label %.preheader25.preheader, label %877

.preheader25.preheader:                           ; preds = %736
  %.pre = load i32, i32* %40, align 4, !tbaa !79
  br label %.preheader25

.preheader25:                                     ; preds = %.preheader25.preheader, %.loopexit24
  %746 = phi i32 [ %867, %.loopexit24 ], [ %737, %.preheader25.preheader ]
  %747 = phi i32 [ %868, %.loopexit24 ], [ %738, %.preheader25.preheader ]
  %748 = phi i32 [ %869, %.loopexit24 ], [ %.pre, %.preheader25.preheader ]
  %749 = phi i32 [ %871, %.loopexit24 ], [ %742, %.preheader25.preheader ]
  %750 = phi i32 [ %870, %.loopexit24 ], [ %744, %.preheader25.preheader ]
  %751 = icmp sgt i32 %748, 0
  br i1 %751, label %752, label %.loopexit24

752:                                              ; preds = %.preheader25
  %753 = load i32, i32* %39, align 4, !tbaa !82
  br label %754

754:                                              ; preds = %860, %752
  %755 = phi i32 [ %862, %860 ], [ %753, %752 ]
  %756 = phi i32 [ %861, %860 ], [ %750, %752 ]
  %757 = add nsw i32 %756, 1
  call void @llvm.lifetime.start.p0i8(i64 16, i8* nonnull %712) #18
  store i32 %755, i32* %713, align 4, !tbaa !16
  store i32 %749, i32* %714, align 4, !tbaa !16
  store i32 %743, i32* %715, align 4, !tbaa !16
  store i32 %730, i32* %716, align 4, !tbaa !16
  %758 = load i32, i32* %29, align 4, !tbaa !76
  %759 = icmp sgt i32 %758, 0
  br i1 %759, label %760, label %.loopexit

760:                                              ; preds = %754
  %761 = load %struct.halide_dimension_t*, %struct.halide_dimension_t** %717, align 8, !tbaa !77
  %762 = zext i32 %758 to i64
  %763 = getelementptr inbounds %struct.halide_dimension_t, %struct.halide_dimension_t* %761, i64 0, i32 2
  %764 = load i32, i32* %763, align 4, !tbaa !83
  %765 = sext i32 %764 to i64
  %766 = getelementptr inbounds %struct.halide_dimension_t, %struct.halide_dimension_t* %761, i64 0, i32 0
  %767 = load i32, i32* %766, align 4, !tbaa !82
  %768 = sub nsw i32 %755, %767
  %769 = sext i32 %768 to i64
  %770 = mul nsw i64 %769, %765
  %771 = icmp eq i32 %758, 1
  br i1 %771, label %.loopexit, label %.preheader.preheader, !llvm.loop !121

.preheader.preheader:                             ; preds = %760
  %772 = getelementptr inbounds %struct.halide_dimension_t, %struct.halide_dimension_t* %761, i64 1, i32 2
  %773 = load i32, i32* %772, align 4, !tbaa !83
  %774 = sext i32 %773 to i64
  %775 = getelementptr inbounds %struct.halide_dimension_t, %struct.halide_dimension_t* %761, i64 1, i32 0
  %776 = load i32, i32* %775, align 4, !tbaa !82
  %777 = sub nsw i32 %749, %776
  %778 = sext i32 %777 to i64
  %779 = mul nsw i64 %778, %774
  %780 = add nsw i64 %779, %770
  %781 = icmp eq i32 %758, 2
  br i1 %781, label %.loopexit, label %.preheader..preheader_crit_edge.lr.ph, !llvm.loop !121

.preheader..preheader_crit_edge.lr.ph:            ; preds = %.preheader.preheader
  %782 = add nsw i64 %762, -2
  %min.iters.check228 = icmp ult i64 %782, 17
  br i1 %min.iters.check228, label %.preheader..preheader_crit_edge.preheader, label %vector.ph229

vector.ph229:                                     ; preds = %.preheader..preheader_crit_edge.lr.ph
  %n.mod.vf230 = and i64 %782, 15
  %783 = icmp eq i64 %n.mod.vf230, 0
  %784 = select i1 %783, i64 16, i64 %n.mod.vf230
  %n.vec231 = sub nsw i64 %782, %784
  %ind.end235 = add nsw i64 %n.vec231, 2
  %785 = insertelement <4 x i64> <i64 poison, i64 0, i64 0, i64 0>, i64 %780, i32 0
  br label %vector.body227

vector.body227:                                   ; preds = %vector.body227, %vector.ph229
  %index232 = phi i64 [ 0, %vector.ph229 ], [ %index.next233, %vector.body227 ]
  %vec.phi238 = phi <4 x i64> [ %785, %vector.ph229 ], [ %825, %vector.body227 ]
  %vec.phi239 = phi <4 x i64> [ zeroinitializer, %vector.ph229 ], [ %826, %vector.body227 ]
  %vec.phi240 = phi <4 x i64> [ zeroinitializer, %vector.ph229 ], [ %827, %vector.body227 ]
  %vec.phi241 = phi <4 x i64> [ zeroinitializer, %vector.ph229 ], [ %828, %vector.body227 ]
  %offset.idx237 = or i64 %index232, 2
  %786 = or i64 %index232, 6
  %787 = or i64 %index232, 10
  %788 = or i64 %index232, 14
  %789 = getelementptr inbounds [4 x i32], [4 x i32]* %18, i64 0, i64 %offset.idx237
  %790 = bitcast i32* %789 to <4 x i32>*
  %wide.load242 = load <4 x i32>, <4 x i32>* %790, align 4, !tbaa !16
  %791 = getelementptr inbounds i32, i32* %789, i64 4
  %792 = bitcast i32* %791 to <4 x i32>*
  %wide.load243 = load <4 x i32>, <4 x i32>* %792, align 4, !tbaa !16
  %793 = getelementptr inbounds i32, i32* %789, i64 8
  %794 = bitcast i32* %793 to <4 x i32>*
  %wide.load244 = load <4 x i32>, <4 x i32>* %794, align 4, !tbaa !16
  %795 = getelementptr inbounds i32, i32* %789, i64 12
  %796 = bitcast i32* %795 to <4 x i32>*
  %wide.load245 = load <4 x i32>, <4 x i32>* %796, align 4, !tbaa !16
  %797 = getelementptr inbounds %struct.halide_dimension_t, %struct.halide_dimension_t* %761, i64 %offset.idx237, i32 2
  %798 = getelementptr inbounds %struct.halide_dimension_t, %struct.halide_dimension_t* %761, i64 %786, i32 2
  %799 = getelementptr inbounds %struct.halide_dimension_t, %struct.halide_dimension_t* %761, i64 %787, i32 2
  %800 = getelementptr inbounds %struct.halide_dimension_t, %struct.halide_dimension_t* %761, i64 %788, i32 2
  %801 = getelementptr inbounds i32, i32* %797, i64 -2
  %802 = bitcast i32* %801 to <16 x i32>*
  %803 = getelementptr inbounds i32, i32* %798, i64 -2
  %804 = bitcast i32* %803 to <16 x i32>*
  %805 = getelementptr inbounds i32, i32* %799, i64 -2
  %806 = bitcast i32* %805 to <16 x i32>*
  %807 = getelementptr inbounds i32, i32* %800, i64 -2
  %808 = bitcast i32* %807 to <16 x i32>*
  %wide.vec246 = load <16 x i32>, <16 x i32>* %802, align 4, !tbaa !16
  %wide.vec247 = load <16 x i32>, <16 x i32>* %804, align 4, !tbaa !16
  %wide.vec248 = load <16 x i32>, <16 x i32>* %806, align 4, !tbaa !16
  %wide.vec249 = load <16 x i32>, <16 x i32>* %808, align 4, !tbaa !16
  %strided.vec250 = shufflevector <16 x i32> %wide.vec246, <16 x i32> poison, <4 x i32> <i32 0, i32 4, i32 8, i32 12>
  %strided.vec251 = shufflevector <16 x i32> %wide.vec247, <16 x i32> poison, <4 x i32> <i32 0, i32 4, i32 8, i32 12>
  %strided.vec252 = shufflevector <16 x i32> %wide.vec248, <16 x i32> poison, <4 x i32> <i32 0, i32 4, i32 8, i32 12>
  %strided.vec253 = shufflevector <16 x i32> %wide.vec249, <16 x i32> poison, <4 x i32> <i32 0, i32 4, i32 8, i32 12>
  %strided.vec254 = shufflevector <16 x i32> %wide.vec246, <16 x i32> poison, <4 x i32> <i32 2, i32 6, i32 10, i32 14>
  %strided.vec255 = shufflevector <16 x i32> %wide.vec247, <16 x i32> poison, <4 x i32> <i32 2, i32 6, i32 10, i32 14>
  %strided.vec256 = shufflevector <16 x i32> %wide.vec248, <16 x i32> poison, <4 x i32> <i32 2, i32 6, i32 10, i32 14>
  %strided.vec257 = shufflevector <16 x i32> %wide.vec249, <16 x i32> poison, <4 x i32> <i32 2, i32 6, i32 10, i32 14>
  %809 = sext <4 x i32> %strided.vec254 to <4 x i64>
  %810 = sext <4 x i32> %strided.vec255 to <4 x i64>
  %811 = sext <4 x i32> %strided.vec256 to <4 x i64>
  %812 = sext <4 x i32> %strided.vec257 to <4 x i64>
  %813 = sub nsw <4 x i32> %wide.load242, %strided.vec250
  %814 = sub nsw <4 x i32> %wide.load243, %strided.vec251
  %815 = sub nsw <4 x i32> %wide.load244, %strided.vec252
  %816 = sub nsw <4 x i32> %wide.load245, %strided.vec253
  %817 = sext <4 x i32> %813 to <4 x i64>
  %818 = sext <4 x i32> %814 to <4 x i64>
  %819 = sext <4 x i32> %815 to <4 x i64>
  %820 = sext <4 x i32> %816 to <4 x i64>
  %821 = mul nsw <4 x i64> %817, %809
  %822 = mul nsw <4 x i64> %818, %810
  %823 = mul nsw <4 x i64> %819, %811
  %824 = mul nsw <4 x i64> %820, %812
  %825 = add <4 x i64> %821, %vec.phi238
  %826 = add <4 x i64> %822, %vec.phi239
  %827 = add <4 x i64> %823, %vec.phi240
  %828 = add <4 x i64> %824, %vec.phi241
  %index.next233 = add i64 %index232, 16
  %829 = icmp eq i64 %index.next233, %n.vec231
  br i1 %829, label %middle.block225, label %vector.body227, !llvm.loop !122

middle.block225:                                  ; preds = %vector.body227
  %bin.rdx258 = add <4 x i64> %826, %825
  %bin.rdx259 = add <4 x i64> %827, %bin.rdx258
  %bin.rdx260 = add <4 x i64> %828, %bin.rdx259
  %830 = call i64 @llvm.vector.reduce.add.v4i64(<4 x i64> %bin.rdx260)
  br label %.preheader..preheader_crit_edge.preheader

.preheader..preheader_crit_edge.preheader:        ; preds = %middle.block225, %.preheader..preheader_crit_edge.lr.ph
  %.ph = phi i64 [ 2, %.preheader..preheader_crit_edge.lr.ph ], [ %ind.end235, %middle.block225 ]
  %.ph264 = phi i64 [ %780, %.preheader..preheader_crit_edge.lr.ph ], [ %830, %middle.block225 ]
  br label %.preheader..preheader_crit_edge

.preheader..preheader_crit_edge:                  ; preds = %.preheader..preheader_crit_edge.preheader, %.preheader..preheader_crit_edge
  %831 = phi i64 [ %842, %.preheader..preheader_crit_edge ], [ %.ph, %.preheader..preheader_crit_edge.preheader ]
  %832 = phi i64 [ %841, %.preheader..preheader_crit_edge ], [ %.ph264, %.preheader..preheader_crit_edge.preheader ]
  %.phi.trans.insert = getelementptr inbounds [4 x i32], [4 x i32]* %18, i64 0, i64 %831
  %.pre63 = load i32, i32* %.phi.trans.insert, align 4, !tbaa !16
  %833 = getelementptr inbounds %struct.halide_dimension_t, %struct.halide_dimension_t* %761, i64 %831, i32 2
  %834 = load i32, i32* %833, align 4, !tbaa !83
  %835 = sext i32 %834 to i64
  %836 = getelementptr inbounds %struct.halide_dimension_t, %struct.halide_dimension_t* %761, i64 %831, i32 0
  %837 = load i32, i32* %836, align 4, !tbaa !82
  %838 = sub nsw i32 %.pre63, %837
  %839 = sext i32 %838 to i64
  %840 = mul nsw i64 %839, %835
  %841 = add nsw i64 %840, %832
  %842 = add nuw nsw i64 %831, 1
  %843 = icmp eq i64 %842, %762
  br i1 %843, label %.loopexit, label %.preheader..preheader_crit_edge, !llvm.loop !123

.loopexit:                                        ; preds = %.preheader..preheader_crit_edge, %.preheader.preheader, %760, %754
  %844 = phi i64 [ 0, %754 ], [ %770, %760 ], [ %780, %.preheader.preheader ], [ %841, %.preheader..preheader_crit_edge ]
  %845 = load i8*, i8** %20, align 8, !tbaa !73
  %846 = load i8, i8* %91, align 1, !tbaa !28
  %847 = zext i8 %846 to i64
  %848 = add nuw nsw i64 %847, 7
  %849 = lshr i64 %848, 3
  %850 = mul nsw i64 %849, %844
  %851 = getelementptr inbounds i8, i8* %845, i64 %850
  %852 = mul nsw i32 %756, %95
  %853 = sext i32 %852 to i64
  %854 = getelementptr inbounds [4096 x i8], [4096 x i8]* %17, i64 0, i64 %853
  %855 = call i8* @memcpy(i8* nonnull %854, i8* %851, i64 %718) #16
  %856 = icmp eq i32 %757, %707
  br i1 %856, label %857, label %860

857:                                              ; preds = %.loopexit
  %858 = call i64 @fwrite(i8* nonnull %706, i64 %720, i64 1, i8* nonnull %35) #16
  %859 = icmp eq i64 %858, 0
  br i1 %859, label %919, label %860

860:                                              ; preds = %857, %.loopexit
  %861 = phi i32 [ 0, %857 ], [ %757, %.loopexit ]
  call void @llvm.lifetime.end.p0i8(i64 16, i8* nonnull %712) #18
  %862 = add nsw i32 %755, 1
  %863 = load i32, i32* %40, align 4, !tbaa !79
  %864 = load i32, i32* %39, align 4, !tbaa !82
  %865 = add nsw i32 %864, %863
  %866 = icmp slt i32 %862, %865
  br i1 %866, label %754, label %.loopexit24.loopexit, !llvm.loop !124

.loopexit24.loopexit:                             ; preds = %860
  %.pre64 = load i32, i32* %42, align 4, !tbaa !79
  %.pre65 = load i32, i32* %41, align 4, !tbaa !82
  br label %.loopexit24

.loopexit24:                                      ; preds = %.loopexit24.loopexit, %.preheader25
  %867 = phi i32 [ %746, %.preheader25 ], [ %.pre65, %.loopexit24.loopexit ]
  %868 = phi i32 [ %747, %.preheader25 ], [ %.pre64, %.loopexit24.loopexit ]
  %869 = phi i32 [ %748, %.preheader25 ], [ %863, %.loopexit24.loopexit ]
  %870 = phi i32 [ %750, %.preheader25 ], [ %861, %.loopexit24.loopexit ]
  %871 = add nsw i32 %749, 1
  %872 = add nsw i32 %867, %868
  %873 = icmp slt i32 %871, %872
  br i1 %873, label %.preheader25, label %874, !llvm.loop !125

874:                                              ; preds = %.loopexit24
  %875 = load i32, i32* %45, align 4, !tbaa !79
  %876 = load i32, i32* %44, align 4, !tbaa !82
  br label %877

877:                                              ; preds = %874, %736
  %878 = phi i32 [ %737, %736 ], [ %867, %874 ]
  %879 = phi i32 [ %738, %736 ], [ %868, %874 ]
  %880 = phi i32 [ %739, %736 ], [ %876, %874 ]
  %881 = phi i32 [ %740, %736 ], [ %875, %874 ]
  %882 = phi i32 [ %741, %736 ], [ %868, %874 ]
  %883 = phi i32 [ %742, %736 ], [ %867, %874 ]
  %884 = phi i32 [ %744, %736 ], [ %870, %874 ]
  %885 = add nsw i32 %743, 1
  %886 = add nsw i32 %881, %880
  %887 = icmp slt i32 %885, %886
  br i1 %887, label %736, label %888, !llvm.loop !126

888:                                              ; preds = %877
  %889 = load i32, i32* %47, align 4, !tbaa !79
  %890 = load i32, i32* %46, align 4, !tbaa !82
  br label %891

891:                                              ; preds = %888, %723
  %892 = phi i32 [ %724, %723 ], [ %890, %888 ]
  %893 = phi i32 [ %725, %723 ], [ %889, %888 ]
  %894 = phi i32 [ %726, %723 ], [ %880, %888 ]
  %895 = phi i32 [ %727, %723 ], [ %881, %888 ]
  %896 = phi i32 [ %728, %723 ], [ %881, %888 ]
  %897 = phi i32 [ %729, %723 ], [ %880, %888 ]
  %898 = phi i32 [ %731, %723 ], [ %884, %888 ]
  %899 = add nsw i32 %730, 1
  %900 = add nsw i32 %893, %892
  %901 = icmp slt i32 %899, %900
  br i1 %901, label %723, label %902, !llvm.loop !127

902:                                              ; preds = %891
  %903 = icmp sgt i32 %898, 0
  br i1 %903, label %904, label %909

904:                                              ; preds = %902
  %905 = mul nsw i32 %898, %95
  %906 = sext i32 %905 to i64
  %907 = call i64 @fwrite(i8* nonnull %706, i64 %906, i64 1, i8* nonnull %35) #16
  %908 = icmp eq i64 %907, 0
  br i1 %908, label %920, label %909

909:                                              ; preds = %904, %902, %704
  %910 = bitcast i64* %19 to i8*
  call void @llvm.lifetime.start.p0i8(i64 8, i8* nonnull %910) #18
  store i64 0, i64* %19, align 8, !tbaa !64
  %911 = icmp eq i32 %705, 0
  br i1 %911, label %916, label %912

912:                                              ; preds = %909
  %913 = zext i32 %705 to i64
  %914 = call i64 @fwrite(i8* nonnull %910, i64 %913, i64 1, i8* nonnull %35) #16
  %915 = icmp eq i64 %914, 0
  br i1 %915, label %917, label %916

916:                                              ; preds = %912, %909
  br label %917

917:                                              ; preds = %916, %912
  %918 = phi i32 [ 0, %916 ], [ -16, %912 ]
  call void @llvm.lifetime.end.p0i8(i64 8, i8* nonnull %910) #18
  br label %920

919:                                              ; preds = %857
  call void @llvm.lifetime.end.p0i8(i64 16, i8* nonnull %712) #18
  br label %920

920:                                              ; preds = %919, %917, %904
  %921 = phi i32 [ %918, %917 ], [ -14, %904 ], [ -13, %919 ]
  call void @llvm.lifetime.end.p0i8(i64 4096, i8* nonnull %706) #18
  br label %922

922:                                              ; preds = %920, %691, %686, %616, %240
  %923 = phi i32 [ %921, %920 ], [ %241, %240 ], [ %689, %686 ], [ -12, %691 ], [ -6, %616 ]
  call void @llvm.lifetime.end.p0i8(i64 64, i8* nonnull %38) #18
  %924 = call i32 @fclose(i8* nonnull %35) #16
  br label %925

925:                                              ; preds = %922, %33, %32, %27
  %926 = phi i32 [ -1, %27 ], [ -1, %32 ], [ %923, %922 ], [ -2, %33 ]
  ret i32 %926

927:                                              ; preds = %51
  %928 = getelementptr inbounds %struct.halide_dimension_t, %struct.halide_dimension_t* %53, i64 1
  %929 = getelementptr inbounds [4 x %struct.halide_dimension_t], [4 x %struct.halide_dimension_t]* %5, i64 0, i64 1
  %930 = bitcast %struct.halide_dimension_t* %929 to i8*
  %931 = bitcast %struct.halide_dimension_t* %928 to i8*
  call void @llvm.memcpy.p0i8.p0i8.i64(i8* nonnull align 4 dereferenceable(16) %930, i8* nonnull align 4 dereferenceable(16) %931, i64 16, i1 false), !tbaa.struct !78
  %932 = getelementptr inbounds [4 x %struct.halide_dimension_t], [4 x %struct.halide_dimension_t]* %5, i64 0, i64 1, i32 1
  %933 = load i32, i32* %932, align 4, !tbaa !79
  %934 = zext i32 %933 to i64
  %935 = mul nuw i64 %62, %934
  %exitcond.not.1 = icmp eq i64 %57, 2
  br i1 %exitcond.not.1, label %63, label %936, !llvm.loop !81

936:                                              ; preds = %927
  %937 = getelementptr inbounds %struct.halide_dimension_t, %struct.halide_dimension_t* %53, i64 2
  %938 = getelementptr inbounds [4 x %struct.halide_dimension_t], [4 x %struct.halide_dimension_t]* %5, i64 0, i64 2
  %939 = bitcast %struct.halide_dimension_t* %938 to i8*
  %940 = bitcast %struct.halide_dimension_t* %937 to i8*
  call void @llvm.memcpy.p0i8.p0i8.i64(i8* nonnull align 4 dereferenceable(16) %939, i8* nonnull align 4 dereferenceable(16) %940, i64 16, i1 false), !tbaa.struct !78
  %941 = getelementptr inbounds [4 x %struct.halide_dimension_t], [4 x %struct.halide_dimension_t]* %5, i64 0, i64 2, i32 1
  %942 = load i32, i32* %941, align 4, !tbaa !79
  %943 = zext i32 %942 to i64
  %944 = mul i64 %935, %943
  %exitcond.not.2 = icmp eq i64 %57, 3
  br i1 %exitcond.not.2, label %63, label %945, !llvm.loop !81

945:                                              ; preds = %936
  %946 = getelementptr inbounds %struct.halide_dimension_t, %struct.halide_dimension_t* %53, i64 3
  %947 = getelementptr inbounds [4 x %struct.halide_dimension_t], [4 x %struct.halide_dimension_t]* %5, i64 0, i64 3
  %948 = bitcast %struct.halide_dimension_t* %947 to i8*
  %949 = bitcast %struct.halide_dimension_t* %946 to i8*
  call void @llvm.memcpy.p0i8.p0i8.i64(i8* nonnull align 4 dereferenceable(16) %948, i8* nonnull align 4 dereferenceable(16) %949, i64 16, i1 false), !tbaa.struct !78
  %950 = getelementptr inbounds [4 x %struct.halide_dimension_t], [4 x %struct.halide_dimension_t]* %5, i64 0, i64 3, i32 1
  %951 = load i32, i32* %950, align 4, !tbaa !79
  %952 = zext i32 %951 to i64
  %953 = mul i64 %944, %952
  br label %63
}

declare i64 @fwrite(i8*, i64, i64, i8*) local_unnamed_addr #1

; Function Attrs: nounwind mustprogress
define weak void @halide_cache_cleanup() #0 {
  tail call void @halide_memoization_cache_cleanup() #17
  ret void
}

; Function Attrs: nounwind mustprogress
define weak void @halide_memoization_cache_cleanup() local_unnamed_addr #0 {
  br label %2

1:                                                ; preds = %.loopexit
  store i64 0, i64* @_ZN6Halide7Runtime8Internal18current_cache_sizeE, align 8, !tbaa !64
  store %"struct.Halide::Runtime::Internal::CacheEntry"* null, %"struct.Halide::Runtime::Internal::CacheEntry"** @_ZN6Halide7Runtime8Internal18most_recently_usedE, align 8, !tbaa !12
  store %"struct.Halide::Runtime::Internal::CacheEntry"* null, %"struct.Halide::Runtime::Internal::CacheEntry"** @_ZN6Halide7Runtime8Internal19least_recently_usedE, align 8, !tbaa !12
  ret void

2:                                                ; preds = %.loopexit, %0
  %3 = phi i64 [ 0, %0 ], [ %12, %.loopexit ]
  %4 = getelementptr inbounds [256 x %"struct.Halide::Runtime::Internal::CacheEntry"*], [256 x %"struct.Halide::Runtime::Internal::CacheEntry"*]* @_ZN6Halide7Runtime8Internal13cache_entriesE, i64 0, i64 %3
  %5 = load %"struct.Halide::Runtime::Internal::CacheEntry"*, %"struct.Halide::Runtime::Internal::CacheEntry"** %4, align 8, !tbaa !12
  store %"struct.Halide::Runtime::Internal::CacheEntry"* null, %"struct.Halide::Runtime::Internal::CacheEntry"** %4, align 8, !tbaa !12
  %6 = icmp eq %"struct.Halide::Runtime::Internal::CacheEntry"* %5, null
  br i1 %6, label %.loopexit, label %.preheader

.preheader:                                       ; preds = %2, %.preheader
  %7 = phi %"struct.Halide::Runtime::Internal::CacheEntry"* [ %9, %.preheader ], [ %5, %2 ]
  %8 = getelementptr inbounds %"struct.Halide::Runtime::Internal::CacheEntry", %"struct.Halide::Runtime::Internal::CacheEntry"* %7, i64 0, i32 0
  %9 = load %"struct.Halide::Runtime::Internal::CacheEntry"*, %"struct.Halide::Runtime::Internal::CacheEntry"** %8, align 8, !tbaa !128
  tail call void @_ZN6Halide7Runtime8Internal10CacheEntry7destroyEv(%"struct.Halide::Runtime::Internal::CacheEntry"* nonnull dereferenceable(96) %7) #17
  %10 = bitcast %"struct.Halide::Runtime::Internal::CacheEntry"* %7 to i8*
  tail call void @halide_free(i8* null, i8* nonnull %10) #16
  %11 = icmp eq %"struct.Halide::Runtime::Internal::CacheEntry"* %9, null
  br i1 %11, label %.loopexit, label %.preheader, !llvm.loop !131

.loopexit:                                        ; preds = %.preheader, %2
  %12 = add nuw nsw i64 %3, 1
  %13 = icmp eq i64 %12, 256
  br i1 %13, label %1, label %2, !llvm.loop !132
}

; Function Attrs: nounwind mustprogress
define linkonce void @_ZN6Halide7Runtime8Internal10CacheEntry7destroyEv(%"struct.Halide::Runtime::Internal::CacheEntry"* nonnull dereferenceable(96) %0) local_unnamed_addr #0 align 2 {
  %2 = getelementptr inbounds %"struct.Halide::Runtime::Internal::CacheEntry", %"struct.Halide::Runtime::Internal::CacheEntry"* %0, i64 0, i32 8
  %3 = load i32, i32* %2, align 8, !tbaa !133
  %4 = icmp eq i32 %3, 0
  br i1 %4, label %.loopexit, label %5

5:                                                ; preds = %1
  %6 = getelementptr inbounds %"struct.Halide::Runtime::Internal::CacheEntry", %"struct.Halide::Runtime::Internal::CacheEntry"* %0, i64 0, i32 11
  br label %9

.loopexit:                                        ; preds = %9, %1
  %7 = getelementptr inbounds %"struct.Halide::Runtime::Internal::CacheEntry", %"struct.Halide::Runtime::Internal::CacheEntry"* %0, i64 0, i32 3
  %8 = load i8*, i8** %7, align 8, !tbaa !134
  tail call void @halide_free(i8* null, i8* %8) #16
  ret void

9:                                                ; preds = %9, %5
  %10 = phi i64 [ 0, %5 ], [ %19, %9 ]
  %11 = load %struct.halide_buffer_t*, %struct.halide_buffer_t** %6, align 8, !tbaa !135
  %12 = getelementptr inbounds %struct.halide_buffer_t, %struct.halide_buffer_t* %11, i64 %10
  %13 = tail call i32 @halide_device_free(i8* null, %struct.halide_buffer_t* %12) #16
  %14 = load %struct.halide_buffer_t*, %struct.halide_buffer_t** %6, align 8, !tbaa !135
  %15 = getelementptr inbounds %struct.halide_buffer_t, %struct.halide_buffer_t* %14, i64 %10, i32 2
  %16 = load i8*, i8** %15, align 8, !tbaa !73
  %17 = tail call %"struct.Halide::Runtime::Internal::CacheBlockHeader"* @_ZN6Halide7Runtime8Internal21get_pointer_to_headerEPh(i8* %16) #17
  %18 = bitcast %"struct.Halide::Runtime::Internal::CacheBlockHeader"* %17 to i8*
  tail call void @halide_free(i8* null, i8* %18) #16
  %19 = add nuw nsw i64 %10, 1
  %20 = load i32, i32* %2, align 8, !tbaa !133
  %21 = zext i32 %20 to i64
  %22 = icmp ult i64 %19, %21
  br i1 %22, label %9, label %.loopexit, !llvm.loop !136
}

; Function Attrs: nounwind willreturn mustprogress
define linkonce %"struct.Halide::Runtime::Internal::CacheBlockHeader"* @_ZN6Halide7Runtime8Internal21get_pointer_to_headerEPh(i8* %0) local_unnamed_addr #2 {
  %2 = getelementptr inbounds i8, i8* %0, i64 -64
  %3 = bitcast i8* %2 to %"struct.Halide::Runtime::Internal::CacheBlockHeader"*
  ret %"struct.Halide::Runtime::Internal::CacheBlockHeader"* %3
}

; Function Attrs: nounwind mustprogress
define linkonce void @_ZN6Halide7Runtime8Internal18copy_memory_helperERKNS1_11device_copyEixx(%"struct.Halide::Runtime::Internal::device_copy"* nonnull align 8 dereferenceable(416) %0, i32 %1, i64 %2, i64 %3) local_unnamed_addr #0 {
  %5 = icmp sgt i32 %1, -1
  br i1 %5, label %.preheader, label %.loopexit2

.preheader:                                       ; preds = %4, %11
  %6 = phi i32 [ %12, %11 ], [ %1, %4 ]
  %7 = zext i32 %6 to i64
  %8 = getelementptr inbounds %"struct.Halide::Runtime::Internal::device_copy", %"struct.Halide::Runtime::Internal::device_copy"* %0, i64 0, i32 3, i64 %7
  %9 = load i64, i64* %8, align 8, !tbaa !64
  %10 = icmp eq i64 %9, 1
  br i1 %10, label %11, label %.loopexit2

11:                                               ; preds = %.preheader
  %12 = add nsw i32 %6, -1
  %13 = icmp sgt i32 %6, 0
  br i1 %13, label %.preheader, label %.loopexit3, !llvm.loop !137

.loopexit2:                                       ; preds = %.preheader, %4
  %14 = phi i32 [ %1, %4 ], [ %6, %.preheader ]
  %15 = icmp eq i32 %14, -1
  br i1 %15, label %.loopexit3, label %16

16:                                               ; preds = %.loopexit2
  %17 = sext i32 %14 to i64
  %18 = getelementptr inbounds %"struct.Halide::Runtime::Internal::device_copy", %"struct.Halide::Runtime::Internal::device_copy"* %0, i64 0, i32 3, i64 %17
  %19 = load i64, i64* %18, align 8, !tbaa !64
  %20 = icmp eq i64 %19, 0
  br i1 %20, label %.loopexit, label %21

21:                                               ; preds = %16
  %22 = add nsw i32 %14, -1
  %23 = getelementptr inbounds %"struct.Halide::Runtime::Internal::device_copy", %"struct.Halide::Runtime::Internal::device_copy"* %0, i64 0, i32 4, i64 %17
  %24 = getelementptr inbounds %"struct.Halide::Runtime::Internal::device_copy", %"struct.Halide::Runtime::Internal::device_copy"* %0, i64 0, i32 5, i64 %17
  br label %36

.loopexit3:                                       ; preds = %11, %.loopexit2
  %25 = getelementptr inbounds %"struct.Halide::Runtime::Internal::device_copy", %"struct.Halide::Runtime::Internal::device_copy"* %0, i64 0, i32 0
  %26 = load i64, i64* %25, align 8, !tbaa !138
  %27 = add i64 %26, %2
  %28 = inttoptr i64 %27 to i8*
  %29 = getelementptr inbounds %"struct.Halide::Runtime::Internal::device_copy", %"struct.Halide::Runtime::Internal::device_copy"* %0, i64 0, i32 1
  %30 = load i64, i64* %29, align 8, !tbaa !140
  %31 = add i64 %30, %3
  %32 = inttoptr i64 %31 to i8*
  %33 = getelementptr inbounds %"struct.Halide::Runtime::Internal::device_copy", %"struct.Halide::Runtime::Internal::device_copy"* %0, i64 0, i32 6
  %34 = load i64, i64* %33, align 8, !tbaa !141
  %35 = tail call i8* @memcpy(i8* %32, i8* %28, i64 %34) #16
  br label %.loopexit

36:                                               ; preds = %36, %21
  %37 = phi i64 [ 0, %21 ], [ %44, %36 ]
  %38 = phi i64 [ %2, %21 ], [ %41, %36 ]
  %39 = phi i64 [ %3, %21 ], [ %43, %36 ]
  tail call void @_ZN6Halide7Runtime8Internal18copy_memory_helperERKNS1_11device_copyEixx(%"struct.Halide::Runtime::Internal::device_copy"* nonnull align 8 dereferenceable(416) %0, i32 %22, i64 %38, i64 %39) #17
  %40 = load i64, i64* %23, align 8, !tbaa !64
  %41 = add i64 %40, %38
  %42 = load i64, i64* %24, align 8, !tbaa !64
  %43 = add i64 %42, %39
  %44 = add nuw i64 %37, 1
  %45 = load i64, i64* %18, align 8, !tbaa !64
  %46 = icmp ult i64 %44, %45
  br i1 %46, label %36, label %.loopexit, !llvm.loop !142

.loopexit:                                        ; preds = %36, %.loopexit3, %16
  ret void
}

; Function Attrs: nounwind mustprogress
define linkonce void @_ZN6Halide7Runtime8Internal11copy_memoryERKNS1_11device_copyEPv(%"struct.Halide::Runtime::Internal::device_copy"* nonnull align 8 dereferenceable(416) %0, i8* %1) local_unnamed_addr #0 {
  %3 = getelementptr inbounds %"struct.Halide::Runtime::Internal::device_copy", %"struct.Halide::Runtime::Internal::device_copy"* %0, i64 0, i32 0
  %4 = load i64, i64* %3, align 8, !tbaa !138
  %5 = getelementptr inbounds %"struct.Halide::Runtime::Internal::device_copy", %"struct.Halide::Runtime::Internal::device_copy"* %0, i64 0, i32 1
  %6 = load i64, i64* %5, align 8, !tbaa !140
  %7 = icmp eq i64 %4, %6
  br i1 %7, label %11, label %8

8:                                                ; preds = %2
  %9 = getelementptr inbounds %"struct.Halide::Runtime::Internal::device_copy", %"struct.Halide::Runtime::Internal::device_copy"* %0, i64 0, i32 2
  %10 = load i64, i64* %9, align 8, !tbaa !143
  tail call void @_ZN6Halide7Runtime8Internal18copy_memory_helperERKNS1_11device_copyEixx(%"struct.Halide::Runtime::Internal::device_copy"* nonnull align 8 dereferenceable(416) %0, i32 15, i64 %10, i64 0) #17
  br label %11

11:                                               ; preds = %8, %2
  ret void
}

; Function Attrs: nounwind mustprogress
define linkonce void @_ZN6Halide7Runtime8Internal16make_buffer_copyEPK15halide_buffer_tbS4_b(%"struct.Halide::Runtime::Internal::device_copy"* noalias sret(%"struct.Halide::Runtime::Internal::device_copy") align 8 %0, %struct.halide_buffer_t* %1, i1 zeroext %2, %struct.halide_buffer_t* %3, i1 zeroext %4) local_unnamed_addr #0 {
  %6 = alloca %"struct.Halide::Runtime::Internal::device_copy", align 8
  %7 = bitcast %"struct.Halide::Runtime::Internal::device_copy"* %6 to i8*
  call void @llvm.lifetime.start.p0i8(i64 416, i8* nonnull %7) #18
  br i1 %2, label %8, label %12

8:                                                ; preds = %5
  %9 = getelementptr inbounds %struct.halide_buffer_t, %struct.halide_buffer_t* %1, i64 0, i32 2
  %10 = load i8*, i8** %9, align 8, !tbaa !73
  %11 = ptrtoint i8* %10 to i64
  br label %15

12:                                               ; preds = %5
  %13 = getelementptr inbounds %struct.halide_buffer_t, %struct.halide_buffer_t* %1, i64 0, i32 0
  %14 = load i64, i64* %13, align 8, !tbaa !75
  br label %15

15:                                               ; preds = %12, %8
  %16 = phi i64 [ %11, %8 ], [ %14, %12 ]
  %17 = getelementptr inbounds %"struct.Halide::Runtime::Internal::device_copy", %"struct.Halide::Runtime::Internal::device_copy"* %6, i64 0, i32 0
  store i64 %16, i64* %17, align 8, !tbaa !138
  br i1 %4, label %18, label %22

18:                                               ; preds = %15
  %19 = getelementptr inbounds %struct.halide_buffer_t, %struct.halide_buffer_t* %3, i64 0, i32 2
  %20 = load i8*, i8** %19, align 8, !tbaa !73
  %21 = ptrtoint i8* %20 to i64
  br label %25

22:                                               ; preds = %15
  %23 = getelementptr inbounds %struct.halide_buffer_t, %struct.halide_buffer_t* %3, i64 0, i32 0
  %24 = load i64, i64* %23, align 8, !tbaa !75
  br label %25

25:                                               ; preds = %22, %18
  %26 = phi i64 [ %21, %18 ], [ %24, %22 ]
  %27 = getelementptr inbounds %"struct.Halide::Runtime::Internal::device_copy", %"struct.Halide::Runtime::Internal::device_copy"* %6, i64 0, i32 1
  store i64 %26, i64* %27, align 8, !tbaa !140
  %28 = getelementptr inbounds %struct.halide_buffer_t, %struct.halide_buffer_t* %1, i64 0, i32 4, i32 1
  %29 = load i8, i8* %28, align 1, !tbaa !28
  %30 = zext i8 %29 to i32
  %31 = add nuw nsw i32 %30, 7
  %32 = lshr i32 %31, 3
  %33 = zext i32 %32 to i64
  %34 = getelementptr inbounds %"struct.Halide::Runtime::Internal::device_copy", %"struct.Halide::Runtime::Internal::device_copy"* %6, i64 0, i32 6
  store i64 %33, i64* %34, align 8, !tbaa !141
  %35 = getelementptr inbounds %"struct.Halide::Runtime::Internal::device_copy", %"struct.Halide::Runtime::Internal::device_copy"* %6, i64 0, i32 3, i64 0
  %36 = getelementptr inbounds %"struct.Halide::Runtime::Internal::device_copy", %"struct.Halide::Runtime::Internal::device_copy"* %6, i64 0, i32 4, i64 0
  %37 = getelementptr inbounds %"struct.Halide::Runtime::Internal::device_copy", %"struct.Halide::Runtime::Internal::device_copy"* %6, i64 0, i32 5, i64 0
  %38 = getelementptr inbounds %"struct.Halide::Runtime::Internal::device_copy", %"struct.Halide::Runtime::Internal::device_copy"* %6, i64 0, i32 3, i64 1
  %39 = getelementptr inbounds %"struct.Halide::Runtime::Internal::device_copy", %"struct.Halide::Runtime::Internal::device_copy"* %6, i64 0, i32 4, i64 1
  %40 = getelementptr inbounds %"struct.Halide::Runtime::Internal::device_copy", %"struct.Halide::Runtime::Internal::device_copy"* %6, i64 0, i32 5, i64 1
  %41 = bitcast i64* %35 to <4 x i64>*
  store <4 x i64> <i64 1, i64 1, i64 1, i64 1>, <4 x i64>* %41, align 8, !tbaa !64
  %42 = bitcast i64* %36 to <4 x i64>*
  store <4 x i64> zeroinitializer, <4 x i64>* %42, align 8, !tbaa !64
  %43 = bitcast i64* %37 to <4 x i64>*
  store <4 x i64> zeroinitializer, <4 x i64>* %43, align 8, !tbaa !64
  %44 = getelementptr inbounds %"struct.Halide::Runtime::Internal::device_copy", %"struct.Halide::Runtime::Internal::device_copy"* %6, i64 0, i32 3, i64 4
  %45 = getelementptr inbounds %"struct.Halide::Runtime::Internal::device_copy", %"struct.Halide::Runtime::Internal::device_copy"* %6, i64 0, i32 4, i64 4
  %46 = getelementptr inbounds %"struct.Halide::Runtime::Internal::device_copy", %"struct.Halide::Runtime::Internal::device_copy"* %6, i64 0, i32 5, i64 4
  %47 = getelementptr inbounds %"struct.Halide::Runtime::Internal::device_copy", %"struct.Halide::Runtime::Internal::device_copy"* %6, i64 0, i32 3, i64 5
  %48 = getelementptr inbounds %"struct.Halide::Runtime::Internal::device_copy", %"struct.Halide::Runtime::Internal::device_copy"* %6, i64 0, i32 4, i64 5
  %49 = getelementptr inbounds %"struct.Halide::Runtime::Internal::device_copy", %"struct.Halide::Runtime::Internal::device_copy"* %6, i64 0, i32 5, i64 5
  %50 = bitcast i64* %44 to <4 x i64>*
  store <4 x i64> <i64 1, i64 1, i64 1, i64 1>, <4 x i64>* %50, align 8, !tbaa !64
  %51 = bitcast i64* %45 to <4 x i64>*
  store <4 x i64> zeroinitializer, <4 x i64>* %51, align 8, !tbaa !64
  %52 = bitcast i64* %46 to <4 x i64>*
  store <4 x i64> zeroinitializer, <4 x i64>* %52, align 8, !tbaa !64
  %53 = getelementptr inbounds %"struct.Halide::Runtime::Internal::device_copy", %"struct.Halide::Runtime::Internal::device_copy"* %6, i64 0, i32 3, i64 8
  %54 = getelementptr inbounds %"struct.Halide::Runtime::Internal::device_copy", %"struct.Halide::Runtime::Internal::device_copy"* %6, i64 0, i32 4, i64 8
  %55 = getelementptr inbounds %"struct.Halide::Runtime::Internal::device_copy", %"struct.Halide::Runtime::Internal::device_copy"* %6, i64 0, i32 5, i64 8
  %56 = getelementptr inbounds %"struct.Halide::Runtime::Internal::device_copy", %"struct.Halide::Runtime::Internal::device_copy"* %6, i64 0, i32 3, i64 9
  %57 = getelementptr inbounds %"struct.Halide::Runtime::Internal::device_copy", %"struct.Halide::Runtime::Internal::device_copy"* %6, i64 0, i32 4, i64 9
  %58 = getelementptr inbounds %"struct.Halide::Runtime::Internal::device_copy", %"struct.Halide::Runtime::Internal::device_copy"* %6, i64 0, i32 5, i64 9
  %59 = bitcast i64* %53 to <4 x i64>*
  store <4 x i64> <i64 1, i64 1, i64 1, i64 1>, <4 x i64>* %59, align 8, !tbaa !64
  %60 = bitcast i64* %54 to <4 x i64>*
  store <4 x i64> zeroinitializer, <4 x i64>* %60, align 8, !tbaa !64
  %61 = bitcast i64* %55 to <4 x i64>*
  store <4 x i64> zeroinitializer, <4 x i64>* %61, align 8, !tbaa !64
  %62 = getelementptr inbounds %"struct.Halide::Runtime::Internal::device_copy", %"struct.Halide::Runtime::Internal::device_copy"* %6, i64 0, i32 3, i64 12
  %63 = getelementptr inbounds %"struct.Halide::Runtime::Internal::device_copy", %"struct.Halide::Runtime::Internal::device_copy"* %6, i64 0, i32 4, i64 12
  %64 = getelementptr inbounds %"struct.Halide::Runtime::Internal::device_copy", %"struct.Halide::Runtime::Internal::device_copy"* %6, i64 0, i32 5, i64 12
  %65 = getelementptr inbounds %"struct.Halide::Runtime::Internal::device_copy", %"struct.Halide::Runtime::Internal::device_copy"* %6, i64 0, i32 3, i64 13
  %66 = getelementptr inbounds %"struct.Halide::Runtime::Internal::device_copy", %"struct.Halide::Runtime::Internal::device_copy"* %6, i64 0, i32 4, i64 13
  %67 = getelementptr inbounds %"struct.Halide::Runtime::Internal::device_copy", %"struct.Halide::Runtime::Internal::device_copy"* %6, i64 0, i32 5, i64 13
  %68 = getelementptr inbounds %"struct.Halide::Runtime::Internal::device_copy", %"struct.Halide::Runtime::Internal::device_copy"* %6, i64 0, i32 3, i64 14
  %69 = getelementptr inbounds %"struct.Halide::Runtime::Internal::device_copy", %"struct.Halide::Runtime::Internal::device_copy"* %6, i64 0, i32 4, i64 14
  %70 = getelementptr inbounds %"struct.Halide::Runtime::Internal::device_copy", %"struct.Halide::Runtime::Internal::device_copy"* %6, i64 0, i32 5, i64 14
  %71 = getelementptr inbounds %"struct.Halide::Runtime::Internal::device_copy", %"struct.Halide::Runtime::Internal::device_copy"* %6, i64 0, i32 3, i64 15
  %72 = bitcast i64* %62 to <4 x i64>*
  store <4 x i64> <i64 1, i64 1, i64 1, i64 1>, <4 x i64>* %72, align 8, !tbaa !64
  %73 = getelementptr inbounds %"struct.Halide::Runtime::Internal::device_copy", %"struct.Halide::Runtime::Internal::device_copy"* %6, i64 0, i32 4, i64 15
  %74 = bitcast i64* %63 to <4 x i64>*
  store <4 x i64> zeroinitializer, <4 x i64>* %74, align 8, !tbaa !64
  %75 = getelementptr inbounds %"struct.Halide::Runtime::Internal::device_copy", %"struct.Halide::Runtime::Internal::device_copy"* %6, i64 0, i32 5, i64 15
  %76 = bitcast i64* %64 to <4 x i64>*
  store <4 x i64> zeroinitializer, <4 x i64>* %76, align 8, !tbaa !64
  %77 = getelementptr inbounds %"struct.Halide::Runtime::Internal::device_copy", %"struct.Halide::Runtime::Internal::device_copy"* %6, i64 0, i32 2
  %78 = getelementptr inbounds %struct.halide_buffer_t, %struct.halide_buffer_t* %1, i64 0, i32 5
  %79 = load i32, i32* %78, align 4, !tbaa !76
  %80 = icmp sgt i32 %79, 0
  br i1 %80, label %81, label %.loopexit9

81:                                               ; preds = %25
  %82 = getelementptr inbounds %struct.halide_buffer_t, %struct.halide_buffer_t* %1, i64 0, i32 6
  %83 = load %struct.halide_dimension_t*, %struct.halide_dimension_t** %82, align 8, !tbaa !77
  %84 = getelementptr inbounds %struct.halide_buffer_t, %struct.halide_buffer_t* %3, i64 0, i32 6
  %85 = load %struct.halide_dimension_t*, %struct.halide_dimension_t** %84, align 8, !tbaa !77
  %86 = zext i32 %79 to i64
  %min.iters.check = icmp ult i32 %79, 17
  br i1 %min.iters.check, label %scalar.ph.preheader, label %vector.ph

scalar.ph.preheader:                              ; preds = %middle.block, %81
  %.ph = phi i64 [ 0, %81 ], [ %n.vec, %middle.block ]
  %.ph33 = phi i64 [ 0, %81 ], [ %137, %middle.block ]
  br label %scalar.ph

vector.ph:                                        ; preds = %81
  %n.mod.vf = and i64 %86, 15
  %87 = icmp eq i64 %n.mod.vf, 0
  %88 = select i1 %87, i64 16, i64 %n.mod.vf
  %n.vec = sub nsw i64 %86, %88
  br label %vector.body

vector.body:                                      ; preds = %vector.body, %vector.ph
  %index = phi i64 [ 0, %vector.ph ], [ %index.next, %vector.body ]
  %vec.phi = phi <4 x i64> [ zeroinitializer, %vector.ph ], [ %132, %vector.body ]
  %vec.phi10 = phi <4 x i64> [ zeroinitializer, %vector.ph ], [ %133, %vector.body ]
  %vec.phi11 = phi <4 x i64> [ zeroinitializer, %vector.ph ], [ %134, %vector.body ]
  %vec.phi12 = phi <4 x i64> [ zeroinitializer, %vector.ph ], [ %135, %vector.body ]
  %89 = or i64 %index, 4
  %90 = or i64 %index, 8
  %91 = or i64 %index, 12
  %92 = getelementptr inbounds %struct.halide_dimension_t, %struct.halide_dimension_t* %83, i64 %index, i32 2
  %93 = getelementptr inbounds %struct.halide_dimension_t, %struct.halide_dimension_t* %83, i64 %89, i32 2
  %94 = getelementptr inbounds %struct.halide_dimension_t, %struct.halide_dimension_t* %83, i64 %90, i32 2
  %95 = getelementptr inbounds %struct.halide_dimension_t, %struct.halide_dimension_t* %83, i64 %91, i32 2
  %96 = getelementptr inbounds i32, i32* %92, i64 -2
  %97 = bitcast i32* %96 to <16 x i32>*
  %98 = getelementptr inbounds i32, i32* %93, i64 -2
  %99 = bitcast i32* %98 to <16 x i32>*
  %100 = getelementptr inbounds i32, i32* %94, i64 -2
  %101 = bitcast i32* %100 to <16 x i32>*
  %102 = getelementptr inbounds i32, i32* %95, i64 -2
  %103 = bitcast i32* %102 to <16 x i32>*
  %wide.vec = load <16 x i32>, <16 x i32>* %97, align 4, !tbaa !16
  %wide.vec13 = load <16 x i32>, <16 x i32>* %99, align 4, !tbaa !16
  %wide.vec14 = load <16 x i32>, <16 x i32>* %101, align 4, !tbaa !16
  %wide.vec15 = load <16 x i32>, <16 x i32>* %103, align 4, !tbaa !16
  %strided.vec19 = shufflevector <16 x i32> %wide.vec, <16 x i32> poison, <4 x i32> <i32 2, i32 6, i32 10, i32 14>
  %strided.vec20 = shufflevector <16 x i32> %wide.vec13, <16 x i32> poison, <4 x i32> <i32 2, i32 6, i32 10, i32 14>
  %strided.vec21 = shufflevector <16 x i32> %wide.vec14, <16 x i32> poison, <4 x i32> <i32 2, i32 6, i32 10, i32 14>
  %strided.vec22 = shufflevector <16 x i32> %wide.vec15, <16 x i32> poison, <4 x i32> <i32 2, i32 6, i32 10, i32 14>
  %104 = sext <4 x i32> %strided.vec19 to <4 x i64>
  %105 = sext <4 x i32> %strided.vec20 to <4 x i64>
  %106 = sext <4 x i32> %strided.vec21 to <4 x i64>
  %107 = sext <4 x i32> %strided.vec22 to <4 x i64>
  %108 = getelementptr inbounds %struct.halide_dimension_t, %struct.halide_dimension_t* %85, i64 %index, i32 0
  %109 = getelementptr inbounds %struct.halide_dimension_t, %struct.halide_dimension_t* %85, i64 %89, i32 0
  %110 = getelementptr inbounds %struct.halide_dimension_t, %struct.halide_dimension_t* %85, i64 %90, i32 0
  %111 = getelementptr inbounds %struct.halide_dimension_t, %struct.halide_dimension_t* %85, i64 %91, i32 0
  %112 = bitcast i32* %108 to <16 x i32>*
  %113 = bitcast i32* %109 to <16 x i32>*
  %114 = bitcast i32* %110 to <16 x i32>*
  %115 = bitcast i32* %111 to <16 x i32>*
  %wide.vec23 = load <16 x i32>, <16 x i32>* %112, align 4, !tbaa !82
  %wide.vec24 = load <16 x i32>, <16 x i32>* %113, align 4, !tbaa !82
  %wide.vec25 = load <16 x i32>, <16 x i32>* %114, align 4, !tbaa !82
  %wide.vec26 = load <16 x i32>, <16 x i32>* %115, align 4, !tbaa !82
  %116 = sub nsw <16 x i32> %wide.vec23, %wide.vec
  %117 = shufflevector <16 x i32> %116, <16 x i32> undef, <4 x i32> <i32 0, i32 4, i32 8, i32 12>
  %118 = sub nsw <16 x i32> %wide.vec24, %wide.vec13
  %119 = shufflevector <16 x i32> %118, <16 x i32> undef, <4 x i32> <i32 0, i32 4, i32 8, i32 12>
  %120 = sub nsw <16 x i32> %wide.vec25, %wide.vec14
  %121 = shufflevector <16 x i32> %120, <16 x i32> undef, <4 x i32> <i32 0, i32 4, i32 8, i32 12>
  %122 = sub nsw <16 x i32> %wide.vec26, %wide.vec15
  %123 = shufflevector <16 x i32> %122, <16 x i32> undef, <4 x i32> <i32 0, i32 4, i32 8, i32 12>
  %124 = sext <4 x i32> %117 to <4 x i64>
  %125 = sext <4 x i32> %119 to <4 x i64>
  %126 = sext <4 x i32> %121 to <4 x i64>
  %127 = sext <4 x i32> %123 to <4 x i64>
  %128 = mul nsw <4 x i64> %124, %104
  %129 = mul nsw <4 x i64> %125, %105
  %130 = mul nsw <4 x i64> %126, %106
  %131 = mul nsw <4 x i64> %127, %107
  %132 = add <4 x i64> %128, %vec.phi
  %133 = add <4 x i64> %129, %vec.phi10
  %134 = add <4 x i64> %130, %vec.phi11
  %135 = add <4 x i64> %131, %vec.phi12
  %index.next = add i64 %index, 16
  %136 = icmp eq i64 %index.next, %n.vec
  br i1 %136, label %middle.block, label %vector.body, !llvm.loop !144

middle.block:                                     ; preds = %vector.body
  %bin.rdx = add <4 x i64> %133, %132
  %bin.rdx31 = add <4 x i64> %134, %bin.rdx
  %bin.rdx32 = add <4 x i64> %135, %bin.rdx31
  %137 = call i64 @llvm.vector.reduce.add.v4i64(<4 x i64> %bin.rdx32)
  br label %scalar.ph.preheader

.loopexit9:                                       ; preds = %scalar.ph, %25
  %138 = phi i64 [ 0, %25 ], [ %155, %scalar.ph ]
  %139 = mul i64 %138, %33
  store i64 %139, i64* %77, align 8, !tbaa !143
  %140 = getelementptr inbounds %struct.halide_buffer_t, %struct.halide_buffer_t* %3, i64 0, i32 5
  %141 = load i32, i32* %140, align 4, !tbaa !76
  %142 = icmp eq i32 %79, %141
  br i1 %142, label %158, label %167

scalar.ph:                                        ; preds = %scalar.ph.preheader, %scalar.ph
  %143 = phi i64 [ %156, %scalar.ph ], [ %.ph, %scalar.ph.preheader ]
  %144 = phi i64 [ %155, %scalar.ph ], [ %.ph33, %scalar.ph.preheader ]
  %145 = getelementptr inbounds %struct.halide_dimension_t, %struct.halide_dimension_t* %83, i64 %143, i32 2
  %146 = load i32, i32* %145, align 4, !tbaa !83
  %147 = sext i32 %146 to i64
  %148 = getelementptr inbounds %struct.halide_dimension_t, %struct.halide_dimension_t* %85, i64 %143, i32 0
  %149 = load i32, i32* %148, align 4, !tbaa !82
  %150 = getelementptr inbounds %struct.halide_dimension_t, %struct.halide_dimension_t* %83, i64 %143, i32 0
  %151 = load i32, i32* %150, align 4, !tbaa !82
  %152 = sub nsw i32 %149, %151
  %153 = sext i32 %152 to i64
  %154 = mul nsw i64 %153, %147
  %155 = add i64 %154, %144
  %156 = add nuw nsw i64 %143, 1
  %157 = icmp eq i64 %156, %86
  br i1 %157, label %.loopexit9, label %scalar.ph, !llvm.loop !145

158:                                              ; preds = %.loopexit9
  %159 = getelementptr inbounds %struct.halide_buffer_t, %struct.halide_buffer_t* %3, i64 0, i32 4, i32 1
  %160 = load i8, i8* %159, align 1, !tbaa !28
  %161 = zext i8 %160 to i32
  %162 = add nuw nsw i32 %161, 7
  %163 = lshr i32 %162, 3
  %164 = icmp ne i32 %32, %163
  %165 = icmp sgt i32 %79, 16
  %166 = or i1 %165, %164
  br i1 %166, label %167, label %169

167:                                              ; preds = %158, %.loopexit9
  %168 = bitcast %"struct.Halide::Runtime::Internal::device_copy"* %0 to i8*
  tail call void @llvm.memset.p0i8.i64(i8* nonnull align 8 dereferenceable(416) %168, i8 0, i64 416, i1 false)
  br label %332

169:                                              ; preds = %158
  %170 = icmp eq i32 %32, 0
  br i1 %170, label %178, label %171

171:                                              ; preds = %169
  br i1 %80, label %172, label %.loopexit

172:                                              ; preds = %171
  %173 = getelementptr inbounds %struct.halide_buffer_t, %struct.halide_buffer_t* %3, i64 0, i32 6
  %174 = load %struct.halide_dimension_t*, %struct.halide_dimension_t** %173, align 8, !tbaa !77
  %175 = getelementptr inbounds %struct.halide_buffer_t, %struct.halide_buffer_t* %1, i64 0, i32 6
  %176 = load %struct.halide_dimension_t*, %struct.halide_dimension_t** %175, align 8, !tbaa !77
  %177 = zext i32 %79 to i64
  br label %210

178:                                              ; preds = %169
  %179 = bitcast %"struct.Halide::Runtime::Internal::device_copy"* %0 to i8*
  tail call void @llvm.memset.p0i8.i64(i8* nonnull align 8 dereferenceable(416) %179, i8 0, i64 416, i1 false)
  br label %332

180:                                              ; preds = %.loopexit8
  %181 = load i64, i64* %34, align 8, !tbaa !141
  %182 = load i64, i64* %36, align 8, !tbaa !64
  %183 = icmp eq i64 %181, %182
  br i1 %183, label %184, label %.loopexit

184:                                              ; preds = %180
  %185 = load i64, i64* %37, align 8, !tbaa !64
  %186 = bitcast i64* %38 to <4 x i64>*
  %187 = bitcast i64* %35 to <4 x i64>*
  %188 = bitcast i64* %39 to <4 x i64>*
  %189 = bitcast i64* %36 to <4 x i64>*
  %190 = bitcast i64* %40 to <4 x i64>*
  %191 = bitcast i64* %37 to <4 x i64>*
  %192 = bitcast i64* %47 to <4 x i64>*
  %193 = bitcast i64* %44 to <4 x i64>*
  %194 = bitcast i64* %48 to <4 x i64>*
  %195 = bitcast i64* %45 to <4 x i64>*
  %196 = bitcast i64* %49 to <4 x i64>*
  %197 = bitcast i64* %46 to <4 x i64>*
  %198 = bitcast i64* %56 to <4 x i64>*
  %199 = bitcast i64* %53 to <4 x i64>*
  %200 = bitcast i64* %57 to <4 x i64>*
  %201 = bitcast i64* %54 to <4 x i64>*
  %202 = bitcast i64* %58 to <4 x i64>*
  %203 = bitcast i64* %55 to <4 x i64>*
  %204 = bitcast i64* %65 to <2 x i64>*
  %205 = bitcast i64* %62 to <2 x i64>*
  %206 = bitcast i64* %66 to <2 x i64>*
  %207 = bitcast i64* %63 to <2 x i64>*
  %208 = bitcast i64* %67 to <2 x i64>*
  %209 = bitcast i64* %64 to <2 x i64>*
  br label %306

210:                                              ; preds = %.loopexit8, %172
  %211 = phi i64 [ 0, %172 ], [ %262, %.loopexit8 ]
  %212 = getelementptr inbounds %struct.halide_dimension_t, %struct.halide_dimension_t* %174, i64 %211, i32 2
  %213 = load i32, i32* %212, align 4, !tbaa !83
  %214 = sext i32 %213 to i64
  %215 = mul nsw i64 %214, %33
  %216 = getelementptr inbounds %struct.halide_dimension_t, %struct.halide_dimension_t* %176, i64 %211, i32 2
  %217 = load i32, i32* %216, align 4, !tbaa !83
  %218 = sext i32 %217 to i64
  %219 = mul nsw i64 %218, %33
  %220 = icmp eq i64 %211, 0
  br i1 %220, label %235, label %221

221:                                              ; preds = %210
  %222 = icmp eq i64 %215, 0
  br i1 %222, label %223, label %.preheader

223:                                              ; preds = %221
  %224 = trunc i64 %211 to i32
  br label %235

.preheader:                                       ; preds = %221, %229
  %225 = phi i64 [ %230, %229 ], [ 0, %221 ]
  %226 = getelementptr inbounds %"struct.Halide::Runtime::Internal::device_copy", %"struct.Halide::Runtime::Internal::device_copy"* %6, i64 0, i32 5, i64 %225
  %227 = load i64, i64* %226, align 8, !tbaa !64
  %228 = icmp ult i64 %215, %227
  br i1 %228, label %232, label %229

229:                                              ; preds = %.preheader
  %230 = add nuw nsw i64 %225, 1
  %231 = icmp eq i64 %230, %211
  br i1 %231, label %232, label %.preheader, !llvm.loop !146

232:                                              ; preds = %229, %.preheader
  %233 = phi i64 [ %211, %229 ], [ %225, %.preheader ]
  %234 = trunc i64 %233 to i32
  br label %235

235:                                              ; preds = %232, %223, %210
  %236 = phi i32 [ 0, %210 ], [ %234, %232 ], [ %224, %223 ]
  %237 = zext i32 %236 to i64
  %238 = icmp ugt i64 %211, %237
  br i1 %238, label %239, label %.loopexit8

239:                                              ; preds = %235
  %240 = sext i32 %236 to i64
  %241 = sub i64 %211, %240
  %242 = xor i64 %240, -1
  %243 = add i64 %211, %242
  %xtraiter = and i64 %241, 3
  %lcmp.mod.not = icmp eq i64 %xtraiter, 0
  br i1 %lcmp.mod.not, label %.prol.loopexit, label %.prol.preheader

.prol.preheader:                                  ; preds = %239, %.prol.preheader
  %244 = phi i64 [ %245, %.prol.preheader ], [ %211, %239 ]
  %prol.iter = phi i64 [ %prol.iter.sub, %.prol.preheader ], [ %xtraiter, %239 ]
  %245 = add nsw i64 %244, -1
  %246 = getelementptr inbounds %"struct.Halide::Runtime::Internal::device_copy", %"struct.Halide::Runtime::Internal::device_copy"* %6, i64 0, i32 3, i64 %245
  %247 = load i64, i64* %246, align 8, !tbaa !64
  %248 = getelementptr inbounds %"struct.Halide::Runtime::Internal::device_copy", %"struct.Halide::Runtime::Internal::device_copy"* %6, i64 0, i32 3, i64 %244
  store i64 %247, i64* %248, align 8, !tbaa !64
  %249 = getelementptr inbounds %"struct.Halide::Runtime::Internal::device_copy", %"struct.Halide::Runtime::Internal::device_copy"* %6, i64 0, i32 5, i64 %245
  %250 = load i64, i64* %249, align 8, !tbaa !64
  %251 = getelementptr inbounds %"struct.Halide::Runtime::Internal::device_copy", %"struct.Halide::Runtime::Internal::device_copy"* %6, i64 0, i32 5, i64 %244
  store i64 %250, i64* %251, align 8, !tbaa !64
  %252 = getelementptr inbounds %"struct.Halide::Runtime::Internal::device_copy", %"struct.Halide::Runtime::Internal::device_copy"* %6, i64 0, i32 4, i64 %245
  %253 = load i64, i64* %252, align 8, !tbaa !64
  %254 = getelementptr inbounds %"struct.Halide::Runtime::Internal::device_copy", %"struct.Halide::Runtime::Internal::device_copy"* %6, i64 0, i32 4, i64 %244
  store i64 %253, i64* %254, align 8, !tbaa !64
  %prol.iter.sub = add i64 %prol.iter, -1
  %prol.iter.cmp.not = icmp eq i64 %prol.iter.sub, 0
  br i1 %prol.iter.cmp.not, label %.prol.loopexit, label %.prol.preheader, !llvm.loop !147

.prol.loopexit:                                   ; preds = %.prol.preheader, %239
  %.unr = phi i64 [ %211, %239 ], [ %245, %.prol.preheader ]
  %255 = icmp ult i64 %243, 3
  br i1 %255, label %.loopexit8, label %.new

.loopexit8:                                       ; preds = %.prol.loopexit, %.new, %235
  %256 = getelementptr inbounds %struct.halide_dimension_t, %struct.halide_dimension_t* %174, i64 %211, i32 1
  %257 = load i32, i32* %256, align 4, !tbaa !79
  %258 = sext i32 %257 to i64
  %259 = getelementptr inbounds %"struct.Halide::Runtime::Internal::device_copy", %"struct.Halide::Runtime::Internal::device_copy"* %6, i64 0, i32 3, i64 %237
  store i64 %258, i64* %259, align 8, !tbaa !64
  %260 = getelementptr inbounds %"struct.Halide::Runtime::Internal::device_copy", %"struct.Halide::Runtime::Internal::device_copy"* %6, i64 0, i32 5, i64 %237
  store i64 %215, i64* %260, align 8, !tbaa !64
  %261 = getelementptr inbounds %"struct.Halide::Runtime::Internal::device_copy", %"struct.Halide::Runtime::Internal::device_copy"* %6, i64 0, i32 4, i64 %237
  store i64 %219, i64* %261, align 8, !tbaa !64
  %262 = add nuw nsw i64 %211, 1
  %263 = icmp eq i64 %262, %177
  br i1 %263, label %180, label %210, !llvm.loop !148

.new:                                             ; preds = %.prol.loopexit, %.new
  %264 = phi i64 [ %295, %.new ], [ %.unr, %.prol.loopexit ]
  %265 = add nsw i64 %264, -1
  %266 = getelementptr inbounds %"struct.Halide::Runtime::Internal::device_copy", %"struct.Halide::Runtime::Internal::device_copy"* %6, i64 0, i32 3, i64 %265
  %267 = load i64, i64* %266, align 8, !tbaa !64
  %268 = getelementptr inbounds %"struct.Halide::Runtime::Internal::device_copy", %"struct.Halide::Runtime::Internal::device_copy"* %6, i64 0, i32 3, i64 %264
  store i64 %267, i64* %268, align 8, !tbaa !64
  %269 = getelementptr inbounds %"struct.Halide::Runtime::Internal::device_copy", %"struct.Halide::Runtime::Internal::device_copy"* %6, i64 0, i32 5, i64 %265
  %270 = load i64, i64* %269, align 8, !tbaa !64
  %271 = getelementptr inbounds %"struct.Halide::Runtime::Internal::device_copy", %"struct.Halide::Runtime::Internal::device_copy"* %6, i64 0, i32 5, i64 %264
  store i64 %270, i64* %271, align 8, !tbaa !64
  %272 = getelementptr inbounds %"struct.Halide::Runtime::Internal::device_copy", %"struct.Halide::Runtime::Internal::device_copy"* %6, i64 0, i32 4, i64 %265
  %273 = load i64, i64* %272, align 8, !tbaa !64
  %274 = getelementptr inbounds %"struct.Halide::Runtime::Internal::device_copy", %"struct.Halide::Runtime::Internal::device_copy"* %6, i64 0, i32 4, i64 %264
  store i64 %273, i64* %274, align 8, !tbaa !64
  %275 = add nsw i64 %264, -2
  %276 = getelementptr inbounds %"struct.Halide::Runtime::Internal::device_copy", %"struct.Halide::Runtime::Internal::device_copy"* %6, i64 0, i32 3, i64 %275
  %277 = load i64, i64* %276, align 8, !tbaa !64
  %278 = getelementptr inbounds %"struct.Halide::Runtime::Internal::device_copy", %"struct.Halide::Runtime::Internal::device_copy"* %6, i64 0, i32 3, i64 %265
  store i64 %277, i64* %278, align 8, !tbaa !64
  %279 = getelementptr inbounds %"struct.Halide::Runtime::Internal::device_copy", %"struct.Halide::Runtime::Internal::device_copy"* %6, i64 0, i32 5, i64 %275
  %280 = load i64, i64* %279, align 8, !tbaa !64
  %281 = getelementptr inbounds %"struct.Halide::Runtime::Internal::device_copy", %"struct.Halide::Runtime::Internal::device_copy"* %6, i64 0, i32 5, i64 %265
  store i64 %280, i64* %281, align 8, !tbaa !64
  %282 = getelementptr inbounds %"struct.Halide::Runtime::Internal::device_copy", %"struct.Halide::Runtime::Internal::device_copy"* %6, i64 0, i32 4, i64 %275
  %283 = load i64, i64* %282, align 8, !tbaa !64
  %284 = getelementptr inbounds %"struct.Halide::Runtime::Internal::device_copy", %"struct.Halide::Runtime::Internal::device_copy"* %6, i64 0, i32 4, i64 %265
  store i64 %283, i64* %284, align 8, !tbaa !64
  %285 = add nsw i64 %264, -3
  %286 = getelementptr inbounds %"struct.Halide::Runtime::Internal::device_copy", %"struct.Halide::Runtime::Internal::device_copy"* %6, i64 0, i32 3, i64 %285
  %287 = load i64, i64* %286, align 8, !tbaa !64
  %288 = getelementptr inbounds %"struct.Halide::Runtime::Internal::device_copy", %"struct.Halide::Runtime::Internal::device_copy"* %6, i64 0, i32 3, i64 %275
  store i64 %287, i64* %288, align 8, !tbaa !64
  %289 = getelementptr inbounds %"struct.Halide::Runtime::Internal::device_copy", %"struct.Halide::Runtime::Internal::device_copy"* %6, i64 0, i32 5, i64 %285
  %290 = load i64, i64* %289, align 8, !tbaa !64
  %291 = getelementptr inbounds %"struct.Halide::Runtime::Internal::device_copy", %"struct.Halide::Runtime::Internal::device_copy"* %6, i64 0, i32 5, i64 %275
  store i64 %290, i64* %291, align 8, !tbaa !64
  %292 = getelementptr inbounds %"struct.Halide::Runtime::Internal::device_copy", %"struct.Halide::Runtime::Internal::device_copy"* %6, i64 0, i32 4, i64 %285
  %293 = load i64, i64* %292, align 8, !tbaa !64
  %294 = getelementptr inbounds %"struct.Halide::Runtime::Internal::device_copy", %"struct.Halide::Runtime::Internal::device_copy"* %6, i64 0, i32 4, i64 %275
  store i64 %293, i64* %294, align 8, !tbaa !64
  %295 = add nsw i64 %264, -4
  %296 = getelementptr inbounds %"struct.Halide::Runtime::Internal::device_copy", %"struct.Halide::Runtime::Internal::device_copy"* %6, i64 0, i32 3, i64 %295
  %297 = load i64, i64* %296, align 8, !tbaa !64
  %298 = getelementptr inbounds %"struct.Halide::Runtime::Internal::device_copy", %"struct.Halide::Runtime::Internal::device_copy"* %6, i64 0, i32 3, i64 %285
  store i64 %297, i64* %298, align 8, !tbaa !64
  %299 = getelementptr inbounds %"struct.Halide::Runtime::Internal::device_copy", %"struct.Halide::Runtime::Internal::device_copy"* %6, i64 0, i32 5, i64 %295
  %300 = load i64, i64* %299, align 8, !tbaa !64
  %301 = getelementptr inbounds %"struct.Halide::Runtime::Internal::device_copy", %"struct.Halide::Runtime::Internal::device_copy"* %6, i64 0, i32 5, i64 %285
  store i64 %300, i64* %301, align 8, !tbaa !64
  %302 = getelementptr inbounds %"struct.Halide::Runtime::Internal::device_copy", %"struct.Halide::Runtime::Internal::device_copy"* %6, i64 0, i32 4, i64 %295
  %303 = load i64, i64* %302, align 8, !tbaa !64
  %304 = getelementptr inbounds %"struct.Halide::Runtime::Internal::device_copy", %"struct.Halide::Runtime::Internal::device_copy"* %6, i64 0, i32 4, i64 %285
  store i64 %303, i64* %304, align 8, !tbaa !64
  %305 = icmp sgt i64 %295, %240
  br i1 %305, label %.new, label %.loopexit8, !llvm.loop !149

306:                                              ; preds = %310, %184
  %307 = phi i64 [ %185, %184 ], [ %330, %310 ]
  %308 = phi i64 [ %181, %184 ], [ %312, %310 ]
  %309 = icmp eq i64 %308, %307
  br i1 %309, label %310, label %.loopexit

310:                                              ; preds = %306
  %311 = load i64, i64* %35, align 8, !tbaa !64
  %312 = mul i64 %311, %307
  store i64 %312, i64* %34, align 8, !tbaa !141
  %313 = load <4 x i64>, <4 x i64>* %186, align 8, !tbaa !64
  store <4 x i64> %313, <4 x i64>* %187, align 8, !tbaa !64
  %314 = load <4 x i64>, <4 x i64>* %188, align 8, !tbaa !64
  store <4 x i64> %314, <4 x i64>* %189, align 8, !tbaa !64
  %315 = load <4 x i64>, <4 x i64>* %190, align 8, !tbaa !64
  store <4 x i64> %315, <4 x i64>* %191, align 8, !tbaa !64
  %316 = load <4 x i64>, <4 x i64>* %192, align 8, !tbaa !64
  store <4 x i64> %316, <4 x i64>* %193, align 8, !tbaa !64
  %317 = load <4 x i64>, <4 x i64>* %194, align 8, !tbaa !64
  store <4 x i64> %317, <4 x i64>* %195, align 8, !tbaa !64
  %318 = load <4 x i64>, <4 x i64>* %196, align 8, !tbaa !64
  store <4 x i64> %318, <4 x i64>* %197, align 8, !tbaa !64
  %319 = load <4 x i64>, <4 x i64>* %198, align 8, !tbaa !64
  store <4 x i64> %319, <4 x i64>* %199, align 8, !tbaa !64
  %320 = load <4 x i64>, <4 x i64>* %200, align 8, !tbaa !64
  store <4 x i64> %320, <4 x i64>* %201, align 8, !tbaa !64
  %321 = load <4 x i64>, <4 x i64>* %202, align 8, !tbaa !64
  store <4 x i64> %321, <4 x i64>* %203, align 8, !tbaa !64
  %322 = load <2 x i64>, <2 x i64>* %204, align 8, !tbaa !64
  store <2 x i64> %322, <2 x i64>* %205, align 8, !tbaa !64
  %323 = load <2 x i64>, <2 x i64>* %206, align 8, !tbaa !64
  store <2 x i64> %323, <2 x i64>* %207, align 8, !tbaa !64
  %324 = load <2 x i64>, <2 x i64>* %208, align 8, !tbaa !64
  store <2 x i64> %324, <2 x i64>* %209, align 8, !tbaa !64
  %325 = load i64, i64* %71, align 8, !tbaa !64
  store i64 %325, i64* %68, align 8, !tbaa !64
  %326 = load i64, i64* %73, align 8, !tbaa !64
  store i64 %326, i64* %69, align 8, !tbaa !64
  %327 = load i64, i64* %75, align 8, !tbaa !64
  store i64 %327, i64* %70, align 8, !tbaa !64
  store i64 1, i64* %71, align 8, !tbaa !64
  store i64 0, i64* %73, align 8, !tbaa !64
  store i64 0, i64* %75, align 8, !tbaa !64
  %328 = extractelement <4 x i64> %314, i32 0
  %329 = icmp eq i64 %312, %328
  %330 = extractelement <4 x i64> %315, i32 0
  br i1 %329, label %306, label %.loopexit, !llvm.loop !150

.loopexit:                                        ; preds = %310, %306, %180, %171
  %331 = bitcast %"struct.Halide::Runtime::Internal::device_copy"* %0 to i8*
  call void @llvm.memcpy.p0i8.p0i8.i64(i8* nonnull align 8 dereferenceable(416) %331, i8* nonnull align 8 dereferenceable(416) %7, i64 416, i1 false), !tbaa.struct !151
  br label %332

332:                                              ; preds = %.loopexit, %178, %167
  call void @llvm.lifetime.end.p0i8(i64 416, i8* nonnull %7) #18
  ret void
}

; Function Attrs: argmemonly nofree nosync nounwind willreturn writeonly
declare void @llvm.memset.p0i8.i64(i8* nocapture writeonly, i8, i64, i1 immarg) #5

; Function Attrs: nounwind mustprogress
define linkonce zeroext i1 @_ZN6Halide7Runtime8Internal10keys_equalEPKhS3_m(i8* %0, i8* %1, i64 %2) local_unnamed_addr #0 {
  %4 = tail call i32 @memcmp(i8* %0, i8* %1, i64 %2) #16
  %5 = icmp eq i32 %4, 0
  ret i1 %5
}

declare i32 @memcmp(i8*, i8*, i64) local_unnamed_addr #1

; Function Attrs: nounwind mustprogress
define linkonce zeroext i1 @_ZN6Halide7Runtime8Internal16buffer_has_shapeEPK15halide_buffer_tPK18halide_dimension_t(%struct.halide_buffer_t* %0, %struct.halide_dimension_t* %1) local_unnamed_addr #0 {
  %3 = getelementptr inbounds %struct.halide_buffer_t, %struct.halide_buffer_t* %0, i64 0, i32 5
